107860	000	THE CHURCH OF JESUS CHRIST OF	LDS #50017240101	LDS #50017240101 THE CHURCH OF JESUS CHRIST OF	c/o WWW CASSINFO COM	PO BOX 182764				COLUMBUS OH 43218-2764	OH	43218-2764	64	9475 N MUSTANG WAY/ VV CHURCH	Water			Sewer	Penalty			Garbage Service	Garbage Fuel Charge		Storm Drain	Deployed Abatement	Deposit	Miscellaneous							274.22										41.25									0	296.13	296.13CR	15.00		315.47	330.47	08/08/2022	08/31/2022	07/01/2022	07/31/2022	06						00012						35712962						3						07/20/2022						12095						06/20/2022						12326						230						Decatherm							Past Due balances must be paid by 08/15/2022  in order to avoid a $50 fee and disconnection of water service.	If you would like to enroll in paperless billing or pay your bills online please visit www.eaglemountaincity.com	107860	12/21/2009	15.00	Single Graph				GAL To	30	7																		432182764	0	JUL	JUN	MAY	APR	MAR	FEB	JAN	DEC	NOV	OCT	SEP	AUG		7	6	5	4	3	2	1	12	11	10	9	8	0	230	198	37	8	11	9	25	7	14	76	135	136	0	190	197	99	3	3	3	0	0	14	113	467	263	
107860	001	THE CHURCH OF JESUS CHRIST OF	LDS #50017240101	LDS #50017240101 THE CHURCH OF JESUS CHRIST OF	c/o WWW CASSINFO COM	PO BOX 182764				COLUMBUS OH 43218-2764	OH	43218-2764	64	4142 N LAKE MOUNTAIN RD/ EPT CHURCH	Water			Sewer	Penalty			Garbage Service	Garbage Fuel Charge		Storm Drain	Deployed Abatement	Deposit	Miscellaneous							180.05			45.75							8.25									0	189.66	189.66CR	15.00		234.05	249.05	08/08/2022	08/31/2022	07/01/2022	07/31/2022	27						10000						45347327						1						07/15/2022						8846						06/15/2022						8989						143						GAL							Past Due balances must be paid by 08/15/2022  in order to avoid a $50 fee and disconnection of water service.	If you would like to enroll in paperless billing or pay your bills online please visit www.eaglemountaincity.com	107860	03/18/2014	15.00	Single Graph				GAL To	30	7																		432182764	0	JUL	JUN	MAY	APR	MAR	FEB	JAN	DEC	NOV	OCT	SEP	AUG		7	6	5	4	3	2	1	12	11	10	9	8	0	143	102	51	10	7	7	7	8	8	39	210	247	0	411	115	72	0	5	4	6	6	14	75	115	235	
001858	002	LDS CHURCH		 LDS CHURCH	c/o CASS INFO	PO BOX 182764				COLUMBUS OH 43218-2764	OH	43218-2764	64	8732 N DESERT CANYON RD/ HW CHRCH	Water			Sewer	Penalty			Garbage Service	Garbage Fuel Charge		Storm Drain	Deployed Abatement	Deposit	Miscellaneous							165.26			45.75							16.50									0	177.14	177.14CR	15.00		227.51	242.51	08/08/2022	08/31/2022	07/01/2022	07/31/2022	60						00008						17515738						1						07/19/2022						2646						06/20/2022						2775						129						GAL							Past Due balances must be paid by 08/15/2022  in order to avoid a $50 fee and disconnection of water service.	If you would like to enroll in paperless billing or pay your bills online please visit www.eaglemountaincity.com	1858	09/11/2017	15.00	Single Graph				GAL To	30	7																		43218	0	JUL	JUN	MAY	APR	MAR	FEB	JAN	DEC	NOV	OCT	SEP	AUG		7	6	5	4	3	2	1	12	11	10	9	8	0	129	82	2	30	2	2	1	2	1	53	88	85	0	107	56	32	1	0	0	0	0	43	88	271	102	
001858	001	LDS CHURCH		 LDS CHURCH	c/o CASS INFO	PO BOX 182764				COLUMBUS OH 43218-2764	OH	43218-2764	64	3382 E SPRING MOUNTAIN DR/ SPR CHCH 101	Water			Sewer	Penalty			Garbage Service	Garbage Fuel Charge		Storm Drain	Deployed Abatement	Deposit	Miscellaneous							176.77			45.75							16.50									0	399.58	399.58CR	15.00		239.02	254.02	08/08/2022	08/31/2022	07/01/2022	07/31/2022	74						00101						16690033						1						07/19/2022						4595						06/22/2022						4735						140						GAL							Past Due balances must be paid by 08/15/2022  in order to avoid a $50 fee and disconnection of water service.	If you would like to enroll in paperless billing or pay your bills online please visit www.eaglemountaincity.com	1858	05/11/2017	15.00	Single Graph				GAL To	30	7																		43218	0	JUL	JUN	MAY	APR	MAR	FEB	JAN	DEC	NOV	OCT	SEP	AUG		7	6	5	4	3	2	1	12	11	10	9	8	0	140	274	0	2	1	1	1	1	2	46	102	134	0	177	127	233	33	0	1	0	0	7	63	82	287	
001858	003	LDS CHURCH		 LDS CHURCH	c/o CASS INFO	PO BOX 182764				COLUMBUS OH 43218-2764	OH	43218-2764	64	2011 E OQUIRRH RANCH PKWY/ OQM CHURCH	Water			Sewer	Penalty			Garbage Service	Garbage Fuel Charge		Storm Drain	Deployed Abatement	Deposit	Miscellaneous							129.18			45.75							16.50									0	179.55	179.55CR	15.00		191.43	206.43	08/08/2022	08/31/2022	07/01/2022	07/31/2022	12						00401						90141823						1						07/20/2022						2474						06/20/2022						2570						96						GAL							Past Due balances must be paid by 08/15/2022  in order to avoid a $50 fee and disconnection of water service.	If you would like to enroll in paperless billing or pay your bills online please visit www.eaglemountaincity.com	1858	09/13/2018	15.00	Single Graph				GAL To	30	7																		43218	0	JUL	JUN	MAY	APR	MAR	FEB	JAN	DEC	NOV	OCT	SEP	AUG		7	6	5	4	3	2	1	12	11	10	9	8	0	96	85	33	3	4	2	2	3	3	24	53	74	0	95	81	37	53	0	1	0	1	5	45	67	156	
007657	013	CHURCH OF JESUS CHRIST OF LATT	SARATOGA SPRINGS FM GROUP	SARATOGA SPRINGS FM GROUP CHURCH OF JESUS CHRIST OF LATT		PO BOX 182764				COLUMBUS OH 43218-2764	OH	43218-2764	64	8273 N SIMPSON SPRINGS RD/ SS CHURCH	Water			Sewer	Penalty			Garbage Service	Garbage Fuel Charge		Storm Drain	Deployed Abatement	Deposit	Miscellaneous							593.26			45.75							82.50									0	651.29	651.29CR	15.00		721.51	736.51	08/08/2022	08/31/2022	07/01/2022	07/31/2022	38						00005						35581061						2						07/20/2022						31264						06/20/2022						31788						524						Kilowatt							Past Due balances must be paid by 08/15/2022  in order to avoid a $50 fee and disconnection of water service.	If you would like to enroll in paperless billing or pay your bills online please visit www.eaglemountaincity.com	7657	11/02/2009	15.00	Single Graph				GAL To	30	7																		432182764	0	JUL	JUN	MAY	APR	MAR	FEB	JAN	DEC	NOV	OCT	SEP	AUG		7	6	5	4	3	2	1	12	11	10	9	8	0	524	446	228	71	3	2	3	3	2	86	290	375	0	446	183	121	6	1	1	1	2	87	413	363	793	
007657	019	CHURCH OF JESUS CHRIST OF LATT	SARATOGA SPRINGS FM GROUP	SARATOGA SPRINGS FM GROUP CHURCH OF JESUS CHRIST OF LATT		PO BOX 182764				COLUMBUS OH 43218-2764	OH	43218-2764	64	7775 N WOODHAVEN BLVD/ FW CHRCH	Water			Sewer	Penalty			Garbage Service	Garbage Fuel Charge		Storm Drain	Deployed Abatement	Deposit	Miscellaneous							265.72			45.75							16.50									0	291.73	291.73CR	15.00		327.97	342.97	08/08/2022	08/31/2022	07/01/2022	07/31/2022	53						01072						16690028						1						07/18/2022						4050						06/16/2022						4273						222						GAL							Past Due balances must be paid by 08/15/2022  in order to avoid a $50 fee and disconnection of water service.	If you would like to enroll in paperless billing or pay your bills online please visit www.eaglemountaincity.com	7657	06/26/2017	15.00	Single Graph				GAL To	30	7																		432182764	0	JUL	JUN	MAY	APR	MAR	FEB	JAN	DEC	NOV	OCT	SEP	AUG		7	6	5	4	3	2	1	12	11	10	9	8	0	222	174	41	3	2	1	2	2	2	54	137	133	0	200	114	170	4	0	0	0	0	17	87	140	399	
007657	016	CHURCH OF JESUS CHRIST OF LATT	SARATOGA SPRINGS FM GROUP	SARATOGA SPRINGS FM GROUP CHURCH OF JESUS CHRIST OF LATT		PO BOX 182764				COLUMBUS OH 43218-2764	OH	43218-2764	64	1375 E MID VALLEY RD/ CHRCH SEM	Water			Sewer	Penalty			Garbage Service	Garbage Fuel Charge		Storm Drain	Deployed Abatement	Deposit	Miscellaneous							46.34			45.75							49.50									0	134.79	134.79CR	15.00		141.59	156.59	08/08/2022	08/31/2022	07/01/2022	07/31/2022	18						00002						453473412						1						07/20/2022						1251						06/17/2022						1270						19						GAL							Past Due balances must be paid by 08/15/2022  in order to avoid a $50 fee and disconnection of water service.	If you would like to enroll in paperless billing or pay your bills online please visit www.eaglemountaincity.com	7657	12/11/2014	15.00	Single Graph				GAL To	30	7																		432182764	0	JUL	JUN	MAY	APR	MAR	FEB	JAN	DEC	NOV	OCT	SEP	AUG		7	6	5	4	3	2	1	12	11	10	9	8	0	19	13	6	0	0	0	0	0	0	4	8	11	0	19	17	5	0	0	0	0	0	0	8	13	38	
007657	017	CHURCH OF JESUS CHRIST OF LATT	SARATOGA SPRINGS FM GROUP	SARATOGA SPRINGS FM GROUP CHURCH OF JESUS CHRIST OF LATT		PO BOX 182764				COLUMBUS OH 43218-2764	OH	43218-2764	64	8285 N PORTERS CROSSING PKWY/ VPC CHURCH	Water			Sewer	Penalty			Garbage Service	Garbage Fuel Charge		Storm Drain	Deployed Abatement	Deposit	Miscellaneous							27.66			45.75							82.50									0	171.99	171.99CR	15.00		155.91	170.91	08/08/2022	08/31/2022	07/01/2022	07/31/2022	36						00001						91806061						1						07/20/2022						1196						06/20/2022						1198						2						GAL							Past Due balances must be paid by 08/15/2022  in order to avoid a $50 fee and disconnection of water service.	If you would like to enroll in paperless billing or pay your bills online please visit www.eaglemountaincity.com	7657	10/02/2015	15.00	Single Graph				GAL To	30	7																		432182764	0	JUL	JUN	MAY	APR	MAR	FEB	JAN	DEC	NOV	OCT	SEP	AUG		7	6	5	4	3	2	1	12	11	10	9	8	0	2	3	33	4	3	3	3	61	85	101	187	196	0	241	187	83	4	1	1	374	195	248	219	229	377	
007657	015	CHURCH OF JESUS CHRIST OF LATT	SARATOGA SPRINGS FM GROUP	SARATOGA SPRINGS FM GROUP CHURCH OF JESUS CHRIST OF LATT		PO BOX 182764				COLUMBUS OH 43218-2764	OH	43218-2764	64	4338 E INVERNESS LN/ SCM CHURCH	Water			Sewer	Penalty			Garbage Service	Garbage Fuel Charge		Storm Drain	Deployed Abatement	Deposit	Miscellaneous							525.32			45.75							49.50									0	646.37	646.37CR	15.00		620.57	635.57	08/08/2022	08/31/2022	07/01/2022	07/31/2022	61						00101						40515367						1						07/19/2022						20765						06/20/2022						21228						462						GAL							Past Due balances must be paid by 08/15/2022  in order to avoid a $50 fee and disconnection of water service.	If you would like to enroll in paperless billing or pay your bills online please visit www.eaglemountaincity.com	7657	12/28/2011	15.00	Single Graph				GAL To	30	7																		432182764	0	JUL	JUN	MAY	APR	MAR	FEB	JAN	DEC	NOV	OCT	SEP	AUG		7	6	5	4	3	2	1	12	11	10	9	8	0	462	472	52	22	18	1	1	8	12	97	189	195	0	264	258	128	9	0	8	1	0	28	128	199	557	
007657	018	CHURCH OF JESUS CHRIST OF LATT	SARATOGA SPRINGS FM GROUP	SARATOGA SPRINGS FM GROUP CHURCH OF JESUS CHRIST OF LATT		PO BOX 182764				COLUMBUS OH 43218-2764	OH	43218-2764	64	7250 N PORTERS CROSSING PKWY/ ER CHURCH	Water			Sewer	Penalty			Garbage Service	Garbage Fuel Charge		Storm Drain	Deployed Abatement	Deposit	Miscellaneous							25.50			45.75							8.25									0	93.32	93.32CR	15.00		79.50	94.50	08/08/2022	08/31/2022	07/01/2022	07/31/2022																			0												0												0						0													Past Due balances must be paid by 08/15/2022  in order to avoid a $50 fee and disconnection of water service.	If you would like to enroll in paperless billing or pay your bills online please visit www.eaglemountaincity.com	7657	10/30/2015	15.00	Single Graph				GAL To	30	7																		432182764	0	JUL	JUN	MAY	APR	MAR	FEB	JAN	DEC	NOV	OCT	SEP	AUG		7	6	5	4	3	2	1	12	11	10	9	8	0	0	0	353	0	0	0	0	0	234	0	0	110	0	564	0	232	50	2	2	3	1	5	310	115	361	
007657	014	CHURCH OF JESUS CHRIST OF LATT	SARATOGA SPRINGS FM GROUP	SARATOGA SPRINGS FM GROUP CHURCH OF JESUS CHRIST OF LATT		PO BOX 182764				COLUMBUS OH 43218-2764	OH	43218-2764	64	4588 N EAGLE MOUNTAIN BLVD/ AM CHURCH	Water			Sewer	Penalty			Garbage Service	Garbage Fuel Charge		Storm Drain	Deployed Abatement	Deposit	Miscellaneous							422.62			45.75							49.50									0	450.04	450.04CR	15.00		517.87	532.87	08/08/2022	08/31/2022	07/01/2022	07/31/2022	63						00001						35712970						1						07/15/2022						23958						06/20/2022						24326						367						GAL							Past Due balances must be paid by 08/15/2022  in order to avoid a $50 fee and disconnection of water service.	If you would like to enroll in paperless billing or pay your bills online please visit www.eaglemountaincity.com	7657	05/03/2010	15.00	Single Graph				GAL To	30	7																		432182764	0	JUL	JUN	MAY	APR	MAR	FEB	JAN	DEC	NOV	OCT	SEP	AUG		7	6	5	4	3	2	1	12	11	10	9	8	0	367	304	161	5	11	3	4	2	43	199	368	315	0	554	196	131	4	2	3	2	3	27	185	347	493	
123019	000	SARATOGA SPRINGS UT FM GROUP		 SARATOGA SPRINGS UT FM GROUP		PO BOX 182764				COLUMBUS OH 43218-2764	OH	43218-2764	64	1265 E AVIATOR AVE/ LDS SEM	Water			Sewer	Penalty			Garbage Service	Garbage Fuel Charge		Storm Drain	Deployed Abatement	Deposit	Miscellaneous							104.34			45.75							8.25									0	159.30	159.30CR	15.00		158.34	173.34	08/08/2022	08/31/2022	07/01/2022	07/31/2022	18						00008						90361045						1						07/20/2022						1340						06/20/2022						1413						73						GAL							Past Due balances must be paid by 08/15/2022  in order to avoid a $50 fee and disconnection of water service.	If you would like to enroll in paperless billing or pay your bills online please visit www.eaglemountaincity.com	123019	08/02/2019	15.00	Single Graph				GAL To	30	7																		432182764	0	JUL	JUN	MAY	APR	MAR	FEB	JAN	DEC	NOV	OCT	SEP	AUG		7	6	5	4	3	2	1	12	11	10	9	8	0	73	60	29	7	4	5	4	4	8	18	33	36	0	84	113	18	4	3	4	3	4	6	27	43	90	
123019	001	SARATOGA SPRINGS UT FM GROUP		 SARATOGA SPRINGS UT FM GROUP		PO BOX 182764				COLUMBUS OH 43218-2764	OH	43218-2764	64	5027 E CHAPEL DR/ SPR RDG CHURCH	Water			Sewer	Penalty			Garbage Service	Garbage Fuel Charge		Storm Drain	Deployed Abatement	Deposit	Miscellaneous							438.06			45.75							8.25									0	491.94	491.94CR	15.00		492.06	507.06	08/08/2022	08/31/2022	07/01/2022	07/31/2022	53						00001						86839882						1						07/18/2022						4083						06/17/2022						4465						382						GAL							Past Due balances must be paid by 08/15/2022  in order to avoid a $50 fee and disconnection of water service.	If you would like to enroll in paperless billing or pay your bills online please visit www.eaglemountaincity.com	123019	01/02/2020	15.00	Single Graph				GAL To	30	7																		432182764	0	JUL	JUN	MAY	APR	MAR	FEB	JAN	DEC	NOV	OCT	SEP	AUG		7	6	5	4	3	2	1	12	11	10	9	8	0	382	368	204	62	12	13	37	89	76	142	194	229	0	297	236	126	27	3	3	3	3	27	111	302	466	
107864	000	THE CHURCH OF JESUS CHRIST OF		 THE CHURCH OF JESUS CHRIST OF	c/o WWW CASSINFO COM	PO BOX 182764				COLUMBUS OH 43218-2764	OH	43218-2764	64	1934 E CEDAR TRAILS WAY/ CT CHURCH	Water			Sewer	Penalty			Garbage Service	Garbage Fuel Charge		Storm Drain	Deployed Abatement	Deposit	Miscellaneous							323.25			45.75							41.25									0	562.22	562.22CR	15.00		410.25	425.25	08/08/2022	08/31/2022	07/01/2022	07/31/2022	19						10000						5425202						1						07/15/2022						62404						06/15/2022						62680						275						GAL							Past Due balances must be paid by 08/15/2022  in order to avoid a $50 fee and disconnection of water service.	If you would like to enroll in paperless billing or pay your bills online please visit www.eaglemountaincity.com	107864	12/22/2009	15.00	Single Graph			1900010	GAL To	30	7																		43218	0	JUL	JUN	MAY	APR	MAR	FEB	JAN	DEC	NOV	OCT	SEP	AUG		7	6	5	4	3	2	1	12	11	10	9	8	0	275	416	196	9	4	6	1	2	3	190	341	320	0	306	498	114	2	1	0	1	0	43	317	580	1004	
107863	000	THE CHURCH OF JESUS CHRIST OF		 THE CHURCH OF JESUS CHRIST OF	c/o CASS INFO	PO BOX 182764				COLUMBUS OH 43218-2764	OH	43218-2764	64	7746 N SPARROWHAWK WAY/ CR CHURCH	Water			Sewer	Penalty			Garbage Service	Garbage Fuel Charge		Storm Drain	Deployed Abatement	Deposit	Miscellaneous							468.30			45.75							33.00									0	398.44	398.44CR	15.00		547.05	562.05	08/08/2022	08/31/2022	07/01/2022	07/31/2022	30						10000						35581047						1						07/18/2022						27125						06/16/2022						27535						410						GAL							Past Due balances must be paid by 08/15/2022  in order to avoid a $50 fee and disconnection of water service.	If you would like to enroll in paperless billing or pay your bills online please visit www.eaglemountaincity.com	107863	12/22/2009	15.00	Single Graph				GAL To	30	7																		432182764	0	JUL	JUN	MAY	APR	MAR	FEB	JAN	DEC	NOV	OCT	SEP	AUG		7	6	5	4	3	2	1	12	11	10	9	8	0	410	272	179	5	1	14	4	27	17	115	234	272	0	410	341	192	25	0	0	0	1	70	155	284	739	
107870	000	THE CHURCH OF JESUS CHRIST OF		 THE CHURCH OF JESUS CHRIST OF	c/o WWW CASSINFO COM	PO BOX 182764				COLUMBUS OH 43218-2764	OH	43218-2764	64	3793 E ROSE HEARTY LN/ SHD CHURCH	Water			Sewer	Penalty			Garbage Service	Garbage Fuel Charge		Storm Drain	Deployed Abatement	Deposit	Miscellaneous							25.50			45.75							41.25									0	841.86	841.86CR	15.00		112.50	127.50	08/08/2022	08/31/2022	07/01/2022	07/31/2022																			0												0												0						0													Past Due balances must be paid by 08/15/2022  in order to avoid a $50 fee and disconnection of water service.	If you would like to enroll in paperless billing or pay your bills online please visit www.eaglemountaincity.com	107870	12/22/2009	15.00	Single Graph				GAL To	30	7																		432182764	0	JUL	JUN	MAY	APR	MAR	FEB	JAN	DEC	NOV	OCT	SEP	AUG		7	6	5	4	3	2	1	12	11	10	9	8	0	0	653	0	42	0	3	1	2	1	371	0	136	0	423	353	92	12	0	0	1	0	71	435	545	702	
107869	000	THE CHURCH OF JESUS CHRIST OF		 THE CHURCH OF JESUS CHRIST OF	c/o WWW CASSINFO COM	PO BOX 182764				COLUMBUS OH 43218-2764	OH	43218-2764	64	7241 N UTE DR/ FMS 31 CHURCH	Water			Sewer	Penalty			Garbage Service	Garbage Fuel Charge		Storm Drain	Deployed Abatement	Deposit	Miscellaneous							25.50			45.75							33.00									0	460.53	460.53CR	15.00		104.25	119.25	08/08/2022	08/31/2022	07/01/2022	07/31/2022																			0												0												0						0													Past Due balances must be paid by 08/15/2022  in order to avoid a $50 fee and disconnection of water service.	If you would like to enroll in paperless billing or pay your bills online please visit www.eaglemountaincity.com	107869	12/22/2009	15.00	Single Graph				GAL To	30	7																		432182764	0	JUL	JUN	MAY	APR	MAR	FEB	JAN	DEC	NOV	OCT	SEP	AUG		7	6	5	4	3	2	1	12	11	10	9	8	0	0	316	0	365	0	0	0	0	0	0	0	0	0	0	0	0	0	0	0	0	0	16	187	200	125	
107867	000	THE CHURCH OF JESUS CHRIST OF		 THE CHURCH OF JESUS CHRIST OF	c/o WWW CASSINFO COM	PO BOX 182764				COLUMBUS OH 43218-2764	OH	43218-2764	64	7944 N SMITH RANCH RD/ SMR CHURCH	Water			Sewer	Penalty			Garbage Service	Garbage Fuel Charge		Storm Drain	Deployed Abatement	Deposit	Miscellaneous							25.50			45.75							41.25									0	584.46	584.46CR	15.00		112.50	127.50	08/08/2022	08/31/2022	07/01/2022	07/31/2022																			0												0												0						0													Past Due balances must be paid by 08/15/2022  in order to avoid a $50 fee and disconnection of water service.	If you would like to enroll in paperless billing or pay your bills online please visit www.eaglemountaincity.com	107867	12/22/2009	15.00	Single Graph				GAL To	30	7																		432182764	0	JUL	JUN	MAY	APR	MAR	FEB	JAN	DEC	NOV	OCT	SEP	AUG		7	6	5	4	3	2	1	12	11	10	9	8	0	0	437	0	10	0	0	0	4	0	36	169	151	0	279	262	155	2	0	1	0	1	13	113	240	614	
107862	000	THE CHURCH OF JESUS CHRIST OF		 THE CHURCH OF JESUS CHRIST OF	c/o WWW CASSINFO COM	PO BOX 182764				COLUMBUS OH 43218-2764	OH	43218-2764	64	2977 E SADDLE ROCK RD/ RBV CHURCH	Water			Sewer	Penalty			Garbage Service	Garbage Fuel Charge		Storm Drain	Deployed Abatement	Deposit	Miscellaneous							713.64			45.75							41.25									0	1988.88	1988.88CR	15.00		800.64	815.64	08/08/2022	08/31/2022	07/01/2022	07/31/2022	28						00005						90974152						1						07/20/2022						8847						06/20/2022						9477						630						GAL							Past Due balances must be paid by 08/15/2022  in order to avoid a $50 fee and disconnection of water service.	If you would like to enroll in paperless billing or pay your bills online please visit www.eaglemountaincity.com	107862	12/22/2009	15.00	Single Graph			2600880	GAL To	30	7																		432182764	0	JUL	JUN	MAY	APR	MAR	FEB	JAN	DEC	NOV	OCT	SEP	AUG		7	6	5	4	3	2	1	12	11	10	9	8	0	630	1621	333	123	32	35	17	24	16	425	1287	485	0	1377	1658	506	15	2	15	16	4	155	563	901	1478	
107872	000	THE CHURCH OF JESUS CHRIST OF		 THE CHURCH OF JESUS CHRIST OF	c/o WWW CASSINFO COM	PO BOX 182764				COLUMBUS OH 43218-2764	OH	43218-2764	64	4561 N BUCKBOARD ST/ PA CHURCH	Water			Sewer	Penalty			Garbage Service	Garbage Fuel Charge		Storm Drain	Deployed Abatement	Deposit	Miscellaneous							289.50			45.75							33.00									0	198.12	198.12CR	15.00		368.25	383.25	08/08/2022	08/31/2022	07/01/2022	07/31/2022	17						00000						34040943						3						07/15/2022						25212						06/16/2022						25457						244						Decatherm							Past Due balances must be paid by 08/15/2022  in order to avoid a $50 fee and disconnection of water service.	If you would like to enroll in paperless billing or pay your bills online please visit www.eaglemountaincity.com	107872	12/22/2009	15.00	Single Graph				GAL To	30	7																		432182764	0	JUL	JUN	MAY	APR	MAR	FEB	JAN	DEC	NOV	OCT	SEP	AUG		7	6	5	4	3	2	1	12	11	10	9	8	0	244	86	218	8	44	36	65	38	24	106	125	146	0	287	403	68	34	30	27	24	15	77	349	379	434	
107871	000	THE CHURCH OF JESUS CHRIST OF		 THE CHURCH OF JESUS CHRIST OF	c/o WWW CASSINFO COM	PO BOX 182764				COLUMBUS OH 43218-2764	OH	43218-2764	64	4506 E PONY EXPRESS PKWY/ SL CHURCH	Water			Sewer	Penalty			Garbage Service	Garbage Fuel Charge		Storm Drain	Deployed Abatement	Deposit	Miscellaneous							25.50			45.75							90.75									0	177.00	177.00CR	15.00		162.00	177.00	08/08/2022	08/31/2022	07/01/2022	07/31/2022																			0												0												0						0													Past Due balances must be paid by 08/15/2022  in order to avoid a $50 fee and disconnection of water service.	If you would like to enroll in paperless billing or pay your bills online please visit www.eaglemountaincity.com	107871	12/22/2009	15.00	Single Graph				GAL To	30	7																		432182764	0	JUL	JUN	MAY	APR	MAR	FEB	JAN	DEC	NOV	OCT	SEP	AUG		7	6	5	4	3	2	1	12	11	10	9	8	0	0	0	0	125	0	1	5	9	23	688	0	455	0	1994	0	0	0	0	0	5	5	105	561	845	931	
107873	000	THE CHURCH OF JESUS CHRIST OF		 THE CHURCH OF JESUS CHRIST OF	c/o WWW CASSINFO COM	PO BOX 182764				COLUMBUS OH 43218-2764	OH	43218-2764	64	1953 E LONE TREE PKWY/ LT CHURCH	Water			Sewer	Penalty			Garbage Service	Garbage Fuel Charge		Storm Drain	Deployed Abatement	Deposit	Miscellaneous							25.50			45.75							41.25									0	636.18	636.18CR	15.00		112.50	127.50	08/08/2022	08/31/2022	07/01/2022	07/31/2022																			0												0												0						0													Past Due balances must be paid by 08/15/2022  in order to avoid a $50 fee and disconnection of water service.	If you would like to enroll in paperless billing or pay your bills online please visit www.eaglemountaincity.com	107873	12/22/2009	15.00	Single Graph				GAL To	30	7																		432182764	0	JUL	JUN	MAY	APR	MAR	FEB	JAN	DEC	NOV	OCT	SEP	AUG		7	6	5	4	3	2	1	12	11	10	9	8	0	0	471	0	58	0	9	3	6	1	62	181	117	0	225	307	197	0	0	0	3	3	94	275	322	222	
107865	000	THE CHURCH OF JESUS CHRIST OF		 THE CHURCH OF JESUS CHRIST OF	c/o WWW CASSINFO COM	PO BOX 182764				COLUMBUS OH 43218-2764	OH	43218-2764	64	1330 E IRA HODGES SCENIC PKWY/ OT CHURCH	Water			Sewer	Penalty			Garbage Service	Garbage Fuel Charge		Storm Drain	Deployed Abatement	Deposit	Miscellaneous							865.56			45.75							107.25									0	1613.44	1613.44CR	15.00		1018.56	1033.56	08/08/2022	08/31/2022	07/01/2022	07/31/2022	24	24					10000	10000					48550990	18044522IRR					1	1					07/15/2022	07/20/2022					1263	21614					06/16/2022	06/20/2022					1263	22368					0	754					GAL	GAL						Past Due balances must be paid by 08/15/2022  in order to avoid a $50 fee and disconnection of water service.	If you would like to enroll in paperless billing or pay your bills online please visit www.eaglemountaincity.com	107865	12/22/2009	15.00	Single Graph				GAL To	30	7																		432182764	0	JUL	JUN	MAY	APR	MAR	FEB	JAN	DEC	NOV	OCT	SEP	AUG		7	6	5	4	3	2	1	12	11	10	9	8	0	754	713	374	7	6	20	5	2	37	179	408	619	0	683	757	602	139	4	4	2	2	421	407	733	1287	
107866	000	THE CHURCH OF JESUS CHRIST OF		 THE CHURCH OF JESUS CHRIST OF	c/o WWW CASSINFO COM	PO BOX 182764				COLUMBUS OH 43218-2764	OH	43218-2764	64	4105 E SMITH RANCH RD/ CHURCH	Water			Sewer	Penalty			Garbage Service	Garbage Fuel Charge		Storm Drain	Deployed Abatement	Deposit	Miscellaneous							286.54			45.75							49.50									0	539.68	539.68CR	15.00		381.79	396.79	08/08/2022	08/31/2022	07/01/2022	07/31/2022	36						10000						35310848						1						07/18/2022						19866						06/17/2022						20107						241						GAL							Past Due balances must be paid by 08/15/2022  in order to avoid a $50 fee and disconnection of water service.	If you would like to enroll in paperless billing or pay your bills online please visit www.eaglemountaincity.com	107866	12/22/2009	15.00	Single Graph				GAL To	30	7																		432182764	0	JUL	JUN	MAY	APR	MAR	FEB	JAN	DEC	NOV	OCT	SEP	AUG		7	6	5	4	3	2	1	12	11	10	9	8	0	241	387	210	0	0	0	0	0	0	151	369	363	0	405	970	77	3	0	10	0	0	421	295	590	624	
123564	001	TYSON FOODS		 TYSON FOODS		PO BOX 5651				BISMARCK ND 58506-5651	ND	58506-5651	51	1958 W 4000 N/ TYSON LNDSCP	Water			Sewer	Penalty			Garbage Service	Garbage Fuel Charge		Storm Drain	Deployed Abatement	Deposit	Miscellaneous							27.66																			0	28.74	28.74CR			27.66	27.66	08/08/2022	08/31/2022	07/01/2022	07/31/2022	15						LNDSP						88920398						1						07/20/2022						25						06/20/2022						27						2						GAL							Past Due balances must be paid by 08/15/2022  in order to avoid a $50 fee and disconnection of water service.	If you would like to enroll in paperless billing or pay your bills online please visit www.eaglemountaincity.com	123564	08/18/2020		Single Graph				GAL To	30	7																		58506	0	JUL	JUN	MAY	APR	MAR	FEB	JAN	DEC	NOV	OCT	SEP	AUG		7	6	5	4	3	2	1	12	11	10	9	8	0	2	3	1	2	2	2	3	2	1	1	3	1	0	1	1	0	1	1	0	0	0	0	0	0	0	
123564	000	TYSON FOODS		 TYSON FOODS		PO BOX 5651				BISMARCK ND 58506-5651	ND	58506-5651	51	3841 N TYSON PKWY/ TYSON LNDSCP	Water			Sewer	Penalty			Garbage Service	Garbage Fuel Charge		Storm Drain	Deployed Abatement	Deposit	Miscellaneous							25.50																			0	25.50	25.50CR			25.50	25.50	08/08/2022	08/31/2022	07/01/2022	07/31/2022																			0												0												0						0													Past Due balances must be paid by 08/15/2022  in order to avoid a $50 fee and disconnection of water service.	If you would like to enroll in paperless billing or pay your bills online please visit www.eaglemountaincity.com	123564	08/04/2020		Single Graph				GAL To	30	7																		58506	0	JUL	JUN	MAY	APR	MAR	FEB	JAN	DEC	NOV	OCT	SEP	AUG		7	6	5	4	3	2	1	12	11	10	9	8	0	0	0	0	0	0	0	0	0	6419	0	0	0	0	0	0	0	411	0	0	0	0	7	731	618	218	
123564	002	TYSON FOODS		 TYSON FOODS		PO BOX 5651				BISMARCK ND 58506-5651	ND	58506-5651	51	3817 N TYSON PKWY/ WH TYSON	Water			Sewer	Penalty			Garbage Service	Garbage Fuel Charge		Storm Drain	Deployed Abatement	Deposit	Miscellaneous							3,931.50			37,475.10							8.25									0	41143.41	0.00CR	15.00		41414.85	82573.26	08/08/2022	08/31/2022	07/01/2022	07/31/2022	77	77					67003	67003					91037542	87561207					1	1					07/28/2022	07/27/2022					25087	168					06/29/2022	06/29/2022					28237	168					3150						GAL	GAL						Past Due balances must be paid by 08/15/2022  in order to avoid a $50 fee and disconnection of water service.	If you would like to enroll in paperless billing or pay your bills online please visit www.eaglemountaincity.com	123564	07/02/2021	41158.41	Single Graph				GAL To	30	7																		58506	0	JUL	JUN	MAY	APR	MAR	FEB	JAN	DEC	NOV	OCT	SEP	AUG		7	6	5	4	3	2	1	12	11	10	9	8	0	3150	2919	2034	2933	15751	164	258	154	172	145	682	0	0	0	0	0	0	0	0	0	0	0	0	0	0	
129211	001	OSBORNE	AMY	AMY OSBORNE		1309 COFFEEN AVE # 2864				SHERIDAN WY 82801-5777	WY	82801-5777	99	7567 N COTTAGE LN/ SLM 1565	Water			Sewer	Penalty			Garbage Service	Garbage Fuel Charge		Storm Drain	Deployed Abatement	Deposit	Miscellaneous							30.90			45.75				14.50			8.25									0	92.28	100.00CR			99.40	91.68	08/08/2022	08/31/2022	07/01/2022	07/31/2022	53						01565						84362048						1						07/19/2022						151						06/20/2022						156						5						GAL							Past Due balances must be paid by 08/15/2022  in order to avoid a $50 fee and disconnection of water service.	If you would like to enroll in paperless billing or pay your bills online please visit www.eaglemountaincity.com	129211	04/01/2022		Single Graph				GAL To	31	7																		82801	0	JUL	JUN	MAY	APR	MAR	FEB	JAN	DEC	NOV	OCT	SEP	AUG		7	6	5	4	3	2	1	12	11	10	9	8	0	5	4	4	0	0	0	0	0	0	0	0	0	0	0	0	0	0	0	0	0	0	0	0	0	0	
129211	000	OSBORNE	AMY	AMY OSBORNE		1309 COFFEEN AVE # 2864				SHERIDAN WY 82801-5777	WY	82801-5777	99	7393 N HUTCH LN/ SLM 1432	Water			Sewer	Penalty			Garbage Service	Garbage Fuel Charge		Storm Drain	Deployed Abatement	Deposit	Miscellaneous							36.30			45.75				14.50			8.25									0	219.20	219.20CR			104.80	104.80	08/08/2022	08/31/2022	07/01/2022	07/31/2022	53						01432						81302466						1						07/18/2022						303						06/16/2022						313						10						GAL							Past Due balances must be paid by 08/15/2022  in order to avoid a $50 fee and disconnection of water service.	If you would like to enroll in paperless billing or pay your bills online please visit www.eaglemountaincity.com	129211	12/22/2021		Single Graph				GAL To	31	7																		82801	0	JUL	JUN	MAY	APR	MAR	FEB	JAN	DEC	NOV	OCT	SEP	AUG		7	6	5	4	3	2	1	12	11	10	9	8	0	10	5	10	11	7	6	1	0	0	0	0	0	0	0	0	0	0	0	0	0	0	0	0	0	0	
123705	003	AINSLIE	JUDY	JUDY AINSLIE		PO BOX 1063				THAYNE WY 83127-1063	WY	83127-1063	63	1761 E DOWNWATER ST/ SW 425	Water			Sewer	Penalty			Garbage Service	Garbage Fuel Charge		Storm Drain	Deployed Abatement	Deposit	Miscellaneous							53.58			45.75				14.50			8.25									0	108.92	0.00CR			122.08	231.00	08/08/2022	08/31/2022	07/01/2022	07/31/2022	62						00425						80907732						1						07/15/2022						600						06/15/2022						626						26						GAL							Past Due balances must be paid by 08/15/2022  in order to avoid a $50 fee and disconnection of water service.	If you would like to enroll in paperless billing or pay your bills online please visit www.eaglemountaincity.com	123705	05/31/2022	108.92	Single Graph				GAL To	31	7																		84065	0	JUL	JUN	MAY	APR	MAR	FEB	JAN	DEC	NOV	OCT	SEP	AUG		7	6	5	4	3	2	1	12	11	10	9	8	0	26	11	0	0	0	0	0	0	0	0	0	0	0	0	0	0	0	0	0	0	0	0	0	0	0	
123705	002	AINSLIE	JUDY	JUDY AINSLIE		PO BOX 1063				THAYNE WY 83127-1063	WY	83127-1063	63	1517 E FALCON LN/ EPK 124	Water			Sewer	Penalty			Garbage Service	Garbage Fuel Charge		Storm Drain	Deployed Abatement	Deposit	Miscellaneous							110.52			45.75				15.75			8.25									0	168.87	168.87CR			180.27	180.27	08/08/2022	08/31/2022	07/01/2022	07/31/2022	18						00124						40725631						1						07/20/2022						6947						06/17/2022						7025						78						GAL							Past Due balances must be paid by 08/15/2022  in order to avoid a $50 fee and disconnection of water service.	If you would like to enroll in paperless billing or pay your bills online please visit www.eaglemountaincity.com	123705	11/01/2021		Single Graph				GAL To	31	7																		84065	0	JUL	JUN	MAY	APR	MAR	FEB	JAN	DEC	NOV	OCT	SEP	AUG		7	6	5	4	3	2	1	12	11	10	9	8	0	78	68	28	6	5	5	5	5	2	0	0	0	0	0	0	0	0	0	0	0	0	0	0	0	0	
106649	001	DIRECT COMMUNICATIONS		 DIRECT COMMUNICATIONS		PO BOX 324				ROCKLAND ID 83271-0324	ID	83271-0324	24	3726 E CAMPUS DR/ COMMON	Water			Sewer	Penalty			Garbage Service	Garbage Fuel Charge		Storm Drain	Deployed Abatement	Deposit	Miscellaneous							149.48			45.75							16.50									0	176.85	176.85CR			211.73	211.73	08/08/2022	08/31/2022	07/01/2022	07/31/2022	31						00001						36625473						1						07/20/2022						3901						06/20/2022						4016						114						GAL							Past Due balances must be paid by 08/15/2022  in order to avoid a $50 fee and disconnection of water service.	If you would like to enroll in paperless billing or pay your bills online please visit www.eaglemountaincity.com	106649	09/22/2010		Single Graph				GAL To	30	7																		83271	0	JUL	JUN	MAY	APR	MAR	FEB	JAN	DEC	NOV	OCT	SEP	AUG		7	6	5	4	3	2	1	12	11	10	9	8	0	114	82	24	22	9	14	5	2	3	114	58	36	0	48	46	21	9	7	10	14	12	11	38	36	46	
106649	010	DIRECT COMMUNICATIONS		 DIRECT COMMUNICATIONS		PO BOX 324				ROCKLAND ID 83271-0324	ID	83271-0324	24	8638 ATHERTON LN/ DIR COM	Water			Sewer	Penalty			Garbage Service	Garbage Fuel Charge		Storm Drain	Deployed Abatement	Deposit	Miscellaneous							37.38										8.25									0	51.03	51.03CR			45.63	45.63	08/08/2022	08/31/2022	07/01/2022	07/31/2022	61						00000						35581053						1						07/19/2022						2614						06/17/2022						2625						11						GAL							Past Due balances must be paid by 08/15/2022  in order to avoid a $50 fee and disconnection of water service.	If you would like to enroll in paperless billing or pay your bills online please visit www.eaglemountaincity.com	106649	11/03/2011		Single Graph				GAL To	30	7																		83271	0	JUL	JUN	MAY	APR	MAR	FEB	JAN	DEC	NOV	OCT	SEP	AUG		7	6	5	4	3	2	1	12	11	10	9	8	0	11	16	11	16	21	14	10	9	10	11	60	0	0	44	25	17	1	1	1	1	1	2	2	2	4	
106649	011	DIRECT COMMUNICATIONS		 DIRECT COMMUNICATIONS		PO BOX 324				ROCKLAND ID 83271-0324	ID	83271-0324	24	4131 E MEDINAH CT/ SPV 57	Water			Sewer	Penalty			Garbage Service	Garbage Fuel Charge		Storm Drain	Deployed Abatement	Deposit	Miscellaneous							25.50			45.75				9.50			8.25									0	89.00	89.00CR			89.00	89.00	08/08/2022	08/31/2022	07/01/2022	07/31/2022	02						00057						77339743						1						07/15/2022						112						06/20/2022						112						0						GAL							Past Due balances must be paid by 08/15/2022  in order to avoid a $50 fee and disconnection of water service.	If you would like to enroll in paperless billing or pay your bills online please visit www.eaglemountaincity.com	106649	01/25/2017		Single Graph				GAL To	31	7																		83271	0	JUL	JUN	MAY	APR	MAR	FEB	JAN	DEC	NOV	OCT	SEP	AUG		7	6	5	4	3	2	1	12	11	10	9	8	0	0	0	0	0	0	1	1	0	0	0	6	0	0	0	0	0	0	1	0	0	0	3	0	0	0	
125709	002	PHI		 PHI		PO BOX 733				AMERICAN FORK UT 84003-0701	UT	84003-0701	33	1844 E COSMOS DR/ EPT C-2	Water			Sewer	Penalty			Garbage Service	Garbage Fuel Charge		Storm Drain	Deployed Abatement	Deposit	Miscellaneous							25.50			45.75							8.25									0	82.07	82.07CR			79.50	79.50	08/08/2022	08/31/2022	07/01/2022	07/31/2022	27						000C2						76075593						1						07/15/2022						368						06/15/2022						368						0						GAL							Past Due balances must be paid by 08/15/2022  in order to avoid a $50 fee and disconnection of water service.	If you would like to enroll in paperless billing or pay your bills online please visit www.eaglemountaincity.com	125709	05/31/2022		Single Graph				GAL To	31	7																		84003	0	JUL	JUN	MAY	APR	MAR	FEB	JAN	DEC	NOV	OCT	SEP	AUG		7	6	5	4	3	2	1	12	11	10	9	8	0	0	0	0	0	0	0	0	0	0	0	0	0	0	0	0	0	0	0	0	0	0	0	0	0	0	
125709	003	PHI		 PHI		PO BOX 733				AMERICAN FORK UT 84003-0701	UT	84003-0701	33	1844 E COSMOS DR/ EPT C-5	Water			Sewer	Penalty			Garbage Service	Garbage Fuel Charge		Storm Drain	Deployed Abatement	Deposit	Miscellaneous							27.66			45.75							8.25									0	99.38	99.38CR			81.66	81.66	08/08/2022	08/31/2022	07/01/2022	07/31/2022	27						000C5						760755965						1						07/15/2022						219						06/20/2022						221						2						GAL							Past Due balances must be paid by 08/15/2022  in order to avoid a $50 fee and disconnection of water service.	If you would like to enroll in paperless billing or pay your bills online please visit www.eaglemountaincity.com	125709	06/02/2022		Single Graph				GAL To	31	7																		84003	0	JUL	JUN	MAY	APR	MAR	FEB	JAN	DEC	NOV	OCT	SEP	AUG		7	6	5	4	3	2	1	12	11	10	9	8	0	2	0	0	0	0	0	0	0	0	0	0	0	0	0	0	0	0	0	0	0	0	0	0	0	0	
122244	005	PINE GROVE PROPERTIES		 PINE GROVE PROPERTIES		PO BOX 733				AMERICAN FORK UT 84003-0701	UT	84003-0701	33	3618 E JACOBS WAY/ JW 8	Water			Sewer	Penalty			Garbage Service	Garbage Fuel Charge		Storm Drain	Deployed Abatement	Deposit	Miscellaneous							44.94			45.75				14.50			8.25									0	105.88	105.88CR			113.44	113.44	08/08/2022	08/31/2022	07/01/2022	07/31/2022	39						00008						76123477						1						07/18/2022						1816						06/17/2022						1834						18						GAL							Past Due balances must be paid by 08/15/2022  in order to avoid a $50 fee and disconnection of water service.	If you would like to enroll in paperless billing or pay your bills online please visit www.eaglemountaincity.com	122244	01/06/2021		Single Graph				GAL To	31	7																		84003	0	JUL	JUN	MAY	APR	MAR	FEB	JAN	DEC	NOV	OCT	SEP	AUG		7	6	5	4	3	2	1	12	11	10	9	8	0	18	11	6	2	5	5	6	7	6	8	43	107	0	110	7	37	8	8	9	1	0	0	0	0	0	
118681	054	PINE GROVE PROPERTIES		 PINE GROVE PROPERTIES		PO BOX 733				AMERICAN FORK UT 84003-0701	UT	84003-0701	33	1808 E COSMOS DR/ EPT A-4	Water			Sewer	Penalty			Garbage Service	Garbage Fuel Charge		Storm Drain	Deployed Abatement	Deposit	Miscellaneous																										0	50.66	0.00CR				50.66	08/08/2022	08/31/2022	07/01/2022	07/31/2022																			0												0												0						0													Past Due balances must be paid by 08/15/2022  in order to avoid a $50 fee and disconnection of water service.	If you would like to enroll in paperless billing or pay your bills online please visit www.eaglemountaincity.com	118681	12/04/2019	50.66	Single Graph				GAL To	31	7																		84003	0	JUL	JUN	MAY	APR	MAR	FEB	JAN	DEC	NOV	OCT	SEP	AUG		7	6	5	4	3	2	1	12	11	10	9	8	0	0	0	0	0	0	0	0	0	0	0	0	0	0	0	0	0	0	0	0	0	0	0	0	0	0	
118681	043	PINE GROVE PROPERTIES		 PINE GROVE PROPERTIES		PO BOX 733				AMERICAN FORK UT 84003-0701	UT	84003-0701	33	1808 E COSMOS DR/ EPT A-7	Water			Sewer	Penalty			Garbage Service	Garbage Fuel Charge		Storm Drain	Deployed Abatement	Deposit	Miscellaneous																										0	433.62	124.96CR				308.66	08/08/2022	08/31/2022	07/01/2022	07/31/2022																			0												0												0						0													Past Due balances must be paid by 08/15/2022  in order to avoid a $50 fee and disconnection of water service.	If you would like to enroll in paperless billing or pay your bills online please visit www.eaglemountaincity.com	118681	04/12/2019	308.66	Single Graph				GAL To	31	7																		84003	0	JUL	JUN	MAY	APR	MAR	FEB	JAN	DEC	NOV	OCT	SEP	AUG		7	6	5	4	3	2	1	12	11	10	9	8	0	0	0	0	0	0	0	0	0	0	0	0	0	0	0	0	0	0	0	0	0	0	0	0	0	0	
007548	004	PINE GROVE PROPERTIES		 PINE GROVE PROPERTIES		PO BOX 733				AMERICAN FORK UT 84003-0701	UT	84003-0701	33	2064 E BLOSSOM ST/ EPT 309	Water			Sewer	Penalty			Garbage Service	Garbage Fuel Charge		Storm Drain	Deployed Abatement	Deposit	Miscellaneous							41.62			45.75				9.50			8.25									0	231.33	150.00CR	65.00		105.12	251.45	08/08/2022	08/31/2022	07/01/2022	07/31/2022	27						00309						18425978						1						07/15/2022						1461						06/15/2022						1476						14						GAL							Past Due balances must be paid by 08/15/2022  in order to avoid a $50 fee and disconnection of water service.	If you would like to enroll in paperless billing or pay your bills online please visit www.eaglemountaincity.com	7548	08/10/2021	146.33	Single Graph				GAL To	31	7																		84003	0	JUL	JUN	MAY	APR	MAR	FEB	JAN	DEC	NOV	OCT	SEP	AUG		7	6	5	4	3	2	1	12	11	10	9	8	0	14	11	2	1	1	2	3	4	21	1	10	0	0	0	0	0	0	0	0	0	0	0	0	0	0	
008386	003	ALPINE SCHOOL DISTRICT*		 ALPINE SCHOOL DISTRICT*		575 N 100 E				AMERICAN FORK UT 84003-1758	UT	84003-1758	75	7447 N HIDDEN VALLEY PKWY/ SCHOOL	Water			Sewer	Penalty			Garbage Service	Garbage Fuel Charge		Storm Drain	Deployed Abatement	Deposit	Miscellaneous							701.12			45.75							132.00									0	863.28	863.28CR			878.87	878.87	08/08/2022	08/31/2022	07/01/2022	07/31/2022	56	56					00001	00001					08033783	08033779					1	1					07/18/2022	07/18/2022					59824	373					06/16/2022	06/16/2022					60267	549					443	175					GAL	GAL						Past Due balances must be paid by 08/15/2022  in order to avoid a $50 fee and disconnection of water service.	If you would like to enroll in paperless billing or pay your bills online please visit www.eaglemountaincity.com	8386	10/30/2008		Single Graph				GAL To	30	7																		84003	0	JUL	JUN	MAY	APR	MAR	FEB	JAN	DEC	NOV	OCT	SEP	AUG		7	6	5	4	3	2	1	12	11	10	9	8	0	619	605	347	151	45	46	25	42	58	390	704	747	0	640	698	289	46	45	54	42	38	207	1011	1426	819	
008386	008	ALPINE SCHOOL DISTRICT*		 ALPINE SCHOOL DISTRICT*		575 N 100 E				AMERICAN FORK UT 84003-1758	UT	84003-1758	75	484 W PONY EXPRESS PKWY	Water			Sewer	Penalty			Garbage Service	Garbage Fuel Charge		Storm Drain	Deployed Abatement	Deposit	Miscellaneous										538.02																0	538.02	538.02CR			538.02	538.02	08/08/2022	08/31/2022	07/01/2022	07/31/2022																			0												0												0						0													Past Due balances must be paid by 08/15/2022  in order to avoid a $50 fee and disconnection of water service.	If you would like to enroll in paperless billing or pay your bills online please visit www.eaglemountaincity.com	8386	09/01/2010		Single Graph					30	7																		84003	0														0	0	0	0	0	0	0	0	0	0	0	0	0	0	0	0	0	0	0	0	0	0	0	0	0	0	0	0	0	0	0	0	0	0	0	0	0	0	
008386	000	ALPINE SCHOOL DISTRICT*		 ALPINE SCHOOL DISTRICT*		575 N 100 E				AMERICAN FORK UT 84003-1758	UT	84003-1758	75	4475 N HERITAGE DR/ SCHOOL	Water			Sewer	Penalty			Garbage Service	Garbage Fuel Charge		Storm Drain	Deployed Abatement	Deposit	Miscellaneous							1,017.91			45.75							132.00									0	754.13	754.13CR			1195.66	1195.66	08/08/2022	08/31/2022	07/01/2022	07/31/2022	17	17					10000	10000					09149164	09149161					1	1					07/15/2022	07/15/2022					24555	9423					06/15/2022	06/15/2022					25263	9605					708	182					GAL	GAL						Past Due balances must be paid by 08/15/2022  in order to avoid a $50 fee and disconnection of water service.	If you would like to enroll in paperless billing or pay your bills online please visit www.eaglemountaincity.com	8386	10/01/2003		Single Graph				GAL To	30	7																		84003	0	JUL	JUN	MAY	APR	MAR	FEB	JAN	DEC	NOV	OCT	SEP	AUG		7	6	5	4	3	2	1	12	11	10	9	8	0	890	509	356	13	3	4	2	3	5	174	335	268	0	567	235	112	4	2	3	2	2	2	420	414	961	
008386	007	ALPINE SCHOOL DISTRICT*		 ALPINE SCHOOL DISTRICT*		575 N 100 E				AMERICAN FORK UT 84003-1758	UT	84003-1758	75	9358 N SUNSET DR/ SCHOOL	Water			Sewer	Penalty			Garbage Service	Garbage Fuel Charge		Storm Drain	Deployed Abatement	Deposit	Miscellaneous							1,439.94			45.75							132.00									0	1689.92	1689.92CR			1617.69	1617.69	08/08/2022	08/31/2022	07/01/2022	07/31/2022	03	03					10000	10000					13483488	13311808					1	1					07/20/2022	07/19/2022					6621	8222					06/20/2022	06/20/2022					7487	8601					866	378					GAL	GAL						Past Due balances must be paid by 08/15/2022  in order to avoid a $50 fee and disconnection of water service.	If you would like to enroll in paperless billing or pay your bills online please visit www.eaglemountaincity.com	8386	09/01/2014		Single Graph				GAL To	30	7																		84003	0	JUL	JUN	MAY	APR	MAR	FEB	JAN	DEC	NOV	OCT	SEP	AUG		7	6	5	4	3	2	1	12	11	10	9	8	0	1245	1306	779	161	48	48	32	40	56	697	1008	1184	0	959	1390	637	628	48	58	40	42	48	54	242	222	
008386	002	ALPINE SCHOOL DISTRICT*		 ALPINE SCHOOL DISTRICT*		575 N 100 E				AMERICAN FORK UT 84003-1758	UT	84003-1758	75	3985 E SMITH RANCH RD/ SCHOOL	Water			Sewer	Penalty			Garbage Service	Garbage Fuel Charge		Storm Drain	Deployed Abatement	Deposit	Miscellaneous							163.45			45.75							132.00									0	481.49	481.49CR			341.20	341.20	08/08/2022	08/31/2022	07/01/2022	07/31/2022	37	37	37				40000	40000	40000				09265147	40510957	09265143				1	1	1				07/19/2022	07/19/2022	07/19/2022				8028	351	5537				06/20/2022	06/20/2022	06/20/2022				8156	351	5537				127						GAL	GAL	GAL					Past Due balances must be paid by 08/15/2022  in order to avoid a $50 fee and disconnection of water service.	If you would like to enroll in paperless billing or pay your bills online please visit www.eaglemountaincity.com	8386	07/01/2002		Single Graph				GAL To	30	7																		84003	0	JUL	JUN	MAY	APR	MAR	FEB	JAN	DEC	NOV	OCT	SEP	AUG		7	6	5	4	3	2	1	12	11	10	9	8	0	127	257	109	37	17	3	1	2	3	98	88	129	0	127	155	79	56	43	55	37	42	39	1086	1408	1920	
008386	010	ALPINE SCHOOL DISTRICT*		 ALPINE SCHOOL DISTRICT*		575 N 100 E				AMERICAN FORK UT 84003-1758	UT	84003-1758	75	1389 E AVIATOR AVENUE/SCHOOL	Water			Sewer	Penalty			Garbage Service	Garbage Fuel Charge		Storm Drain	Deployed Abatement	Deposit	Miscellaneous							8,588.43			45.75							8.25									0	4682.89	4682.89CR			8642.43	8642.43	08/08/2022	08/31/2022	07/01/2022	07/31/2022	77	77	01	18	77	01	01038	01038	00038	00123	01038	00038	49223636	49223638	17059047	92533572	49223639	90229084	1	1	1	1	1	1	07/27/2022	07/27/2022	07/20/2022	07/20/2022	07/27/2022	07/20/2022	4325	5786	2500	355	3893	24	06/29/2022	06/29/2022	06/20/2022	06/20/2022	06/29/2022	06/20/2022	4419	11583	2500	362	4030	37	94	5797		6	137	13	GAL	GAL	GAL	GAL	GAL	GAL		Past Due balances must be paid by 08/15/2022  in order to avoid a $50 fee and disconnection of water service.	If you would like to enroll in paperless billing or pay your bills online please visit www.eaglemountaincity.com	8386	02/01/2020		Single Graph				GAL To	30	7																		84003	0	JUL	JUN	MAY	APR	MAR	FEB	JAN	DEC	NOV	OCT	SEP	AUG		7	6	5	4	3	2	1	12	11	10	9	8	0	6373	3046	2353	1498	242	200	167	197	201	370	840	997	0	746	837	658	184	970	133	114	77	175	2442	8159	51174	
008386	005	ALPINE SCHOOL DISTRICT*		 ALPINE SCHOOL DISTRICT*		575 N 100 E				AMERICAN FORK UT 84003-1758	UT	84003-1758	75	3951 N WOOD RD/ SCHOOL	Water			Sewer	Penalty			Garbage Service	Garbage Fuel Charge		Storm Drain	Deployed Abatement	Deposit	Miscellaneous							1,032.40			45.75							132.00									0	1121.06	1121.06CR			1210.15	1210.15	08/08/2022	08/31/2022	07/01/2022	07/31/2022	24	24	24				03565	03565	03565				09149169	35712958	09149163				1	1	1				07/15/2022	07/15/2022	07/15/2022				47935	14932	3365				06/16/2022	06/21/2022	06/16/2022				47935	15678	3521				0	746	156				GAL	GAL	GAL					Past Due balances must be paid by 08/15/2022  in order to avoid a $50 fee and disconnection of water service.	If you would like to enroll in paperless billing or pay your bills online please visit www.eaglemountaincity.com	8386	10/11/2010		Single Graph				GAL To	30	7																		84003	0	JUL	JUN	MAY	APR	MAR	FEB	JAN	DEC	NOV	OCT	SEP	AUG		7	6	5	4	3	2	1	12	11	10	9	8	0	902	828	421	119	8	54	26	50	66	558	789	1002	0	896	1027	634	55	45	47	36	38	66	1129	1521	1731	
008386	009	ALPINE SCHOOL DISTRICT*		 ALPINE SCHOOL DISTRICT*		575 N 100 E				AMERICAN FORK UT 84003-1758	UT	84003-1758	75	5069 E GOLDEN EAGLE RD / SCHOOL	Water			Sewer	Penalty			Garbage Service	Garbage Fuel Charge		Storm Drain	Deployed Abatement	Deposit	Miscellaneous							25.50			45.75							8.25									0	79.50	79.50CR			79.50	79.50	08/08/2022	08/31/2022	07/01/2022	07/31/2022																			0												0												0						0													Past Due balances must be paid by 08/15/2022  in order to avoid a $50 fee and disconnection of water service.	If you would like to enroll in paperless billing or pay your bills online please visit www.eaglemountaincity.com	8386	02/01/2020		Single Graph					30	7																		84003	0														0	0	0	0	0	0	0	0	0	0	0	0	0	0	0	0	0	0	0	0	0	0	0	0	0	0	0	0	0	0	0	0	0	0	0	0	0	0	
008386	006	ALPINE SCHOOL DISTRICT*		 ALPINE SCHOOL DISTRICT*		575 N 100 E				AMERICAN FORK UT 84003-1758	UT	84003-1758	75	1427 E MID VALLEY RD/ FRONTIER	Water			Sewer	Penalty			Garbage Service	Garbage Fuel Charge		Storm Drain	Deployed Abatement	Deposit	Miscellaneous							393.42			45.75							8.25									0	383.20	383.20CR			447.42	447.42	08/08/2022	08/31/2022	07/01/2022	07/31/2022	18	18					00001	00001					438737081	749641603					1	1					07/19/2022	07/15/2022					4800	13124					06/17/2022	06/16/2022					4845	13388					45	264					GAL	GAL						Past Due balances must be paid by 08/15/2022  in order to avoid a $50 fee and disconnection of water service.	If you would like to enroll in paperless billing or pay your bills online please visit www.eaglemountaincity.com	8386	04/05/2012		Single Graph				GAL To	30	7																		84003	0	JUL	JUN	MAY	APR	MAR	FEB	JAN	DEC	NOV	OCT	SEP	AUG		7	6	5	4	3	2	1	12	11	10	9	8	0	309	255	31	17	8	8	5	9	10	57	249	310	0	-1617	341	109	30	0	0	8	5	37	208	871	413	
123535	003	RRPFP PARTNERS		 RRPFP PARTNERS		476 W 1300 N				AMERICAN FORK UT 84003-2771	UT	84003-2771	76	1843 E COSMOS DR/ EPT D-2	Water			Sewer	Penalty			Garbage Service	Garbage Fuel Charge		Storm Drain	Deployed Abatement	Deposit	Miscellaneous							25.50			45.75							8.25									0	158.59	0.00CR	15.00		79.50	253.09	08/08/2022	08/31/2022	07/01/2022	07/31/2022	27						000D2						77340402						1						07/15/2022						206						06/20/2022						206						0						GAL							Past Due balances must be paid by 08/15/2022  in order to avoid a $50 fee and disconnection of water service.	If you would like to enroll in paperless billing or pay your bills online please visit www.eaglemountaincity.com	123535	05/02/2022	173.59	Single Graph				GAL To	31	7																		84003	0	JUL	JUN	MAY	APR	MAR	FEB	JAN	DEC	NOV	OCT	SEP	AUG		7	6	5	4	3	2	1	12	11	10	9	8	0	0	2	0	0	0	0	0	0	0	0	0	0	0	0	0	0	0	0	0	0	0	0	0	0	0	
123535	002	RRPFP PARTNERS		 RRPFP PARTNERS		476 W 1300 N				AMERICAN FORK UT 84003-2771	UT	84003-2771	76	1843 E COSMOS DR/ EPT D-3	Water			Sewer	Penalty			Garbage Service	Garbage Fuel Charge		Storm Drain	Deployed Abatement	Deposit	Miscellaneous							25.50			45.75							8.25									0	167.23	0.00CR	15.00		79.50	261.73	08/08/2022	08/31/2022	07/01/2022	07/31/2022																			0												0												0						0													Past Due balances must be paid by 08/15/2022  in order to avoid a $50 fee and disconnection of water service.	If you would like to enroll in paperless billing or pay your bills online please visit www.eaglemountaincity.com	123535	05/02/2022	182.23	Single Graph				GAL To	31	7																		84003	0	JUL	JUN	MAY	APR	MAR	FEB	JAN	DEC	NOV	OCT	SEP	AUG		7	6	5	4	3	2	1	12	11	10	9	8	0	0	10	0	0	0	0	0	0	0	0	0	0	0	0	0	0	0	0	0	0	0	0	0	0	0	
123535	001	RRPFP PARTNERS		 RRPFP PARTNERS		476 W 1300 N				AMERICAN FORK UT 84003-2771	UT	84003-2771	76	1843 E COSMOS DR/ EPT D-7	Water			Sewer	Penalty			Garbage Service	Garbage Fuel Charge		Storm Drain	Deployed Abatement	Deposit	Miscellaneous							28.74			45.75							8.25									0	166.39	135.00CR	65.00		82.74	179.13	08/08/2022	08/31/2022	07/01/2022	07/31/2022	27						000D7						77340396						1						07/20/2022						310						06/20/2022						313						3						GAL							Past Due balances must be paid by 08/15/2022  in order to avoid a $50 fee and disconnection of water service.	If you would like to enroll in paperless billing or pay your bills online please visit www.eaglemountaincity.com	123535	04/04/2022	96.39	Single Graph				GAL To	31	7																		84003	0	JUL	JUN	MAY	APR	MAR	FEB	JAN	DEC	NOV	OCT	SEP	AUG		7	6	5	4	3	2	1	12	11	10	9	8	0	3	4	3	1	0	0	0	0	0	0	0	0	0	0	0	0	0	0	0	0	0	0	0	0	0	
123535	004	RRPFP PARTNERS		 RRPFP PARTNERS		476 W 1300 N				AMERICAN FORK UT 84003-2771	UT	84003-2771	76	1843 E COSMOS DR/ EPT D-6	Water			Sewer	Penalty			Garbage Service	Garbage Fuel Charge		Storm Drain	Deployed Abatement	Deposit	Miscellaneous							25.50			45.75							8.25									0	157.51	157.51CR	15.00		79.50	94.50	08/08/2022	08/31/2022	07/01/2022	07/31/2022	27						000D6						77340399						1						07/20/2022						131						06/20/2022						131						0						GAL							Past Due balances must be paid by 08/15/2022  in order to avoid a $50 fee and disconnection of water service.	If you would like to enroll in paperless billing or pay your bills online please visit www.eaglemountaincity.com	123535	05/02/2022	15.00	Single Graph				GAL To	31	7																		84003	0	JUL	JUN	MAY	APR	MAR	FEB	JAN	DEC	NOV	OCT	SEP	AUG		7	6	5	4	3	2	1	12	11	10	9	8	0	0	0	1	0	0	0	0	0	0	0	0	0	0	0	0	0	0	0	0	0	0	0	0	0	0	
120703	014	MEADOW BROOK PROPERTIES		 MEADOW BROOK PROPERTIES		11038 HIGHLAND BLVD STE 100				HIGHLAND UT 84003-3786	UT	84003-3786	25	2391 E COBBLE CREEK LN/ EPT E 572	Water			Sewer	Penalty			Garbage Service	Garbage Fuel Charge		Storm Drain	Deployed Abatement	Deposit	Miscellaneous																										0	5.12	0.00CR				5.12	08/08/2022	08/31/2022	07/01/2022	07/31/2022																			0												0												0						0													Past Due balances must be paid by 08/15/2022  in order to avoid a $50 fee and disconnection of water service.	If you would like to enroll in paperless billing or pay your bills online please visit www.eaglemountaincity.com	120703	06/22/2022	5.12	Single Graph				GAL To	31	7																		84003	0	JUL	JUN	MAY	APR	MAR	FEB	JAN	DEC	NOV	OCT	SEP	AUG		7	6	5	4	3	2	1	12	11	10	9	8	0	0	0	0	0	0	0	0	0	0	0	0	0	0	0	0	0	0	0	0	0	0	0	0	0	0	
120703	013	MEADOW BROOK PROPERTIES		 MEADOW BROOK PROPERTIES		11038 HIGHLAND BLVD STE 100				HIGHLAND UT 84003-3786	UT	84003-3786	25	3593 N SPARROW LN/ EV A1 128	Water			Sewer	Penalty			Garbage Service	Garbage Fuel Charge		Storm Drain	Deployed Abatement	Deposit	Miscellaneous							41.70			45.75				9.50			8.25									0	97.64	97.64CR			105.20	105.20	08/08/2022	08/31/2022	07/01/2022	07/31/2022	18						00128						89875880						1						07/20/2022						88						06/20/2022						103						15						GAL							Past Due balances must be paid by 08/15/2022  in order to avoid a $50 fee and disconnection of water service.	If you would like to enroll in paperless billing or pay your bills online please visit www.eaglemountaincity.com	120703	03/07/2022		Single Graph				GAL To	31	7																		84003	0	JUL	JUN	MAY	APR	MAR	FEB	JAN	DEC	NOV	OCT	SEP	AUG		7	6	5	4	3	2	1	12	11	10	9	8	0	15	8	2	3	1	0	0	0	0	0	0	0	0	0	0	0	0	0	0	0	0	0	0	0	0	
002053	050	PATTERSON CONSTRUCTION		 PATTERSON CONSTRUCTION		11038 HIGHLAND BLVD STE 100				HIGHLAND UT 84003-3786	UT	84003-3786	25	3996 N MERCUR DR/ EPT J LNDSCP	Water			Sewer	Penalty			Garbage Service	Garbage Fuel Charge		Storm Drain	Deployed Abatement	Deposit	Miscellaneous							25.50										8.25									0	33.75	0.00CR			33.75	67.50	08/08/2022	08/31/2022	07/01/2022	07/31/2022																			0												0												0						0													Past Due balances must be paid by 08/15/2022  in order to avoid a $50 fee and disconnection of water service.	If you would like to enroll in paperless billing or pay your bills online please visit www.eaglemountaincity.com	2053	09/30/2021	33.75	Single Graph					31	7																		84003	0														0	0	0	0	0	0	0	0	0	0	0	0	0	0	0	0	0	0	0	0	0	0	0	0	0	0	0	0	0	0	0	0	0	0	0	0	0	0	
002051	506	PATTERSON CONSTRUCTION		 PATTERSON CONSTRUCTION		11038 HIGHLAND BLVD STE 100				HIGHLAND UT 84003-3786	UT	84003-3786	25	2351 E MAPLE DR/ EPT G LNDSCP	Water			Sewer	Penalty			Garbage Service	Garbage Fuel Charge		Storm Drain	Deployed Abatement	Deposit	Miscellaneous							152.94																			0	-21.88	0.00CR			152.94	131.06	08/08/2022	08/31/2022	07/01/2022	07/31/2022	17						LNDSP						90974154						1						07/20/2022						1146						06/20/2022						1264						118						GAL							Past Due balances must be paid by 08/15/2022  in order to avoid a $50 fee and disconnection of water service.	If you would like to enroll in paperless billing or pay your bills online please visit www.eaglemountaincity.com	2051	11/06/2019		Single Graph				GAL To	30	7																		84003	0	JUL	JUN	MAY	APR	MAR	FEB	JAN	DEC	NOV	OCT	SEP	AUG		7	6	5	4	3	2	1	12	11	10	9	8	0	118	75	19	0	0	0	0	0	0	89	30	176	0	261	211	81	165	0	0	0	0	31	8	0	0	
002051	604	PATTERSON CONSTRUCTION		 PATTERSON CONSTRUCTION		11038 HIGHLAND BLVD STE 100				HIGHLAND UT 84003-3786	UT	84003-3786	25	5012 N FOXTAIL WAY/ SP LNDSCP	Water			Sewer	Penalty			Garbage Service	Garbage Fuel Charge		Storm Drain	Deployed Abatement	Deposit	Miscellaneous							25.50																			0	25.50	0.00CR			25.50	51.00	08/08/2022	08/31/2022	07/01/2022	07/31/2022																			0												0												0						0													Past Due balances must be paid by 08/15/2022  in order to avoid a $50 fee and disconnection of water service.	If you would like to enroll in paperless billing or pay your bills online please visit www.eaglemountaincity.com	2051	08/25/2021	25.50	Single Graph					31	7																		84003	0														0	0	0	0	0	0	0	0	0	0	0	0	0	0	0	0	0	0	0	0	0	0	0	0	0	0	0	0	0	0	0	0	0	0	0	0	0	0	
002051	603	PATTERSON CONSTRUCTION		 PATTERSON CONSTRUCTION		11038 HIGHLAND BLVD STE 100				HIGHLAND UT 84003-3786	UT	84003-3786	25	5185 N CLIFFROSE DR/ SP LNDSCP	Water			Sewer	Penalty			Garbage Service	Garbage Fuel Charge		Storm Drain	Deployed Abatement	Deposit	Miscellaneous							25.50																			0	677.82	0.00CR			25.50	703.32	08/08/2022	08/31/2022	07/01/2022	07/31/2022																			0												0												0						0													Past Due balances must be paid by 08/15/2022  in order to avoid a $50 fee and disconnection of water service.	If you would like to enroll in paperless billing or pay your bills online please visit www.eaglemountaincity.com	2051	08/25/2021	677.82	Single Graph				GAL To	31	7																		84003	0	JUL	JUN	MAY	APR	MAR	FEB	JAN	DEC	NOV	OCT	SEP	AUG		7	6	5	4	3	2	1	12	11	10	9	8	0	0	604	0	0	0	0	0	0	0	0	0	0	0	0	0	0	0	0	0	0	0	0	0	0	0	
130946	000	RENTALS	ANDREW	ANDREW RENTALS		11251 N SUNSET DR				HIGHLAND UT 84003-3861	UT	84003-3861	99	2421 E COBBLE CREEK LN/ EPT E 570	Water			Sewer	Penalty			Garbage Service	Garbage Fuel Charge		Storm Drain	Deployed Abatement	Deposit	Miscellaneous																										0	110.35	0.00CR				110.35	08/08/2022	08/31/2022	07/01/2022	07/31/2022																			0												0												0						0													Past Due balances must be paid by 08/15/2022  in order to avoid a $50 fee and disconnection of water service.	If you would like to enroll in paperless billing or pay your bills online please visit www.eaglemountaincity.com	130946	06/22/2022	110.35	Single Graph				GAL To	31	7																		84003	0	JUL	JUN	MAY	APR	MAR	FEB	JAN	DEC	NOV	OCT	SEP	AUG		7	6	5	4	3	2	1	12	11	10	9	8	0	4	0	0	0	0	0	0	0	0	0	0	0	0	0	0	0	0	0	0	0	0	0	0	0	0	
130946	002	RENTALS	ANDREW	ANDREW RENTALS		11251 N SUNSET DR				HIGHLAND UT 84003-3861	UT	84003-3861	99	2391 E COBBLE CREEK LN/ EPT E 572	Water			Sewer	Penalty			Garbage Service	Garbage Fuel Charge		Storm Drain	Deployed Abatement	Deposit	Miscellaneous							65.46			45.75				9.50			8.25									0	22.97	22.97CR			128.96	128.96	08/08/2022	08/31/2022	07/01/2022	07/31/2022	27						00572						92076235						1						07/20/2022						0						06/20/2022						37						37						GAL							Past Due balances must be paid by 08/15/2022  in order to avoid a $50 fee and disconnection of water service.	If you would like to enroll in paperless billing or pay your bills online please visit www.eaglemountaincity.com	130946	06/23/2022		Single Graph				GAL To	31	7																		84003	0	JUL	JUN	MAY	APR	MAR	FEB	JAN	DEC	NOV	OCT	SEP	AUG		7	6	5	4	3	2	1	12	11	10	9	8	0	37	0	0	0	0	0	0	0	0	0	0	0	0	0	0	0	0	0	0	0	0	0	0	0	0	
130946	001	RENTALS	ANDREW	ANDREW RENTALS		11251 N SUNSET DR				HIGHLAND UT 84003-3861	UT	84003-3861	99	3946 N DATEMAN DR/ EPT E 568	Water			Sewer	Penalty			Garbage Service	Garbage Fuel Charge		Storm Drain	Deployed Abatement	Deposit	Miscellaneous																										0	122.23	0.00CR				122.23	08/08/2022	08/31/2022	07/01/2022	07/31/2022																			0												0												0						0													Past Due balances must be paid by 08/15/2022  in order to avoid a $50 fee and disconnection of water service.	If you would like to enroll in paperless billing or pay your bills online please visit www.eaglemountaincity.com	130946	06/22/2022	122.23	Single Graph				GAL To	31	7																		84003	0	JUL	JUN	MAY	APR	MAR	FEB	JAN	DEC	NOV	OCT	SEP	AUG		7	6	5	4	3	2	1	12	11	10	9	8	0	34	0	0	0	0	0	0	0	0	0	0	0	0	0	0	0	0	0	0	0	0	0	0	0	0	
006122	002	SWENSEN	SHAWN	SHAWN SWENSEN		121 BORDEAUX LN				ALPINE UT 84004-1802	UT	84004-1802	21	4871 E LAKE CORNER DR/ SLM 2453	Water			Sewer	Penalty			Garbage Service	Garbage Fuel Charge		Storm Drain	Deployed Abatement	Deposit	Miscellaneous							31.98			45.75				9.50			8.25									0	187.72	187.72CR			95.48	95.48	08/08/2022	08/31/2022	07/01/2022	07/31/2022	53						02453						90977171						1						07/19/2022						20						06/17/2022						26						6						GAL							Past Due balances must be paid by 08/15/2022  in order to avoid a $50 fee and disconnection of water service.	If you would like to enroll in paperless billing or pay your bills online please visit www.eaglemountaincity.com	6122	03/24/2022		Single Graph				GAL To	31	7																		84004	0	JUL	JUN	MAY	APR	MAR	FEB	JAN	DEC	NOV	OCT	SEP	AUG		7	6	5	4	3	2	1	12	11	10	9	8	0	6	4	5	11	0	0	0	0	0	0	0	0	0	0	0	0	0	0	0	0	0	0	0	0	0	
006122	001	SWENSEN	SHAWN	SHAWN SWENSEN		121 BORDEAUX LN				ALPINE UT 84004-1802	UT	84004-1802	21	4850 E HIDDEN STEPPE BEND/ SL 2056	Water			Sewer	Penalty			Garbage Service	Garbage Fuel Charge		Storm Drain	Deployed Abatement	Deposit	Miscellaneous							43.86			45.75							8.25									0	190.32	190.32CR			97.86	97.86	08/08/2022	08/31/2022	07/01/2022	07/31/2022	53						02056						88844551						1						07/18/2022						198						06/17/2022						215						17						GAL							Past Due balances must be paid by 08/15/2022  in order to avoid a $50 fee and disconnection of water service.	If you would like to enroll in paperless billing or pay your bills online please visit www.eaglemountaincity.com	6122	01/27/2022		Single Graph				GAL To	31	7																		84004	0	JUL	JUN	MAY	APR	MAR	FEB	JAN	DEC	NOV	OCT	SEP	AUG		7	6	5	4	3	2	1	12	11	10	9	8	0	17	20	9	6	5	0	0	0	0	0	0	0	0	0	0	0	0	0	0	0	0	0	0	0	0	
130931	000	HENAULT	MANDI	MANDI HENAULT		2351 E SUMMIT WAY				EAGLE MOUNTAIN UT 84005-2100	UT	84005-2100	51	2351 E SUMMIT WAY/ PA 66	Water			Sewer	Penalty			Garbage Service	Garbage Fuel Charge		Storm Drain	Deployed Abatement	Deposit	Miscellaneous							44.94			45.75				15.75			8.25									0	69.10	0.00CR			114.69	183.79	08/08/2022	08/31/2022	07/01/2022	07/31/2022	17						00066						89218290						1						07/20/2022						175						06/17/2022						193						18						GAL							Past Due balances must be paid by 08/15/2022  in order to avoid a $50 fee and disconnection of water service.	If you would like to enroll in paperless billing or pay your bills online please visit www.eaglemountaincity.com	130931	06/17/2022	69.10	Single Graph				GAL To	31	7																		84005	0	JUL	JUN	MAY	APR	MAR	FEB	JAN	DEC	NOV	OCT	SEP	AUG		7	6	5	4	3	2	1	12	11	10	9	8	0	18	1	0	0	0	0	0	0	0	0	0	0	0	0	0	0	0	0	0	0	0	0	0	0	0	
127334	000	HENAULT	MANDI	MANDI HENAULT		2351 E SUMMIT WAY				EAGLE MOUNTAIN UT 84005-2100	UT	84005-2100	51	7095 N SILVER SPRING WAY/ SLM 2156	Water			Sewer	Penalty			Garbage Service	Garbage Fuel Charge		Storm Drain	Deployed Abatement	Deposit	Miscellaneous																										0	218.46	0.00CR				218.46	08/08/2022	08/31/2022	07/01/2022	07/31/2022																			0												0												0						0													Past Due balances must be paid by 08/15/2022  in order to avoid a $50 fee and disconnection of water service.	If you would like to enroll in paperless billing or pay your bills online please visit www.eaglemountaincity.com	127334	05/24/2021	218.46	Single Graph				GAL To	31	7																		84005	0	JUL	JUN	MAY	APR	MAR	FEB	JAN	DEC	NOV	OCT	SEP	AUG		7	6	5	4	3	2	1	12	11	10	9	8	0	3	9	8	9	8	8	9	6	5	6	5	6	0	5	5	0	0	0	0	0	0	0	0	0	0	
123154	072	EAGLE HEIGHTS VILLAGE*		 EAGLE HEIGHTS VILLAGE*		2587 E POWELL WAY				EAGLE MOUNTAIN UT 84005-2300	UT	84005-2300	87	2587 E POWELL WAY/ EHV CLBHS	Water			Sewer	Penalty			Garbage Service	Garbage Fuel Charge		Storm Drain	Deployed Abatement	Deposit	Miscellaneous							122.70			45.75				9.50			8.25									0	89.95	89.95CR			186.20	186.20	08/08/2022	08/31/2022	07/01/2022	07/31/2022	27						00141						89575004						1						07/20/2022						434						06/20/2022						524						90						GAL							Past Due balances must be paid by 08/15/2022  in order to avoid a $50 fee and disconnection of water service.	If you would like to enroll in paperless billing or pay your bills online please visit www.eaglemountaincity.com	123154	01/08/2021		Single Graph				GAL To	30	7																		84005	0	JUL	JUN	MAY	APR	MAR	FEB	JAN	DEC	NOV	OCT	SEP	AUG		7	6	5	4	3	2	1	12	11	10	9	8	0	90	91	64	6	0	0	1	0	0	31	56	39	0	64	43	36	3	0	0	0	0	0	0	0	0	
123154	073	EAGLE HEIGHTS VILLAGE*		 EAGLE HEIGHTS VILLAGE*		2587 E POWELL WAY				EAGLE MOUNTAIN UT 84005-2300	UT	84005-2300	87	3946 N STALLION ST/ EHV LNDSCP	Water			Sewer	Penalty			Garbage Service	Garbage Fuel Charge		Storm Drain	Deployed Abatement	Deposit	Miscellaneous							38.46																			0	38.46	38.46CR			38.46	38.46	08/08/2022	08/31/2022	07/01/2022	07/31/2022	27						000A4						88979572						1						07/20/2022						35						06/20/2022						47						12						GAL							Past Due balances must be paid by 08/15/2022  in order to avoid a $50 fee and disconnection of water service.	If you would like to enroll in paperless billing or pay your bills online please visit www.eaglemountaincity.com	123154	03/21/2022		Single Graph				GAL To	30	7																		84005	0	JUL	JUN	MAY	APR	MAR	FEB	JAN	DEC	NOV	OCT	SEP	AUG		7	6	5	4	3	2	1	12	11	10	9	8	0	12	12	8	0	0	0	0	0	0	0	0	0	0	0	0	0	0	0	0	0	0	0	0	0	0	
123154	019	EAGLE HEIGHTS VILLAGE*		 EAGLE HEIGHTS VILLAGE*		2587 E POWELL WAY				EAGLE MOUNTAIN UT 84005-2300	UT	84005-2300	87	3845 N EAGLE MEADOWS DR #B / EHV 110 B	Water			Sewer	Penalty			Garbage Service	Garbage Fuel Charge		Storm Drain	Deployed Abatement	Deposit	Miscellaneous							35.22			45.75				14.50			8.25									0	104.80	104.80CR			103.72	103.72	08/08/2022	08/31/2022	07/01/2022	07/31/2022	27						00110						88824092						1						07/20/2022						115						06/20/2022						124						9						GAL							Past Due balances must be paid by 08/15/2022  in order to avoid a $50 fee and disconnection of water service.	If you would like to enroll in paperless billing or pay your bills online please visit www.eaglemountaincity.com	123154	07/01/2020		Single Graph				GAL To	31	7																		84005	0	JUL	JUN	MAY	APR	MAR	FEB	JAN	DEC	NOV	OCT	SEP	AUG		7	6	5	4	3	2	1	12	11	10	9	8	0	9	10	7	0	0	0	0	0	0	0	0	0	0	0	0	0	0	0	0	0	0	0	0	0	0	
123154	120	EAGLE HEIGHTS VILLAGE*		 EAGLE HEIGHTS VILLAGE*		2587 E POWELL WAY				EAGLE MOUNTAIN UT 84005-2300	UT	84005-2300	87	3865 N EAGLE MEADOWS DR #A/ EHV 111 A	Water			Sewer	Penalty			Garbage Service	Garbage Fuel Charge		Storm Drain	Deployed Abatement	Deposit	Miscellaneous							36.30			45.75				9.50			8.25									0	100.88	100.88CR			99.80	99.80	08/08/2022	08/31/2022	07/01/2022	07/31/2022	27						00111						88824096						1						07/20/2022						293						06/20/2022						303						10						GAL							Past Due balances must be paid by 08/15/2022  in order to avoid a $50 fee and disconnection of water service.	If you would like to enroll in paperless billing or pay your bills online please visit www.eaglemountaincity.com	123154	04/01/2022		Single Graph				GAL To	31	7																		84005	0	JUL	JUN	MAY	APR	MAR	FEB	JAN	DEC	NOV	OCT	SEP	AUG		7	6	5	4	3	2	1	12	11	10	9	8	0	10	11	8	3	0	0	0	0	0	0	0	0	0	0	0	0	0	0	0	0	0	0	0	0	0	
123154	094	EAGLE HEIGHTS VILLAGE*		 EAGLE HEIGHTS VILLAGE*		2587 E POWELL WAY				EAGLE MOUNTAIN UT 84005-2300	UT	84005-2300	87	2675 E POWELL WAY #B/ EHV 103 B	Water			Sewer	Penalty			Garbage Service	Garbage Fuel Charge		Storm Drain	Deployed Abatement	Deposit	Miscellaneous							43.86			45.75				9.50			8.25									0	107.36	107.36CR			107.36	107.36	08/08/2022	08/31/2022	07/01/2022	07/31/2022	27						00103						88495217						1						07/20/2022						345						06/20/2022						362						17						GAL							Past Due balances must be paid by 08/15/2022  in order to avoid a $50 fee and disconnection of water service.	If you would like to enroll in paperless billing or pay your bills online please visit www.eaglemountaincity.com	123154	04/01/2022		Single Graph				GAL To	31	7																		84005	0	JUL	JUN	MAY	APR	MAR	FEB	JAN	DEC	NOV	OCT	SEP	AUG		7	6	5	4	3	2	1	12	11	10	9	8	0	17	17	13	2	0	0	0	0	0	0	0	0	0	0	0	0	0	0	0	0	0	0	0	0	0	
123154	134	EAGLE HEIGHTS VILLAGE*		 EAGLE HEIGHTS VILLAGE*		2587 E POWELL WAY				EAGLE MOUNTAIN UT 84005-2300	UT	84005-2300	87	3908 N OAK BLVD #B / EHV 118 B	Water			Sewer	Penalty			Garbage Service	Garbage Fuel Charge		Storm Drain	Deployed Abatement	Deposit	Miscellaneous							36.30			45.75				9.50			8.25									0	98.72	98.72CR			99.80	99.80	08/08/2022	08/31/2022	07/01/2022	07/31/2022	27						00118						88844518						1						07/20/2022						138						06/20/2022						148						10						GAL							Past Due balances must be paid by 08/15/2022  in order to avoid a $50 fee and disconnection of water service.	If you would like to enroll in paperless billing or pay your bills online please visit www.eaglemountaincity.com	123154	04/02/2022		Single Graph				GAL To	31	7																		84005	0	JUL	JUN	MAY	APR	MAR	FEB	JAN	DEC	NOV	OCT	SEP	AUG		7	6	5	4	3	2	1	12	11	10	9	8	0	10	9	6	3	0	0	0	0	0	0	0	0	0	0	0	0	0	0	0	0	0	0	0	0	0	
123154	159	EAGLE HEIGHTS VILLAGE*		 EAGLE HEIGHTS VILLAGE*		2587 E POWELL WAY				EAGLE MOUNTAIN UT 84005-2300	UT	84005-2300	87	3934 N STALLION ST #B / EHV 130 B	Water			Sewer	Penalty			Garbage Service	Garbage Fuel Charge		Storm Drain	Deployed Abatement	Deposit	Miscellaneous							48.18			45.75				9.50			8.25									0	104.12	104.12CR			111.68	111.68	08/08/2022	08/31/2022	07/01/2022	07/31/2022	27						00130						89174117						1						07/20/2022						143						06/20/2022						164						21						GAL							Past Due balances must be paid by 08/15/2022  in order to avoid a $50 fee and disconnection of water service.	If you would like to enroll in paperless billing or pay your bills online please visit www.eaglemountaincity.com	123154	04/01/2022		Single Graph				GAL To	31	7																		84005	0	JUL	JUN	MAY	APR	MAR	FEB	JAN	DEC	NOV	OCT	SEP	AUG		7	6	5	4	3	2	1	12	11	10	9	8	0	21	14	12	7	0	0	0	0	0	0	0	0	0	0	0	0	0	0	0	0	0	0	0	0	0	
123154	168	EAGLE HEIGHTS VILLAGE*		 EAGLE HEIGHTS VILLAGE*		2587 E POWELL WAY				EAGLE MOUNTAIN UT 84005-2300	UT	84005-2300	87	3837 N STALLION ST #A/ EHV 135 A	Water			Sewer	Penalty			Garbage Service	Garbage Fuel Charge		Storm Drain	Deployed Abatement	Deposit	Miscellaneous							39.54			45.75				14.50			8.25									0	114.52	114.52CR			108.04	108.04	08/08/2022	08/31/2022	07/01/2022	07/31/2022	27						00135						88867523						1						07/20/2022						157						06/20/2022						170						13						GAL							Past Due balances must be paid by 08/15/2022  in order to avoid a $50 fee and disconnection of water service.	If you would like to enroll in paperless billing or pay your bills online please visit www.eaglemountaincity.com	123154	04/01/2022		Single Graph				GAL To	31	7																		84005	0	JUL	JUN	MAY	APR	MAR	FEB	JAN	DEC	NOV	OCT	SEP	AUG		7	6	5	4	3	2	1	12	11	10	9	8	0	13	19	10	3	0	0	0	0	0	0	0	0	0	0	0	0	0	0	0	0	0	0	0	0	0	
123154	137	EAGLE HEIGHTS VILLAGE*		 EAGLE HEIGHTS VILLAGE*		2587 E POWELL WAY				EAGLE MOUNTAIN UT 84005-2300	UT	84005-2300	87	3868 N OAK BLVD #A / EHV 120 A	Water			Sewer	Penalty			Garbage Service	Garbage Fuel Charge		Storm Drain	Deployed Abatement	Deposit	Miscellaneous							37.38			45.75				14.50			8.25									0	106.96	106.96CR			105.88	105.88	08/08/2022	08/31/2022	07/01/2022	07/31/2022	27						00120						88920359						1						07/20/2022						136						06/20/2022						147						11						GAL							Past Due balances must be paid by 08/15/2022  in order to avoid a $50 fee and disconnection of water service.	If you would like to enroll in paperless billing or pay your bills online please visit www.eaglemountaincity.com	123154	04/01/2022		Single Graph				GAL To	31	7																		84005	0	JUL	JUN	MAY	APR	MAR	FEB	JAN	DEC	NOV	OCT	SEP	AUG		7	6	5	4	3	2	1	12	11	10	9	8	0	11	12	11	3	0	0	0	0	0	0	0	0	0	0	0	0	0	0	0	0	0	0	0	0	0	
123154	127	EAGLE HEIGHTS VILLAGE*		 EAGLE HEIGHTS VILLAGE*		2587 E POWELL WAY				EAGLE MOUNTAIN UT 84005-2300	UT	84005-2300	87	3945 N EAGLE MEADOWS DR #A / EHV 115 A	Water			Sewer	Penalty			Garbage Service	Garbage Fuel Charge		Storm Drain	Deployed Abatement	Deposit	Miscellaneous							37.38			45.75				15.75			8.25									0	111.45	111.45CR			107.13	107.13	08/08/2022	08/31/2022	07/01/2022	07/31/2022	27						00115						88824026						1						07/20/2022						167						06/20/2022						178						11						GAL							Past Due balances must be paid by 08/15/2022  in order to avoid a $50 fee and disconnection of water service.	If you would like to enroll in paperless billing or pay your bills online please visit www.eaglemountaincity.com	123154	04/01/2022		Single Graph				GAL To	31	7																		84005	0	JUL	JUN	MAY	APR	MAR	FEB	JAN	DEC	NOV	OCT	SEP	AUG		7	6	5	4	3	2	1	12	11	10	9	8	0	11	15	11	4	0	0	0	0	0	0	0	0	0	0	0	0	0	0	0	0	0	0	0	0	0	
123154	124	EAGLE HEIGHTS VILLAGE*		 EAGLE HEIGHTS VILLAGE*		2587 E POWELL WAY				EAGLE MOUNTAIN UT 84005-2300	UT	84005-2300	87	3905 N EAGLE MEADOWS DR #B / EHV 113 B	Water			Sewer	Penalty			Garbage Service	Garbage Fuel Charge		Storm Drain	Deployed Abatement	Deposit	Miscellaneous							37.38			45.75				14.50			8.25									0	105.88	105.88CR			105.88	105.88	08/08/2022	08/31/2022	07/01/2022	07/31/2022	27						00113						88824032						1						07/20/2022						227						06/20/2022						238						11						GAL							Past Due balances must be paid by 08/15/2022  in order to avoid a $50 fee and disconnection of water service.	If you would like to enroll in paperless billing or pay your bills online please visit www.eaglemountaincity.com	123154	04/01/2022		Single Graph				GAL To	31	7																		84005	0	JUL	JUN	MAY	APR	MAR	FEB	JAN	DEC	NOV	OCT	SEP	AUG		7	6	5	4	3	2	1	12	11	10	9	8	0	11	11	10	4	0	0	0	0	0	0	0	0	0	0	0	0	0	0	0	0	0	0	0	0	0	
123154	158	EAGLE HEIGHTS VILLAGE*		 EAGLE HEIGHTS VILLAGE*		2587 E POWELL WAY				EAGLE MOUNTAIN UT 84005-2300	UT	84005-2300	87	3934 N STALLION ST #A / EHV 130 A	Water			Sewer	Penalty			Garbage Service	Garbage Fuel Charge		Storm Drain	Deployed Abatement	Deposit	Miscellaneous							31.98			45.75				14.50			8.25									0	100.48	100.48CR			100.48	100.48	08/08/2022	08/31/2022	07/01/2022	07/31/2022	27						00130						89174174						1						07/20/2022						98						06/20/2022						104						6						GAL							Past Due balances must be paid by 08/15/2022  in order to avoid a $50 fee and disconnection of water service.	If you would like to enroll in paperless billing or pay your bills online please visit www.eaglemountaincity.com	123154	04/01/2022		Single Graph				GAL To	31	7																		84005	0	JUL	JUN	MAY	APR	MAR	FEB	JAN	DEC	NOV	OCT	SEP	AUG		7	6	5	4	3	2	1	12	11	10	9	8	0	6	6	9	1	0	0	0	0	0	0	0	0	0	0	0	0	0	0	0	0	0	0	0	0	0	
123154	130	EAGLE HEIGHTS VILLAGE*		 EAGLE HEIGHTS VILLAGE*		2587 E POWELL WAY				EAGLE MOUNTAIN UT 84005-2300	UT	84005-2300	87	3948 N OAK BLVD #B / EHV 116 B	Water			Sewer	Penalty			Garbage Service	Garbage Fuel Charge		Storm Drain	Deployed Abatement	Deposit	Miscellaneous							37.38			45.75				14.50			8.25									0	104.80	104.80CR			105.88	105.88	08/08/2022	08/31/2022	07/01/2022	07/31/2022	27						00116						88495314						1						07/20/2022						166						06/20/2022						177						11						GAL							Past Due balances must be paid by 08/15/2022  in order to avoid a $50 fee and disconnection of water service.	If you would like to enroll in paperless billing or pay your bills online please visit www.eaglemountaincity.com	123154	04/01/2022		Single Graph				GAL To	31	7																		84005	0	JUL	JUN	MAY	APR	MAR	FEB	JAN	DEC	NOV	OCT	SEP	AUG		7	6	5	4	3	2	1	12	11	10	9	8	0	11	10	8	6	0	0	0	0	0	0	0	0	0	0	0	0	0	0	0	0	0	0	0	0	0	
123154	173	EAGLE HEIGHTS VILLAGE*		 EAGLE HEIGHTS VILLAGE*		2587 E POWELL WAY				EAGLE MOUNTAIN UT 84005-2300	UT	84005-2300	87	3877 N STALLION ST #B/ EHV 137 B	Water			Sewer	Penalty			Garbage Service	Garbage Fuel Charge		Storm Drain	Deployed Abatement	Deposit	Miscellaneous							40.62			45.75				9.50			8.25									0	101.96	101.96CR			104.12	104.12	08/08/2022	08/31/2022	07/01/2022	07/31/2022	27						00137						88867461						1						07/20/2022						222						06/20/2022						236						14						GAL							Past Due balances must be paid by 08/15/2022  in order to avoid a $50 fee and disconnection of water service.	If you would like to enroll in paperless billing or pay your bills online please visit www.eaglemountaincity.com	123154	04/01/2022		Single Graph				GAL To	31	7																		84005	0	JUL	JUN	MAY	APR	MAR	FEB	JAN	DEC	NOV	OCT	SEP	AUG		7	6	5	4	3	2	1	12	11	10	9	8	0	14	12	13	6	0	0	0	0	0	0	0	0	0	0	0	0	0	0	0	0	0	0	0	0	0	
123154	165	EAGLE HEIGHTS VILLAGE*		 EAGLE HEIGHTS VILLAGE*		2587 E POWELL WAY				EAGLE MOUNTAIN UT 84005-2300	UT	84005-2300	87	3874 N STALLION ST #B / EHV 133 B	Water			Sewer	Penalty			Garbage Service	Garbage Fuel Charge		Storm Drain	Deployed Abatement	Deposit	Miscellaneous							40.62			45.75				14.50			8.25									0	108.04	108.04CR			109.12	109.12	08/08/2022	08/31/2022	07/01/2022	07/31/2022	27						00133						88979454						1						07/20/2022						132						06/20/2022						146						14						GAL							Past Due balances must be paid by 08/15/2022  in order to avoid a $50 fee and disconnection of water service.	If you would like to enroll in paperless billing or pay your bills online please visit www.eaglemountaincity.com	123154	04/01/2022		Single Graph				GAL To	31	7																		84005	0	JUL	JUN	MAY	APR	MAR	FEB	JAN	DEC	NOV	OCT	SEP	AUG		7	6	5	4	3	2	1	12	11	10	9	8	0	14	13	9	2	0	0	0	0	0	0	0	0	0	0	0	0	0	0	0	0	0	0	0	0	0	
123154	138	EAGLE HEIGHTS VILLAGE*		 EAGLE HEIGHTS VILLAGE*		2587 E POWELL WAY				EAGLE MOUNTAIN UT 84005-2300	UT	84005-2300	87	3868 N OAK BLVD #B / EHV 120 B	Water			Sewer	Penalty			Garbage Service	Garbage Fuel Charge		Storm Drain	Deployed Abatement	Deposit	Miscellaneous							36.30			45.75				14.50			8.25									0	111.28	111.28CR			104.80	104.80	08/08/2022	08/31/2022	07/01/2022	07/31/2022	27						00120						88920355						1						07/20/2022						148						06/20/2022						158						10						GAL							Past Due balances must be paid by 08/15/2022  in order to avoid a $50 fee and disconnection of water service.	If you would like to enroll in paperless billing or pay your bills online please visit www.eaglemountaincity.com	123154	04/01/2022		Single Graph				GAL To	31	7																		84005	0	JUL	JUN	MAY	APR	MAR	FEB	JAN	DEC	NOV	OCT	SEP	AUG		7	6	5	4	3	2	1	12	11	10	9	8	0	10	16	11	3	0	0	0	0	0	0	0	0	0	0	0	0	0	0	0	0	0	0	0	0	0	
123154	117	EAGLE HEIGHTS VILLAGE*		 EAGLE HEIGHTS VILLAGE*		2587 E POWELL WAY				EAGLE MOUNTAIN UT 84005-2300	UT	84005-2300	87	3825 N EAGLE MEADOWS DR #A / EHV 109 A	Water			Sewer	Penalty			Garbage Service	Garbage Fuel Charge		Storm Drain	Deployed Abatement	Deposit	Miscellaneous							40.62			45.75				14.50			8.25									0	109.12	109.12CR			109.12	109.12	08/08/2022	08/31/2022	07/01/2022	07/31/2022	27						00109						88824077						1						07/20/2022						182						06/20/2022						196						14						GAL							Past Due balances must be paid by 08/15/2022  in order to avoid a $50 fee and disconnection of water service.	If you would like to enroll in paperless billing or pay your bills online please visit www.eaglemountaincity.com	123154	04/01/2022		Single Graph				GAL To	31	7																		84005	0	JUL	JUN	MAY	APR	MAR	FEB	JAN	DEC	NOV	OCT	SEP	AUG		7	6	5	4	3	2	1	12	11	10	9	8	0	14	14	13	4	0	0	0	0	0	0	0	0	0	0	0	0	0	0	0	0	0	0	0	0	0	
123154	128	EAGLE HEIGHTS VILLAGE*		 EAGLE HEIGHTS VILLAGE*		2587 E POWELL WAY				EAGLE MOUNTAIN UT 84005-2300	UT	84005-2300	87	3945 N EAGLE MEADOWS DR #B / EHV 115 B	Water			Sewer	Penalty			Garbage Service	Garbage Fuel Charge		Storm Drain	Deployed Abatement	Deposit	Miscellaneous							43.86			45.75				19.50			8.25									0	109.80	109.80CR			117.36	117.36	08/08/2022	08/31/2022	07/01/2022	07/31/2022	27						00115						88824030						1						07/20/2022						202						06/20/2022						219						17						GAL							Past Due balances must be paid by 08/15/2022  in order to avoid a $50 fee and disconnection of water service.	If you would like to enroll in paperless billing or pay your bills online please visit www.eaglemountaincity.com	123154	04/01/2022		Single Graph				GAL To	31	7																		84005	0	JUL	JUN	MAY	APR	MAR	FEB	JAN	DEC	NOV	OCT	SEP	AUG		7	6	5	4	3	2	1	12	11	10	9	8	0	17	10	8	1	0	0	0	0	0	0	0	0	0	0	0	0	0	0	0	0	0	0	0	0	0	
123154	179	EAGLE HEIGHTS VILLAGE*		 EAGLE HEIGHTS VILLAGE*		2587 E POWELL WAY				EAGLE MOUNTAIN UT 84005-2300	UT	84005-2300	87	3937 N STALLION ST #B/ EHV 140 B	Water			Sewer	Penalty			Garbage Service	Garbage Fuel Charge		Storm Drain	Deployed Abatement	Deposit	Miscellaneous							46.02			45.75				14.50			8.25									0	110.20	110.20CR			114.52	114.52	08/08/2022	08/31/2022	07/01/2022	07/31/2022	27						00140						88867535						1						07/20/2022						202						06/16/2022						221						19						GAL							Past Due balances must be paid by 08/15/2022  in order to avoid a $50 fee and disconnection of water service.	If you would like to enroll in paperless billing or pay your bills online please visit www.eaglemountaincity.com	123154	04/01/2022		Single Graph				GAL To	31	7																		84005	0	JUL	JUN	MAY	APR	MAR	FEB	JAN	DEC	NOV	OCT	SEP	AUG		7	6	5	4	3	2	1	12	11	10	9	8	0	19	15	13	6	0	0	0	0	0	0	0	0	0	0	0	0	0	0	0	0	0	0	0	0	0	
123154	112	EAGLE HEIGHTS VILLAGE*		 EAGLE HEIGHTS VILLAGE*		2587 E POWELL WAY				EAGLE MOUNTAIN UT 84005-2300	UT	84005-2300	87	3862 N EAGLE MEADOWS DR #B / EHV 107 B	Water			Sewer	Penalty			Garbage Service	Garbage Fuel Charge		Storm Drain	Deployed Abatement	Deposit	Miscellaneous							48.18			45.75				15.75			8.25									0	121.17	121.17CR			117.93	117.93	08/08/2022	08/31/2022	07/01/2022	07/31/2022	27						00107						88495218						1						07/20/2022						430						06/20/2022						451						21						GAL							Past Due balances must be paid by 08/15/2022  in order to avoid a $50 fee and disconnection of water service.	If you would like to enroll in paperless billing or pay your bills online please visit www.eaglemountaincity.com	123154	04/01/2022		Single Graph				GAL To	31	7																		84005	0	JUL	JUN	MAY	APR	MAR	FEB	JAN	DEC	NOV	OCT	SEP	AUG		7	6	5	4	3	2	1	12	11	10	9	8	0	21	24	19	8	0	0	0	0	0	0	0	0	0	0	0	0	0	0	0	0	0	0	0	0	0	
123154	164	EAGLE HEIGHTS VILLAGE*		 EAGLE HEIGHTS VILLAGE*		2587 E POWELL WAY				EAGLE MOUNTAIN UT 84005-2300	UT	84005-2300	87	3874 N STALLION ST #A / EHV 133 A	Water			Sewer	Penalty			Garbage Service	Garbage Fuel Charge		Storm Drain	Deployed Abatement	Deposit	Miscellaneous							39.54			45.75				14.50			8.25									0	109.12	109.12CR			108.04	108.04	08/08/2022	08/31/2022	07/01/2022	07/31/2022	27						00133						88979472						1						07/20/2022						160						06/20/2022						173						13						GAL							Past Due balances must be paid by 08/15/2022  in order to avoid a $50 fee and disconnection of water service.	If you would like to enroll in paperless billing or pay your bills online please visit www.eaglemountaincity.com	123154	04/01/2022		Single Graph				GAL To	31	7																		84005	0	JUL	JUN	MAY	APR	MAR	FEB	JAN	DEC	NOV	OCT	SEP	AUG		7	6	5	4	3	2	1	12	11	10	9	8	0	13	14	12	9	0	0	0	0	0	0	0	0	0	0	0	0	0	0	0	0	0	0	0	0	0	
123154	178	EAGLE HEIGHTS VILLAGE*		 EAGLE HEIGHTS VILLAGE*		2587 E POWELL WAY				EAGLE MOUNTAIN UT 84005-2300	UT	84005-2300	87	3937 N STALLION ST #A/ EHV 140 A	Water			Sewer	Penalty			Garbage Service	Garbage Fuel Charge		Storm Drain	Deployed Abatement	Deposit	Miscellaneous							35.22			45.75				14.50			8.25									0	98.32	98.32CR			103.72	103.72	08/08/2022	08/31/2022	07/01/2022	07/31/2022	27						00140						88867531						1						07/20/2022						106						06/20/2022						115						9						GAL							Past Due balances must be paid by 08/15/2022  in order to avoid a $50 fee and disconnection of water service.	If you would like to enroll in paperless billing or pay your bills online please visit www.eaglemountaincity.com	123154	04/01/2022		Single Graph				GAL To	31	7																		84005	0	JUL	JUN	MAY	APR	MAR	FEB	JAN	DEC	NOV	OCT	SEP	AUG		7	6	5	4	3	2	1	12	11	10	9	8	0	9	4	5	2	0	0	0	0	0	0	0	0	0	0	0	0	0	0	0	0	0	0	0	0	0	
123154	093	EAGLE HEIGHTS VILLAGE*		 EAGLE HEIGHTS VILLAGE*		2587 E POWELL WAY				EAGLE MOUNTAIN UT 84005-2300	UT	84005-2300	87	2675 E POWELL WAY #A/ EHV 103 A	Water			Sewer	Penalty			Garbage Service	Garbage Fuel Charge		Storm Drain	Deployed Abatement	Deposit	Miscellaneous							44.94			45.75				15.75			8.25									0	114.69	114.69CR			114.69	114.69	08/08/2022	08/31/2022	07/01/2022	07/31/2022	27						00103						88495291						1						07/20/2022						319						06/20/2022						337						18						GAL							Past Due balances must be paid by 08/15/2022  in order to avoid a $50 fee and disconnection of water service.	If you would like to enroll in paperless billing or pay your bills online please visit www.eaglemountaincity.com	123154	04/01/2022		Single Graph				GAL To	31	7																		84005	0	JUL	JUN	MAY	APR	MAR	FEB	JAN	DEC	NOV	OCT	SEP	AUG		7	6	5	4	3	2	1	12	11	10	9	8	0	18	18	14	3	0	0	0	0	0	0	0	0	0	0	0	0	0	0	0	0	0	0	0	0	0	
123154	142	EAGLE HEIGHTS VILLAGE*		 EAGLE HEIGHTS VILLAGE*		2587 E POWELL WAY				EAGLE MOUNTAIN UT 84005-2300	UT	84005-2300	87	3828 N OAK BLVD #B / EHV 122 B	Water			Sewer	Penalty			Garbage Service	Garbage Fuel Charge		Storm Drain	Deployed Abatement	Deposit	Miscellaneous							38.46			45.75				14.50			8.25									0	108.04	108.04CR			106.96	106.96	08/08/2022	08/31/2022	07/01/2022	07/31/2022	27						00122						88920433						1						07/20/2022						145						06/20/2022						157						12						GAL							Past Due balances must be paid by 08/15/2022  in order to avoid a $50 fee and disconnection of water service.	If you would like to enroll in paperless billing or pay your bills online please visit www.eaglemountaincity.com	123154	04/01/2022		Single Graph				GAL To	31	7																		84005	0	JUL	JUN	MAY	APR	MAR	FEB	JAN	DEC	NOV	OCT	SEP	AUG		7	6	5	4	3	2	1	12	11	10	9	8	0	12	13	9	2	0	0	0	0	0	0	0	0	0	0	0	0	0	0	0	0	0	0	0	0	0	
123154	151	EAGLE HEIGHTS VILLAGE*		 EAGLE HEIGHTS VILLAGE*		2587 E POWELL WAY				EAGLE MOUNTAIN UT 84005-2300	UT	84005-2300	87	3889 N OAK BLVD #A / EHV 126 A	Water			Sewer	Penalty			Garbage Service	Garbage Fuel Charge		Storm Drain	Deployed Abatement	Deposit	Miscellaneous							36.30			45.75				14.50			8.25									0	105.88	105.88CR			104.80	104.80	08/08/2022	08/31/2022	07/01/2022	07/31/2022	27						00126						88844533						1						07/20/2022						108						06/20/2022						118						10						GAL							Past Due balances must be paid by 08/15/2022  in order to avoid a $50 fee and disconnection of water service.	If you would like to enroll in paperless billing or pay your bills online please visit www.eaglemountaincity.com	123154	04/01/2022		Single Graph				GAL To	31	7																		84005	0	JUL	JUN	MAY	APR	MAR	FEB	JAN	DEC	NOV	OCT	SEP	AUG		7	6	5	4	3	2	1	12	11	10	9	8	0	10	11	7	2	0	0	0	0	0	0	0	0	0	0	0	0	0	0	0	0	0	0	0	0	0	
123154	177	EAGLE HEIGHTS VILLAGE*		 EAGLE HEIGHTS VILLAGE*		2587 E POWELL WAY				EAGLE MOUNTAIN UT 84005-2300	UT	84005-2300	87	3917 N STALLION ST #B/ EHV 139 B	Water			Sewer	Penalty			Garbage Service	Garbage Fuel Charge		Storm Drain	Deployed Abatement	Deposit	Miscellaneous							35.22			45.75				14.50			8.25									0	98.32	98.32CR			103.72	103.72	08/08/2022	08/31/2022	07/01/2022	07/31/2022	27						00139						88867532						1						07/20/2022						75						06/20/2022						84						9						GAL							Past Due balances must be paid by 08/15/2022  in order to avoid a $50 fee and disconnection of water service.	If you would like to enroll in paperless billing or pay your bills online please visit www.eaglemountaincity.com	123154	04/01/2022		Single Graph				GAL To	31	7																		84005	0	JUL	JUN	MAY	APR	MAR	FEB	JAN	DEC	NOV	OCT	SEP	AUG		7	6	5	4	3	2	1	12	11	10	9	8	0	9	4	22	2	0	0	0	0	0	0	0	0	0	0	0	0	0	0	0	0	0	0	0	0	0	
123154	163	EAGLE HEIGHTS VILLAGE*		 EAGLE HEIGHTS VILLAGE*		2587 E POWELL WAY				EAGLE MOUNTAIN UT 84005-2300	UT	84005-2300	87	3894 N STALLION ST #B / EHV 132 B	Water			Sewer	Penalty			Garbage Service	Garbage Fuel Charge		Storm Drain	Deployed Abatement	Deposit	Miscellaneous							34.14			45.75				20.75			8.25									0	108.89	108.89CR			108.89	108.89	08/08/2022	08/31/2022	07/01/2022	07/31/2022	27						00132						89174150						1						07/20/2022						131						06/20/2022						139						8						GAL							Past Due balances must be paid by 08/15/2022  in order to avoid a $50 fee and disconnection of water service.	If you would like to enroll in paperless billing or pay your bills online please visit www.eaglemountaincity.com	123154	04/01/2022		Single Graph				GAL To	31	7																		84005	0	JUL	JUN	MAY	APR	MAR	FEB	JAN	DEC	NOV	OCT	SEP	AUG		7	6	5	4	3	2	1	12	11	10	9	8	0	8	8	10	5	0	0	0	0	0	0	0	0	0	0	0	0	0	0	0	0	0	0	0	0	0	
123154	083	EAGLE HEIGHTS VILLAGE*		 EAGLE HEIGHTS VILLAGE*		2587 E POWELL WAY				EAGLE MOUNTAIN UT 84005-2300	UT	84005-2300	87	2635 E POWELL WAY #A	Water			Sewer	Penalty			Garbage Service	Garbage Fuel Charge		Storm Drain	Deployed Abatement	Deposit	Miscellaneous							38.46			45.75				9.50			8.25									0	101.96	101.96CR			101.96	101.96	08/08/2022	08/31/2022	07/01/2022	07/31/2022	27						00101						88495285						1						07/20/2022						280						06/20/2022						292						12						GAL							Past Due balances must be paid by 08/15/2022  in order to avoid a $50 fee and disconnection of water service.	If you would like to enroll in paperless billing or pay your bills online please visit www.eaglemountaincity.com	123154	04/01/2022		Single Graph				GAL To	31	7																		84005	0	JUL	JUN	MAY	APR	MAR	FEB	JAN	DEC	NOV	OCT	SEP	AUG		7	6	5	4	3	2	1	12	11	10	9	8	0	12	12	8	2	0	0	0	0	0	0	0	0	0	0	0	0	0	0	0	0	0	0	0	0	0	
123154	147	EAGLE HEIGHTS VILLAGE*		 EAGLE HEIGHTS VILLAGE*		2587 E POWELL WAY				EAGLE MOUNTAIN UT 84005-2300	UT	84005-2300	87	3869 N OAK BLVD #A / EHV 125 A	Water			Sewer	Penalty			Garbage Service	Garbage Fuel Charge		Storm Drain	Deployed Abatement	Deposit	Miscellaneous							43.86			45.75				15.75			8.25									0	113.61	113.61CR			113.61	113.61	08/08/2022	08/31/2022	07/01/2022	07/31/2022	27						00125						88844550						1						07/20/2022						241						06/20/2022						258						17						GAL							Past Due balances must be paid by 08/15/2022  in order to avoid a $50 fee and disconnection of water service.	If you would like to enroll in paperless billing or pay your bills online please visit www.eaglemountaincity.com	123154	04/01/2022		Single Graph				GAL To	31	7																		84005	0	JUL	JUN	MAY	APR	MAR	FEB	JAN	DEC	NOV	OCT	SEP	AUG		7	6	5	4	3	2	1	12	11	10	9	8	0	17	17	12	7	0	0	0	0	0	0	0	0	0	0	0	0	0	0	0	0	0	0	0	0	0	
123154	123	EAGLE HEIGHTS VILLAGE*		 EAGLE HEIGHTS VILLAGE*		2587 E POWELL WAY				EAGLE MOUNTAIN UT 84005-2300	UT	84005-2300	87	3905 N EAGLE MEADOWS DR #A / EHV 113 A	Water			Sewer	Penalty			Garbage Service	Garbage Fuel Charge		Storm Drain	Deployed Abatement	Deposit	Miscellaneous							36.30			45.75				9.50			8.25									0	3.24	3.24CR			99.80	99.80	08/08/2022	08/31/2022	07/01/2022	07/31/2022	27						00113						88824033						1						07/20/2022						128						06/20/2022						138						10						GAL							Past Due balances must be paid by 08/15/2022  in order to avoid a $50 fee and disconnection of water service.	If you would like to enroll in paperless billing or pay your bills online please visit www.eaglemountaincity.com	123154	04/01/2022		Single Graph				GAL To	31	7																		84005	0	JUL	JUN	MAY	APR	MAR	FEB	JAN	DEC	NOV	OCT	SEP	AUG		7	6	5	4	3	2	1	12	11	10	9	8	0	10	10	7	2	0	0	0	0	0	0	0	0	0	0	0	0	0	0	0	0	0	0	0	0	0	
123154	111	EAGLE HEIGHTS VILLAGE*		 EAGLE HEIGHTS VILLAGE*		2587 E POWELL WAY				EAGLE MOUNTAIN UT 84005-2300	UT	84005-2300	87	3862 N EAGLE MEADOWS DR #A / EHV 107 A	Water			Sewer	Penalty			Garbage Service	Garbage Fuel Charge		Storm Drain	Deployed Abatement	Deposit	Miscellaneous							38.46			45.75				15.75			8.25									0	107.55	107.55CR			108.21	108.21	08/08/2022	08/31/2022	07/01/2022	07/31/2022	27						00107						88228310						1						07/20/2022						247						06/20/2022						259						12						GAL							Past Due balances must be paid by 08/15/2022  in order to avoid a $50 fee and disconnection of water service.	If you would like to enroll in paperless billing or pay your bills online please visit www.eaglemountaincity.com	123154	04/01/2022		Single Graph				GAL To	31	7																		84005	0	JUL	JUN	MAY	APR	MAR	FEB	JAN	DEC	NOV	OCT	SEP	AUG		7	6	5	4	3	2	1	12	11	10	9	8	0	12	14	12	2	0	0	0	0	0	0	0	0	0	0	0	0	0	0	0	0	0	0	0	0	0	
123154	148	EAGLE HEIGHTS VILLAGE*		 EAGLE HEIGHTS VILLAGE*		2587 E POWELL WAY				EAGLE MOUNTAIN UT 84005-2300	UT	84005-2300	87	3869 N OAK BLVD #B / EHV 125 B	Water			Sewer	Penalty			Garbage Service	Garbage Fuel Charge		Storm Drain	Deployed Abatement	Deposit	Miscellaneous							41.70			45.75				15.75			8.25									0	115.77	115.77CR			111.45	111.45	08/08/2022	08/31/2022	07/01/2022	07/31/2022	27						00125						888444529						1						07/20/2022						285						06/20/2022						300						15						GAL							Past Due balances must be paid by 08/15/2022  in order to avoid a $50 fee and disconnection of water service.	If you would like to enroll in paperless billing or pay your bills online please visit www.eaglemountaincity.com	123154	04/01/2022		Single Graph				GAL To	31	7																		84005	0	JUL	JUN	MAY	APR	MAR	FEB	JAN	DEC	NOV	OCT	SEP	AUG		7	6	5	4	3	2	1	12	11	10	9	8	0	15	19	9	10	0	0	0	0	0	0	0	0	0	0	0	0	0	0	0	0	0	0	0	0	0	
123154	160	EAGLE HEIGHTS VILLAGE*		 EAGLE HEIGHTS VILLAGE*		2587 E POWELL WAY				EAGLE MOUNTAIN UT 84005-2300	UT	84005-2300	87	3914 N STALLION ST #A / EHV 131 A	Water			Sewer	Penalty			Garbage Service	Garbage Fuel Charge		Storm Drain	Deployed Abatement	Deposit	Miscellaneous							31.98			45.75				9.50			8.25									0	94.40	94.40CR			95.48	95.48	08/08/2022	08/31/2022	07/01/2022	07/31/2022	27						00131						89174121						1						07/20/2022						93						06/20/2022						99						6						GAL							Past Due balances must be paid by 08/15/2022  in order to avoid a $50 fee and disconnection of water service.	If you would like to enroll in paperless billing or pay your bills online please visit www.eaglemountaincity.com	123154	04/01/2022		Single Graph				GAL To	31	7																		84005	0	JUL	JUN	MAY	APR	MAR	FEB	JAN	DEC	NOV	OCT	SEP	AUG		7	6	5	4	3	2	1	12	11	10	9	8	0	6	5	7	2	0	0	0	0	0	0	0	0	0	0	0	0	0	0	0	0	0	0	0	0	0	
123154	132	EAGLE HEIGHTS VILLAGE*		 EAGLE HEIGHTS VILLAGE*		2587 E POWELL WAY				EAGLE MOUNTAIN UT 84005-2300	UT	84005-2300	87	3928 N OAK BLVD #B/ EHV 117 B	Water			Sewer	Penalty			Garbage Service	Garbage Fuel Charge		Storm Drain	Deployed Abatement	Deposit	Miscellaneous							38.46			45.75				9.50			8.25									0	100.88	100.88CR			101.96	101.96	08/08/2022	08/31/2022	07/01/2022	07/31/2022	27						00117						88495310						1						07/20/2022						133						06/20/2022						145						12						GAL							Past Due balances must be paid by 08/15/2022  in order to avoid a $50 fee and disconnection of water service.	If you would like to enroll in paperless billing or pay your bills online please visit www.eaglemountaincity.com	123154	04/01/2022		Single Graph				GAL To	31	7																		84005	0	JUL	JUN	MAY	APR	MAR	FEB	JAN	DEC	NOV	OCT	SEP	AUG		7	6	5	4	3	2	1	12	11	10	9	8	0	12	11	5	4	0	0	0	0	0	0	0	0	0	0	0	0	0	0	0	0	0	0	0	0	0	
123154	102	EAGLE HEIGHTS VILLAGE*		 EAGLE HEIGHTS VILLAGE*		2587 E POWELL WAY				EAGLE MOUNTAIN UT 84005-2300	UT	84005-2300	87	3790 N OAK BLVD/ EHV 210 B	Water			Sewer	Penalty			Garbage Service	Garbage Fuel Charge		Storm Drain	Deployed Abatement	Deposit	Miscellaneous							46.29			45.75				9.50			8.25									0	89.00	89.00CR			109.79	109.79	08/08/2022	08/31/2022	07/01/2022	07/31/2022	85						0210B						21180980						1						07/20/2022						0						06/02/2022						19						19						GAL							Past Due balances must be paid by 08/15/2022  in order to avoid a $50 fee and disconnection of water service.	If you would like to enroll in paperless billing or pay your bills online please visit www.eaglemountaincity.com	123154	04/01/2022		Single Graph				GAL To	31	7																		84005	0	JUL	JUN	MAY	APR	MAR	FEB	JAN	DEC	NOV	OCT	SEP	AUG		7	6	5	4	3	2	1	12	11	10	9	8	0	19	0	0	0	0	0	0	0	0	0	0	0	0	0	0	0	0	0	0	0	0	0	0	0	0	
123154	162	EAGLE HEIGHTS VILLAGE*		 EAGLE HEIGHTS VILLAGE*		2587 E POWELL WAY				EAGLE MOUNTAIN UT 84005-2300	UT	84005-2300	87	3894 N STALLION ST #A / EHV 132 A	Water			Sewer	Penalty			Garbage Service	Garbage Fuel Charge		Storm Drain	Deployed Abatement	Deposit	Miscellaneous							39.54			45.75				14.50			8.25									0	106.96	106.96CR			108.04	108.04	08/08/2022	08/31/2022	07/01/2022	07/31/2022	27						00132						89174151						1						07/20/2022						140						06/20/2022						153						13						GAL							Past Due balances must be paid by 08/15/2022  in order to avoid a $50 fee and disconnection of water service.	If you would like to enroll in paperless billing or pay your bills online please visit www.eaglemountaincity.com	123154	04/01/2022		Single Graph				GAL To	31	7																		84005	0	JUL	JUN	MAY	APR	MAR	FEB	JAN	DEC	NOV	OCT	SEP	AUG		7	6	5	4	3	2	1	12	11	10	9	8	0	13	12	13	5	0	0	0	0	0	0	0	0	0	0	0	0	0	0	0	0	0	0	0	0	0	
123154	136	EAGLE HEIGHTS VILLAGE*		 EAGLE HEIGHTS VILLAGE*		2587 E POWELL WAY				EAGLE MOUNTAIN UT 84005-2300	UT	84005-2300	87	3888 N OAK BLVD #B / EHV 119 B	Water			Sewer	Penalty			Garbage Service	Garbage Fuel Charge		Storm Drain	Deployed Abatement	Deposit	Miscellaneous							43.86			45.75				9.50			8.25									0	107.36	107.36CR			107.36	107.36	08/08/2022	08/31/2022	07/01/2022	07/31/2022	27						00119						88920378						1						07/20/2022						218						06/20/2022						235						17						GAL							Past Due balances must be paid by 08/15/2022  in order to avoid a $50 fee and disconnection of water service.	If you would like to enroll in paperless billing or pay your bills online please visit www.eaglemountaincity.com	123154	04/01/2022		Single Graph				GAL To	31	7																		84005	0	JUL	JUN	MAY	APR	MAR	FEB	JAN	DEC	NOV	OCT	SEP	AUG		7	6	5	4	3	2	1	12	11	10	9	8	0	17	17	11	7	0	0	0	0	0	0	0	0	0	0	0	0	0	0	0	0	0	0	0	0	0	
123154	110	EAGLE HEIGHTS VILLAGE*		 EAGLE HEIGHTS VILLAGE*		2587 E POWELL WAY				EAGLE MOUNTAIN UT 84005-2300	UT	84005-2300	87	3882 N EAGLE MEADOWS DR #B / EHV 106 B	Water			Sewer	Penalty			Garbage Service	Garbage Fuel Charge		Storm Drain	Deployed Abatement	Deposit	Miscellaneous							35.22			45.75				14.50			8.25									0	103.72	103.72CR			103.72	103.72	08/08/2022	08/31/2022	07/01/2022	07/31/2022	27						00106						88495214						1						07/20/2022						223						06/20/2022						232						9						GAL							Past Due balances must be paid by 08/15/2022  in order to avoid a $50 fee and disconnection of water service.	If you would like to enroll in paperless billing or pay your bills online please visit www.eaglemountaincity.com	123154	04/01/2022		Single Graph				GAL To	31	7																		84005	0	JUL	JUN	MAY	APR	MAR	FEB	JAN	DEC	NOV	OCT	SEP	AUG		7	6	5	4	3	2	1	12	11	10	9	8	0	9	9	7	2	0	0	0	0	0	0	0	0	0	0	0	0	0	0	0	0	0	0	0	0	0	
123154	141	EAGLE HEIGHTS VILLAGE*		 EAGLE HEIGHTS VILLAGE*		2587 E POWELL WAY				EAGLE MOUNTAIN UT 84005-2300	UT	84005-2300	87	3828 N OAK BLVD #A/ EHV 122 A	Water			Sewer	Penalty			Garbage Service	Garbage Fuel Charge		Storm Drain	Deployed Abatement	Deposit	Miscellaneous							34.14			45.75				14.50			8.25									0	100.03	100.03CR			102.64	102.64	08/08/2022	08/31/2022	07/01/2022	07/31/2022	27						00122						88920428						1						07/20/2022						106						06/20/2022						114						8						GAL							Past Due balances must be paid by 08/15/2022  in order to avoid a $50 fee and disconnection of water service.	If you would like to enroll in paperless billing or pay your bills online please visit www.eaglemountaincity.com	123154	04/01/2022		Single Graph				GAL To	31	7																		84005	0	JUL	JUN	MAY	APR	MAR	FEB	JAN	DEC	NOV	OCT	SEP	AUG		7	6	5	4	3	2	1	12	11	10	9	8	0	8	8	7	2	0	0	0	0	0	0	0	0	0	0	0	0	0	0	0	0	0	0	0	0	0	
123154	090	EAGLE HEIGHTS VILLAGE*		 EAGLE HEIGHTS VILLAGE*		2587 E POWELL WAY				EAGLE MOUNTAIN UT 84005-2300	UT	84005-2300	87	2655 E POWELL WAY #A/ EHV 102 A	Water			Sewer	Penalty			Garbage Service	Garbage Fuel Charge		Storm Drain	Deployed Abatement	Deposit	Miscellaneous							42.78			45.75				14.50			8.25									0	111.28	111.28CR			111.28	111.28	08/08/2022	08/31/2022	07/01/2022	07/31/2022	27						00102						88228312						1						07/20/2022						369						06/20/2022						385						16						GAL							Past Due balances must be paid by 08/15/2022  in order to avoid a $50 fee and disconnection of water service.	If you would like to enroll in paperless billing or pay your bills online please visit www.eaglemountaincity.com	123154	04/01/2022		Single Graph				GAL To	31	7																		84005	0	JUL	JUN	MAY	APR	MAR	FEB	JAN	DEC	NOV	OCT	SEP	AUG		7	6	5	4	3	2	1	12	11	10	9	8	0	16	16	13	5	0	0	0	0	0	0	0	0	0	0	0	0	0	0	0	0	0	0	0	0	0	
123154	167	EAGLE HEIGHTS VILLAGE*		 EAGLE HEIGHTS VILLAGE*		2587 E POWELL WAY				EAGLE MOUNTAIN UT 84005-2300	UT	84005-2300	87	3844 N STALLION ST #B / EHV 134 B	Water			Sewer	Penalty			Garbage Service	Garbage Fuel Charge		Storm Drain	Deployed Abatement	Deposit	Miscellaneous							48.18			45.75				14.50			8.25									0	117.76	117.76CR			116.68	116.68	08/08/2022	08/31/2022	07/01/2022	07/31/2022	27						00134						88979488						1						07/20/2022						101						06/20/2022						122						21						GAL							Past Due balances must be paid by 08/15/2022  in order to avoid a $50 fee and disconnection of water service.	If you would like to enroll in paperless billing or pay your bills online please visit www.eaglemountaincity.com	123154	04/01/2022		Single Graph				GAL To	31	7																		84005	0	JUL	JUN	MAY	APR	MAR	FEB	JAN	DEC	NOV	OCT	SEP	AUG		7	6	5	4	3	2	1	12	11	10	9	8	0	21	22	3	2	0	0	0	0	0	0	0	0	0	0	0	0	0	0	0	0	0	0	0	0	0	
123154	116	EAGLE HEIGHTS VILLAGE*		 EAGLE HEIGHTS VILLAGE*		2587 E POWELL WAY				EAGLE MOUNTAIN UT 84005-2300	UT	84005-2300	87	3842 N EAGLE MEADOWS DR #B / EHV 108 B	Water			Sewer	Penalty			Garbage Service	Garbage Fuel Charge		Storm Drain	Deployed Abatement	Deposit	Miscellaneous							40.62			45.75				14.50			8.25									0	110.20	110.20CR			109.12	109.12	08/08/2022	08/31/2022	07/01/2022	07/31/2022	27						00108						88228306						1						07/20/2022						240						06/20/2022						254						14						GAL							Past Due balances must be paid by 08/15/2022  in order to avoid a $50 fee and disconnection of water service.	If you would like to enroll in paperless billing or pay your bills online please visit www.eaglemountaincity.com	123154	04/01/2022		Single Graph				GAL To	31	7																		84005	0	JUL	JUN	MAY	APR	MAR	FEB	JAN	DEC	NOV	OCT	SEP	AUG		7	6	5	4	3	2	1	12	11	10	9	8	0	14	15	2	1	0	0	0	0	0	0	0	0	0	0	0	0	0	0	0	0	0	0	0	0	0	
123154	037	EAGLE HEIGHTS VILLAGE*		 EAGLE HEIGHTS VILLAGE*		2587 E POWELL WAY				EAGLE MOUNTAIN UT 84005-2300	UT	84005-2300	87	3909 N OAK BLVD #A / EHV 127 A	Water			Sewer	Penalty			Garbage Service	Garbage Fuel Charge		Storm Drain	Deployed Abatement	Deposit	Miscellaneous							47.10			45.75				20.75			8.25									0	130.49	130.49CR			121.85	121.85	08/08/2022	08/31/2022	07/01/2022	07/31/2022	27						00127						88844530						1						07/20/2022						187						06/20/2022						207						20						GAL							Past Due balances must be paid by 08/15/2022  in order to avoid a $50 fee and disconnection of water service.	If you would like to enroll in paperless billing or pay your bills online please visit www.eaglemountaincity.com	123154	04/01/2022		Single Graph				GAL To	31	7																		84005	0	JUL	JUN	MAY	APR	MAR	FEB	JAN	DEC	NOV	OCT	SEP	AUG		7	6	5	4	3	2	1	12	11	10	9	8	0	20	28	0	0	0	0	0	0	0	0	0	0	0	0	0	0	0	0	0	0	0	0	2	0	0	
123154	135	EAGLE HEIGHTS VILLAGE*		 EAGLE HEIGHTS VILLAGE*		2587 E POWELL WAY				EAGLE MOUNTAIN UT 84005-2300	UT	84005-2300	87	3888 N OAK BLVD #A / EHV 119 A	Water			Sewer	Penalty			Garbage Service	Garbage Fuel Charge		Storm Drain	Deployed Abatement	Deposit	Miscellaneous							37.38			45.75				9.50			8.25									0	105.20	105.20CR			100.88	100.88	08/08/2022	08/31/2022	07/01/2022	07/31/2022	27						00119						88920374						1						07/20/2022						119						06/20/2022						130						11						GAL							Past Due balances must be paid by 08/15/2022  in order to avoid a $50 fee and disconnection of water service.	If you would like to enroll in paperless billing or pay your bills online please visit www.eaglemountaincity.com	123154	04/01/2022		Single Graph				GAL To	31	7																		84005	0	JUL	JUN	MAY	APR	MAR	FEB	JAN	DEC	NOV	OCT	SEP	AUG		7	6	5	4	3	2	1	12	11	10	9	8	0	11	15	9	2	0	0	0	0	0	0	0	0	0	0	0	0	0	0	0	0	0	0	0	0	0	
123154	143	EAGLE HEIGHTS VILLAGE*		 EAGLE HEIGHTS VILLAGE*		2587 E POWELL WAY				EAGLE MOUNTAIN UT 84005-2300	UT	84005-2300	87	3819 N OAK BLVD #A / EHV 123 A	Water			Sewer	Penalty			Garbage Service	Garbage Fuel Charge		Storm Drain	Deployed Abatement	Deposit	Miscellaneous							36.30			45.75				14.50			8.25									0	104.80	104.80CR			104.80	104.80	08/08/2022	08/31/2022	07/01/2022	07/31/2022	27						00123						88920388						1						07/20/2022						93						06/20/2022						103						10						GAL							Past Due balances must be paid by 08/15/2022  in order to avoid a $50 fee and disconnection of water service.	If you would like to enroll in paperless billing or pay your bills online please visit www.eaglemountaincity.com	123154	04/01/2022		Single Graph				GAL To	31	7																		84005	0	JUL	JUN	MAY	APR	MAR	FEB	JAN	DEC	NOV	OCT	SEP	AUG		7	6	5	4	3	2	1	12	11	10	9	8	0	10	10	6	3	0	0	0	0	0	0	0	0	0	0	0	0	0	0	0	0	0	0	0	0	0	
123154	125	EAGLE HEIGHTS VILLAGE*		 EAGLE HEIGHTS VILLAGE*		2587 E POWELL WAY				EAGLE MOUNTAIN UT 84005-2300	UT	84005-2300	87	3925 N EAGLE MEADOWS DR #A / EHV 114 A	Water			Sewer	Penalty			Garbage Service	Garbage Fuel Charge		Storm Drain	Deployed Abatement	Deposit	Miscellaneous							35.22			45.75				14.50			8.25									0	104.80	104.80CR			103.72	103.72	08/08/2022	08/31/2022	07/01/2022	07/31/2022	27						00114						88824027						1						07/18/2022						176						06/20/2022						185						9						GAL							Past Due balances must be paid by 08/15/2022  in order to avoid a $50 fee and disconnection of water service.	If you would like to enroll in paperless billing or pay your bills online please visit www.eaglemountaincity.com	123154	04/01/2022		Single Graph				GAL To	31	7																		84005	0	JUL	JUN	MAY	APR	MAR	FEB	JAN	DEC	NOV	OCT	SEP	AUG		7	6	5	4	3	2	1	12	11	10	9	8	0	9	10	9	3	0	0	0	0	0	0	0	0	0	0	0	0	0	0	0	0	0	0	0	0	0	
123154	174	EAGLE HEIGHTS VILLAGE*		 EAGLE HEIGHTS VILLAGE*		2587 E POWELL WAY				EAGLE MOUNTAIN UT 84005-2300	UT	84005-2300	87	3897 N STALLION ST #A/ EHV 138 A	Water			Sewer	Penalty			Garbage Service	Garbage Fuel Charge		Storm Drain	Deployed Abatement	Deposit	Miscellaneous							37.38			45.75				14.50			8.25									0	108.04	108.04CR			105.88	105.88	08/08/2022	08/31/2022	07/01/2022	07/31/2022	27						00138						88920408						1						07/20/2022						182						06/20/2022						193						11						GAL							Past Due balances must be paid by 08/15/2022  in order to avoid a $50 fee and disconnection of water service.	If you would like to enroll in paperless billing or pay your bills online please visit www.eaglemountaincity.com	123154	04/01/2022		Single Graph				GAL To	31	7																		84005	0	JUL	JUN	MAY	APR	MAR	FEB	JAN	DEC	NOV	OCT	SEP	AUG		7	6	5	4	3	2	1	12	11	10	9	8	0	11	13	11	4	0	0	0	0	0	0	0	0	0	0	0	0	0	0	0	0	0	0	0	0	0	
123154	131	EAGLE HEIGHTS VILLAGE*		 EAGLE HEIGHTS VILLAGE*		2587 E POWELL WAY				EAGLE MOUNTAIN UT 84005-2300	UT	84005-2300	87	3928 N OAK BLVD #A / EHV 117 A	Water			Sewer	Penalty			Garbage Service	Garbage Fuel Charge		Storm Drain	Deployed Abatement	Deposit	Miscellaneous							37.38			45.75				9.50			8.25									0	101.96	101.96CR			100.88	100.88	08/08/2022	08/31/2022	07/01/2022	07/31/2022	27						00117						88844496						1						07/20/2022						123						06/20/2022						134						11						GAL							Past Due balances must be paid by 08/15/2022  in order to avoid a $50 fee and disconnection of water service.	If you would like to enroll in paperless billing or pay your bills online please visit www.eaglemountaincity.com	123154	04/01/2022		Single Graph				GAL To	31	7																		84005	0	JUL	JUN	MAY	APR	MAR	FEB	JAN	DEC	NOV	OCT	SEP	AUG		7	6	5	4	3	2	1	12	11	10	9	8	0	11	12	9	3	0	0	0	0	0	0	0	0	0	0	0	0	0	0	0	0	0	0	0	0	0	
123154	086	EAGLE HEIGHTS VILLAGE*		 EAGLE HEIGHTS VILLAGE*		2587 E POWELL WAY				EAGLE MOUNTAIN UT 84005-2300	UT	84005-2300	87	2635 E POWELL WAY #B/ EHV 101 B	Water			Sewer	Penalty			Garbage Service	Garbage Fuel Charge		Storm Drain	Deployed Abatement	Deposit	Miscellaneous							96.84			45.75				20.75			8.25									0	175.01	175.01CR			171.59	171.59	08/08/2022	08/31/2022	07/01/2022	07/31/2022	27						00101						88495286						1						07/20/2022						443						06/20/2022						509						66						GAL							Past Due balances must be paid by 08/15/2022  in order to avoid a $50 fee and disconnection of water service.	If you would like to enroll in paperless billing or pay your bills online please visit www.eaglemountaincity.com	123154	04/01/2022		Single Graph				GAL To	31	7																		84005	0	JUL	JUN	MAY	APR	MAR	FEB	JAN	DEC	NOV	OCT	SEP	AUG		7	6	5	4	3	2	1	12	11	10	9	8	0	66	69	47	5	0	0	0	0	0	0	0	0	0	0	0	0	0	0	0	0	0	0	0	0	0	
123154	170	EAGLE HEIGHTS VILLAGE*		 EAGLE HEIGHTS VILLAGE*		2587 E POWELL WAY				EAGLE MOUNTAIN UT 84005-2300	UT	84005-2300	87	3857 N STALLION ST #B/EHV 136 B	Water			Sewer	Penalty			Garbage Service	Garbage Fuel Charge		Storm Drain	Deployed Abatement	Deposit	Miscellaneous							48.18			45.75				9.50			8.25									0	108.44	108.44CR			111.68	111.68	08/08/2022	08/31/2022	07/01/2022	07/31/2022	27						00136						88867517						1						07/20/2022						166						06/20/2022						187						21						GAL							Past Due balances must be paid by 08/15/2022  in order to avoid a $50 fee and disconnection of water service.	If you would like to enroll in paperless billing or pay your bills online please visit www.eaglemountaincity.com	123154	04/01/2022		Single Graph				GAL To	31	7																		84005	0	JUL	JUN	MAY	APR	MAR	FEB	JAN	DEC	NOV	OCT	SEP	AUG		7	6	5	4	3	2	1	12	11	10	9	8	0	21	18	14	6	0	0	0	0	0	0	0	0	0	0	0	0	0	0	0	0	0	0	0	0	0	
123154	176	EAGLE HEIGHTS VILLAGE*		 EAGLE HEIGHTS VILLAGE*		2587 E POWELL WAY				EAGLE MOUNTAIN UT 84005-2300	UT	84005-2300	87	3917 N STALLION ST #A/ EHV 139 A	Water			Sewer	Penalty			Garbage Service	Garbage Fuel Charge		Storm Drain	Deployed Abatement	Deposit	Miscellaneous							46.02			45.75				14.50			8.25									0	108.04	108.04CR			114.52	114.52	08/08/2022	08/31/2022	07/01/2022	07/31/2022	27						00139						88867536						1						07/20/2022						185						06/20/2022						204						19						GAL							Past Due balances must be paid by 08/15/2022  in order to avoid a $50 fee and disconnection of water service.	If you would like to enroll in paperless billing or pay your bills online please visit www.eaglemountaincity.com	123154	04/01/2022		Single Graph				GAL To	31	7																		84005	0	JUL	JUN	MAY	APR	MAR	FEB	JAN	DEC	NOV	OCT	SEP	AUG		7	6	5	4	3	2	1	12	11	10	9	8	0	19	13	10	7	0	0	0	0	0	0	0	0	0	0	0	0	0	0	0	0	0	0	0	0	0	
123154	074	EAGLE HEIGHTS VILLAGE*		 EAGLE HEIGHTS VILLAGE*		2587 E POWELL WAY				EAGLE MOUNTAIN UT 84005-2300	UT	84005-2300	87	3885 N EAGLE MEADOWS DR #B / EHV 112 B	Water			Sewer	Penalty			Garbage Service	Garbage Fuel Charge		Storm Drain	Deployed Abatement	Deposit	Miscellaneous							34.14			45.75				9.50			8.25									0	98.72	98.72CR			97.64	97.64	08/08/2022	08/31/2022	07/01/2022	07/31/2022	27						00112						88824028						1						07/20/2022						167						06/20/2022						175						8						GAL							Past Due balances must be paid by 08/15/2022  in order to avoid a $50 fee and disconnection of water service.	If you would like to enroll in paperless billing or pay your bills online please visit www.eaglemountaincity.com	123154	04/01/2022		Single Graph				GAL To	31	7																		84005	0	JUL	JUN	MAY	APR	MAR	FEB	JAN	DEC	NOV	OCT	SEP	AUG		7	6	5	4	3	2	1	12	11	10	9	8	0	8	9	7	0	0	0	0	0	0	0	0	0	0	0	0	0	0	0	0	0	0	0	0	0	0	
123154	175	EAGLE HEIGHTS VILLAGE*		 EAGLE HEIGHTS VILLAGE*		2587 E POWELL WAY				EAGLE MOUNTAIN UT 84005-2300	UT	84005-2300	87	3897 N STALLION ST #B/ EHV 138 B	Water			Sewer	Penalty			Garbage Service	Garbage Fuel Charge		Storm Drain	Deployed Abatement	Deposit	Miscellaneous							34.14			45.75				14.50			8.25									0	105.88	105.88CR			102.64	102.64	08/08/2022	08/31/2022	07/01/2022	07/31/2022	27						00138						88867537						1						07/18/2022						162						06/20/2022						170						8						GAL							Past Due balances must be paid by 08/15/2022  in order to avoid a $50 fee and disconnection of water service.	If you would like to enroll in paperless billing or pay your bills online please visit www.eaglemountaincity.com	123154	04/01/2022		Single Graph				GAL To	31	7																		84005	0	JUL	JUN	MAY	APR	MAR	FEB	JAN	DEC	NOV	OCT	SEP	AUG		7	6	5	4	3	2	1	12	11	10	9	8	0	8	11	9	5	0	0	0	0	0	0	0	0	0	0	0	0	0	0	0	0	0	0	0	0	0	
123154	097	EAGLE HEIGHTS VILLAGE*		 EAGLE HEIGHTS VILLAGE*		2587 E POWELL WAY				EAGLE MOUNTAIN UT 84005-2300	UT	84005-2300	87	3922 N EAGLE MEADOWS DR #B / EHV 104 B	Water			Sewer	Penalty			Garbage Service	Garbage Fuel Charge		Storm Drain	Deployed Abatement	Deposit	Miscellaneous							36.30			45.75				14.50			8.25									0	105.88	105.88CR			104.80	104.80	08/08/2022	08/31/2022	07/01/2022	07/31/2022	27						00104						88495287						1						07/20/2022						298						06/20/2022						308						10						GAL							Past Due balances must be paid by 08/15/2022  in order to avoid a $50 fee and disconnection of water service.	If you would like to enroll in paperless billing or pay your bills online please visit www.eaglemountaincity.com	123154	04/01/2022		Single Graph				GAL To	31	7																		84005	0	JUL	JUN	MAY	APR	MAR	FEB	JAN	DEC	NOV	OCT	SEP	AUG		7	6	5	4	3	2	1	12	11	10	9	8	0	10	11	9	4	0	0	0	0	0	0	0	0	0	0	0	0	0	0	0	0	0	0	0	0	0	
123154	172	EAGLE HEIGHTS VILLAGE*		 EAGLE HEIGHTS VILLAGE*		2587 E POWELL WAY				EAGLE MOUNTAIN UT 84005-2300	UT	84005-2300	87	3877 N STALLION ST #A/ EHV 137 A	Water			Sewer	Penalty			Garbage Service	Garbage Fuel Charge		Storm Drain	Deployed Abatement	Deposit	Miscellaneous							36.30			45.75				9.50			8.25									0	99.80	99.80CR			99.80	99.80	08/08/2022	08/31/2022	07/01/2022	07/31/2022	27						00137						88867478						1						07/20/2022						100						06/20/2022						110						10						GAL							Past Due balances must be paid by 08/15/2022  in order to avoid a $50 fee and disconnection of water service.	If you would like to enroll in paperless billing or pay your bills online please visit www.eaglemountaincity.com	123154	04/01/2022		Single Graph				GAL To	31	7																		84005	0	JUL	JUN	MAY	APR	MAR	FEB	JAN	DEC	NOV	OCT	SEP	AUG		7	6	5	4	3	2	1	12	11	10	9	8	0	10	10	6	1	0	0	0	0	0	0	0	0	0	0	0	0	0	0	0	0	0	0	0	0	0	
123154	129	EAGLE HEIGHTS VILLAGE*		 EAGLE HEIGHTS VILLAGE*		2587 E POWELL WAY				EAGLE MOUNTAIN UT 84005-2300	UT	84005-2300	87	3948 N OAK BLVD #A / EHV 116 A	Water			Sewer	Penalty			Garbage Service	Garbage Fuel Charge		Storm Drain	Deployed Abatement	Deposit	Miscellaneous							37.38			45.75				9.50			8.25									0	99.80	99.80CR			100.88	100.88	08/08/2022	08/31/2022	07/01/2022	07/31/2022	27						00116						88495309						1						07/20/2022						157						06/20/2022						168						11						GAL							Past Due balances must be paid by 08/15/2022  in order to avoid a $50 fee and disconnection of water service.	If you would like to enroll in paperless billing or pay your bills online please visit www.eaglemountaincity.com	123154	04/01/2022		Single Graph				GAL To	31	7																		84005	0	JUL	JUN	MAY	APR	MAR	FEB	JAN	DEC	NOV	OCT	SEP	AUG		7	6	5	4	3	2	1	12	11	10	9	8	0	11	10	7	3	0	0	0	0	0	0	0	0	0	0	0	0	0	0	0	0	0	0	0	0	0	
123154	140	EAGLE HEIGHTS VILLAGE*		 EAGLE HEIGHTS VILLAGE*		2587 E POWELL WAY				EAGLE MOUNTAIN UT 84005-2300	UT	84005-2300	87	3848 N OAK BLVD #B / EHV 121 B	Water			Sewer	Penalty			Garbage Service	Garbage Fuel Charge		Storm Drain	Deployed Abatement	Deposit	Miscellaneous							42.78			45.75				14.50			8.25									0	112.36	112.36CR			111.28	111.28	08/08/2022	08/31/2022	07/01/2022	07/31/2022	27						00121						88920432						1						07/20/2022						193						06/20/2022						209						16						GAL							Past Due balances must be paid by 08/15/2022  in order to avoid a $50 fee and disconnection of water service.	If you would like to enroll in paperless billing or pay your bills online please visit www.eaglemountaincity.com	123154	04/01/2022		Single Graph				GAL To	31	7																		84005	0	JUL	JUN	MAY	APR	MAR	FEB	JAN	DEC	NOV	OCT	SEP	AUG		7	6	5	4	3	2	1	12	11	10	9	8	0	16	17	12	9	0	0	0	0	0	0	0	0	0	0	0	0	0	0	0	0	0	0	0	0	0	
123154	161	EAGLE HEIGHTS VILLAGE*		 EAGLE HEIGHTS VILLAGE*		2587 E POWELL WAY				EAGLE MOUNTAIN UT 84005-2300	UT	84005-2300	87	3914 N STALLION ST #B / EHV 131 B	Water			Sewer	Penalty			Garbage Service	Garbage Fuel Charge		Storm Drain	Deployed Abatement	Deposit	Miscellaneous							33.06			45.75				14.50			8.25									0	101.56	101.56CR			101.56	101.56	08/08/2022	08/31/2022	07/01/2022	07/31/2022	27						00131						89174116						1						07/20/2022						158						06/20/2022						165						7						GAL							Past Due balances must be paid by 08/15/2022  in order to avoid a $50 fee and disconnection of water service.	If you would like to enroll in paperless billing or pay your bills online please visit www.eaglemountaincity.com	123154	04/01/2022		Single Graph				GAL To	31	7																		84005	0	JUL	JUN	MAY	APR	MAR	FEB	JAN	DEC	NOV	OCT	SEP	AUG		7	6	5	4	3	2	1	12	11	10	9	8	0	7	7	7	6	0	0	0	0	0	0	0	0	0	0	0	0	0	0	0	0	0	0	0	0	0	
123154	096	EAGLE HEIGHTS VILLAGE*		 EAGLE HEIGHTS VILLAGE*		2587 E POWELL WAY				EAGLE MOUNTAIN UT 84005-2300	UT	84005-2300	87	3922 N EAGLE MEADOWS DR #A/ EHV 104 A	Water			Sewer	Penalty			Garbage Service	Garbage Fuel Charge		Storm Drain	Deployed Abatement	Deposit	Miscellaneous							40.62			45.75				14.50			8.25									0	106.96	106.96CR			109.12	109.12	08/08/2022	08/31/2022	07/01/2022	07/31/2022	27						00104						88228311						1						07/20/2022						212						06/20/2022						226						14						GAL							Past Due balances must be paid by 08/15/2022  in order to avoid a $50 fee and disconnection of water service.	If you would like to enroll in paperless billing or pay your bills online please visit www.eaglemountaincity.com	123154	04/01/2022		Single Graph				GAL To	31	7																		84005	0	JUL	JUN	MAY	APR	MAR	FEB	JAN	DEC	NOV	OCT	SEP	AUG		7	6	5	4	3	2	1	12	11	10	9	8	0	14	12	10	4	0	0	0	0	0	0	0	0	0	0	0	0	0	0	0	0	0	0	0	0	0	
123154	169	EAGLE HEIGHTS VILLAGE*		 EAGLE HEIGHTS VILLAGE*		2587 E POWELL WAY				EAGLE MOUNTAIN UT 84005-2300	UT	84005-2300	87	3837 N STALLION ST #B/ EHV 135 B	Water			Sewer	Penalty			Garbage Service	Garbage Fuel Charge		Storm Drain	Deployed Abatement	Deposit	Miscellaneous							58.98			45.75				14.50			8.25									0	132.88	132.88CR			127.48	127.48	08/08/2022	08/31/2022	07/01/2022	07/31/2022	27						00135						88867516						1						07/20/2022						182						06/20/2022						213						31						GAL							Past Due balances must be paid by 08/15/2022  in order to avoid a $50 fee and disconnection of water service.	If you would like to enroll in paperless billing or pay your bills online please visit www.eaglemountaincity.com	123154	04/01/2022		Single Graph				GAL To	31	7																		84005	0	JUL	JUN	MAY	APR	MAR	FEB	JAN	DEC	NOV	OCT	SEP	AUG		7	6	5	4	3	2	1	12	11	10	9	8	0	31	36	14	5	0	0	0	0	0	0	0	0	0	0	0	0	0	0	0	0	0	0	0	0	0	
123154	154	EAGLE HEIGHTS VILLAGE*		 EAGLE HEIGHTS VILLAGE*		2587 E POWELL WAY				EAGLE MOUNTAIN UT 84005-2300	UT	84005-2300	87	3929 N OAK BLVD #A / EHV 128 A	Water			Sewer	Penalty			Garbage Service	Garbage Fuel Charge		Storm Drain	Deployed Abatement	Deposit	Miscellaneous							37.38			45.75				14.50			8.25									0	106.96	106.96CR			105.88	105.88	08/08/2022	08/31/2022	07/01/2022	07/31/2022	27						00128						88844567						1						07/20/2022						156						06/20/2022						167						11						GAL							Past Due balances must be paid by 08/15/2022  in order to avoid a $50 fee and disconnection of water service.	If you would like to enroll in paperless billing or pay your bills online please visit www.eaglemountaincity.com	123154	04/01/2022		Single Graph				GAL To	31	7																		84005	0	JUL	JUN	MAY	APR	MAR	FEB	JAN	DEC	NOV	OCT	SEP	AUG		7	6	5	4	3	2	1	12	11	10	9	8	0	11	12	9	4	0	0	0	0	0	0	0	0	0	0	0	0	0	0	0	0	0	0	0	0	0	
123154	152	EAGLE HEIGHTS VILLAGE*		 EAGLE HEIGHTS VILLAGE*		2587 E POWELL WAY				EAGLE MOUNTAIN UT 84005-2300	UT	84005-2300	87	3889 N OAK BLVD #B / EHV 126 B	Water			Sewer	Penalty			Garbage Service	Garbage Fuel Charge		Storm Drain	Deployed Abatement	Deposit	Miscellaneous							71.94			45.75				14.50			8.25									0	132.88	132.88CR			140.44	140.44	08/08/2022	08/31/2022	07/01/2022	07/31/2022	27						00126						88844534						1						07/20/2022						200						06/20/2022						243						43						GAL							Past Due balances must be paid by 08/15/2022  in order to avoid a $50 fee and disconnection of water service.	If you would like to enroll in paperless billing or pay your bills online please visit www.eaglemountaincity.com	123154	04/01/2022		Single Graph				GAL To	31	7																		84005	0	JUL	JUN	MAY	APR	MAR	FEB	JAN	DEC	NOV	OCT	SEP	AUG		7	6	5	4	3	2	1	12	11	10	9	8	0	43	36	17	2	0	0	0	0	0	0	0	0	0	0	0	0	0	0	0	0	0	0	0	0	0	
123154	121	EAGLE HEIGHTS VILLAGE*		 EAGLE HEIGHTS VILLAGE*		2587 E POWELL WAY				EAGLE MOUNTAIN UT 84005-2300	UT	84005-2300	87	3865 N EAGLE MEADOWS DR #B/ EHV 111 B	Water			Sewer	Penalty			Garbage Service	Garbage Fuel Charge		Storm Drain	Deployed Abatement	Deposit	Miscellaneous							37.38			45.75				14.50			8.25									0	106.96	106.96CR			105.88	105.88	08/08/2022	08/31/2022	07/01/2022	07/31/2022	27						00111						88824091						1						07/20/2022						228						06/20/2022						239						11						GAL							Past Due balances must be paid by 08/15/2022  in order to avoid a $50 fee and disconnection of water service.	If you would like to enroll in paperless billing or pay your bills online please visit www.eaglemountaincity.com	123154	04/01/2022		Single Graph				GAL To	31	7																		84005	0	JUL	JUN	MAY	APR	MAR	FEB	JAN	DEC	NOV	OCT	SEP	AUG		7	6	5	4	3	2	1	12	11	10	9	8	0	11	12	9	3	0	0	0	0	0	0	0	0	0	0	0	0	0	0	0	0	0	0	0	0	0	
123154	157	EAGLE HEIGHTS VILLAGE*		 EAGLE HEIGHTS VILLAGE*		2587 E POWELL WAY				EAGLE MOUNTAIN UT 84005-2300	UT	84005-2300	87	3949 N OAK BLVD #B / EHV 129 B	Water			Sewer	Penalty			Garbage Service	Garbage Fuel Charge		Storm Drain	Deployed Abatement	Deposit	Miscellaneous							41.70			45.75				14.50			8.25									0	109.12	109.12CR			110.20	110.20	08/08/2022	08/31/2022	07/01/2022	07/31/2022	27						00129						88844564						1						07/20/2022						174						06/20/2022						189						15						GAL							Past Due balances must be paid by 08/15/2022  in order to avoid a $50 fee and disconnection of water service.	If you would like to enroll in paperless billing or pay your bills online please visit www.eaglemountaincity.com	123154	04/01/2022		Single Graph				GAL To	31	7																		84005	0	JUL	JUN	MAY	APR	MAR	FEB	JAN	DEC	NOV	OCT	SEP	AUG		7	6	5	4	3	2	1	12	11	10	9	8	0	15	14	10	3	0	0	0	0	0	0	0	0	0	0	0	0	0	0	0	0	0	0	0	0	0	
123154	122	EAGLE HEIGHTS VILLAGE*		 EAGLE HEIGHTS VILLAGE*		2587 E POWELL WAY				EAGLE MOUNTAIN UT 84005-2300	UT	84005-2300	87	3885 N EAGLE MEADOWS DR #A / EHV 112 A	Water			Sewer	Penalty			Garbage Service	Garbage Fuel Charge		Storm Drain	Deployed Abatement	Deposit	Miscellaneous							46.02			45.75				14.50			8.25									0	111.28	111.28CR			114.52	114.52	08/08/2022	08/31/2022	07/01/2022	07/31/2022	27						00112						88824095						1						07/20/2022						316						06/20/2022						335						19						GAL							Past Due balances must be paid by 08/15/2022  in order to avoid a $50 fee and disconnection of water service.	If you would like to enroll in paperless billing or pay your bills online please visit www.eaglemountaincity.com	123154	04/01/2022		Single Graph				GAL To	31	7																		84005	0	JUL	JUN	MAY	APR	MAR	FEB	JAN	DEC	NOV	OCT	SEP	AUG		7	6	5	4	3	2	1	12	11	10	9	8	0	19	16	12	8	0	0	0	0	0	0	0	0	0	0	0	0	0	0	0	0	0	0	0	0	0	
123154	139	EAGLE HEIGHTS VILLAGE*		 EAGLE HEIGHTS VILLAGE*		2587 E POWELL WAY				EAGLE MOUNTAIN UT 84005-2300	UT	84005-2300	87	3848 N OAK BLVD #A / EHV 121 A	Water			Sewer	Penalty			Garbage Service	Garbage Fuel Charge		Storm Drain	Deployed Abatement	Deposit	Miscellaneous							40.62			45.75				9.50			8.25									0	103.04	103.04CR			104.12	104.12	08/08/2022	08/31/2022	07/01/2022	07/31/2022	27						00121						88920427						1						07/20/2022						180						06/20/2022						194						14						GAL							Past Due balances must be paid by 08/15/2022  in order to avoid a $50 fee and disconnection of water service.	If you would like to enroll in paperless billing or pay your bills online please visit www.eaglemountaincity.com	123154	04/01/2022		Single Graph				GAL To	31	7																		84005	0	JUL	JUN	MAY	APR	MAR	FEB	JAN	DEC	NOV	OCT	SEP	AUG		7	6	5	4	3	2	1	12	11	10	9	8	0	14	13	12	6	0	0	0	0	0	0	0	0	0	0	0	0	0	0	0	0	0	0	0	0	0	
123154	144	EAGLE HEIGHTS VILLAGE*		 EAGLE HEIGHTS VILLAGE*		2587 E POWELL WAY				EAGLE MOUNTAIN UT 84005-2300	UT	84005-2300	87	3819 N OAK BLVD #B / EHV 123 B	Water			Sewer	Penalty			Garbage Service	Garbage Fuel Charge		Storm Drain	Deployed Abatement	Deposit	Miscellaneous							36.30			45.75				9.50			8.25									0	99.80	99.80CR			99.80	99.80	08/08/2022	08/31/2022	07/01/2022	07/31/2022	27						00123						88920392						1						07/20/2022						98						06/20/2022						108						10						GAL							Past Due balances must be paid by 08/15/2022  in order to avoid a $50 fee and disconnection of water service.	If you would like to enroll in paperless billing or pay your bills online please visit www.eaglemountaincity.com	123154	04/01/2022		Single Graph				GAL To	31	7																		84005	0	JUL	JUN	MAY	APR	MAR	FEB	JAN	DEC	NOV	OCT	SEP	AUG		7	6	5	4	3	2	1	12	11	10	9	8	0	10	10	7	1	0	0	0	0	0	0	0	0	0	0	0	0	0	0	0	0	0	0	0	0	0	
123154	156	EAGLE HEIGHTS VILLAGE*		 EAGLE HEIGHTS VILLAGE*		2587 E POWELL WAY				EAGLE MOUNTAIN UT 84005-2300	UT	84005-2300	87	3949 N OAK BLVD #A / EHV 129 A	Water			Sewer	Penalty			Garbage Service	Garbage Fuel Charge		Storm Drain	Deployed Abatement	Deposit	Miscellaneous							35.22			45.75				14.50			8.25									0	104.80	104.80CR			103.72	103.72	08/08/2022	08/31/2022	07/01/2022	07/31/2022	27						00129						88844568						1						07/20/2022						114						06/20/2022						123						9						GAL							Past Due balances must be paid by 08/15/2022  in order to avoid a $50 fee and disconnection of water service.	If you would like to enroll in paperless billing or pay your bills online please visit www.eaglemountaincity.com	123154	04/01/2022		Single Graph				GAL To	31	7																		84005	0	JUL	JUN	MAY	APR	MAR	FEB	JAN	DEC	NOV	OCT	SEP	AUG		7	6	5	4	3	2	1	12	11	10	9	8	0	9	10	6	2	0	0	0	0	0	0	0	0	0	0	0	0	0	0	0	0	0	0	0	0	0	
123154	029	EAGLE HEIGHTS VILLAGE*		 EAGLE HEIGHTS VILLAGE*		2587 E POWELL WAY				EAGLE MOUNTAIN UT 84005-2300	UT	84005-2300	87	3932 N EAGLE MEADOWS DR/ EHV MAINT	Water			Sewer	Penalty			Garbage Service	Garbage Fuel Charge		Storm Drain	Deployed Abatement	Deposit	Miscellaneous							30.90			45.75				9.50			8.25									0	1.07	1.07CR			94.40	94.40	08/08/2022	08/31/2022	07/01/2022	07/31/2022	27						MAINT						88691613						1						07/20/2022						47						06/20/2022						52						5						GAL							Past Due balances must be paid by 08/15/2022  in order to avoid a $50 fee and disconnection of water service.	If you would like to enroll in paperless billing or pay your bills online please visit www.eaglemountaincity.com	123154	07/08/2020		Single Graph				GAL To	31	7																		84005	0	JUL	JUN	MAY	APR	MAR	FEB	JAN	DEC	NOV	OCT	SEP	AUG		7	6	5	4	3	2	1	12	11	10	9	8	0	5	5	4	0	0	1	0	0	1	4	7	8	0	6	4	3	0	1	0	0	1	1	1	0	0	
123154	166	EAGLE HEIGHTS VILLAGE*		 EAGLE HEIGHTS VILLAGE*		2587 E POWELL WAY				EAGLE MOUNTAIN UT 84005-2300	UT	84005-2300	87	3844 N STALLION ST #A / EHV 134 A	Water			Sewer	Penalty			Garbage Service	Garbage Fuel Charge		Storm Drain	Deployed Abatement	Deposit	Miscellaneous							56.82			45.75				9.50			8.25									0	122.48	122.48CR			120.32	120.32	08/08/2022	08/31/2022	07/01/2022	07/31/2022	27						00134						88979483						1						07/20/2022						173						06/20/2022						202						29						GAL							Past Due balances must be paid by 08/15/2022  in order to avoid a $50 fee and disconnection of water service.	If you would like to enroll in paperless billing or pay your bills online please visit www.eaglemountaincity.com	123154	04/01/2022		Single Graph				GAL To	31	7																		84005	0	JUL	JUN	MAY	APR	MAR	FEB	JAN	DEC	NOV	OCT	SEP	AUG		7	6	5	4	3	2	1	12	11	10	9	8	0	29	31	10	4	0	0	0	0	0	0	0	0	0	0	0	0	0	0	0	0	0	0	0	0	0	
123154	108	EAGLE HEIGHTS VILLAGE*		 EAGLE HEIGHTS VILLAGE*		2587 E POWELL WAY				EAGLE MOUNTAIN UT 84005-2300	UT	84005-2300	87	3902 N EAGLE MEADOWS DR #B / EHV 105 B	Water			Sewer	Penalty			Garbage Service	Garbage Fuel Charge		Storm Drain	Deployed Abatement	Deposit	Miscellaneous							36.30			45.75				14.50			8.25									0	103.72	103.72CR			104.80	104.80	08/08/2022	08/31/2022	07/01/2022	07/31/2022	27						00105						88495219						1						07/20/2022						255						06/20/2022						265						10						GAL							Past Due balances must be paid by 08/15/2022  in order to avoid a $50 fee and disconnection of water service.	If you would like to enroll in paperless billing or pay your bills online please visit www.eaglemountaincity.com	123154	04/01/2022		Single Graph				GAL To	31	7																		84005	0	JUL	JUN	MAY	APR	MAR	FEB	JAN	DEC	NOV	OCT	SEP	AUG		7	6	5	4	3	2	1	12	11	10	9	8	0	10	9	9	5	0	0	0	0	0	0	0	0	0	0	0	0	0	0	0	0	0	0	0	0	0	
123154	145	EAGLE HEIGHTS VILLAGE*		 EAGLE HEIGHTS VILLAGE*		2587 E POWELL WAY				EAGLE MOUNTAIN UT 84005-2300	UT	84005-2300	87	3839 N OAK BLVD #A / EHV 124 A	Water			Sewer	Penalty			Garbage Service	Garbage Fuel Charge		Storm Drain	Deployed Abatement	Deposit	Miscellaneous							39.54			45.75				14.50			8.25									0	109.12	109.12CR			108.04	108.04	08/08/2022	08/31/2022	07/01/2022	07/31/2022	27						00124						88920387						1						07/20/2022						174						06/20/2022						187						13						GAL							Past Due balances must be paid by 08/15/2022  in order to avoid a $50 fee and disconnection of water service.	If you would like to enroll in paperless billing or pay your bills online please visit www.eaglemountaincity.com	123154	04/01/2022		Single Graph				GAL To	31	7																		84005	0	JUL	JUN	MAY	APR	MAR	FEB	JAN	DEC	NOV	OCT	SEP	AUG		7	6	5	4	3	2	1	12	11	10	9	8	0	13	14	11	6	0	0	0	0	0	0	0	0	0	0	0	0	0	0	0	0	0	0	0	0	0	
123154	109	EAGLE HEIGHTS VILLAGE*		 EAGLE HEIGHTS VILLAGE*		2587 E POWELL WAY				EAGLE MOUNTAIN UT 84005-2300	UT	84005-2300	87	3882 N EAGLE MEADOWS DR #A / EHV 106 A	Water			Sewer	Penalty			Garbage Service	Garbage Fuel Charge		Storm Drain	Deployed Abatement	Deposit	Miscellaneous							34.14			45.75				14.50			8.25									0	103.72	103.72CR			102.64	102.64	08/08/2022	08/31/2022	07/01/2022	07/31/2022	27						00106						88228307						1						07/20/2022						243						06/20/2022						251						8						GAL							Past Due balances must be paid by 08/15/2022  in order to avoid a $50 fee and disconnection of water service.	If you would like to enroll in paperless billing or pay your bills online please visit www.eaglemountaincity.com	123154	04/01/2022		Single Graph				GAL To	31	7																		84005	0	JUL	JUN	MAY	APR	MAR	FEB	JAN	DEC	NOV	OCT	SEP	AUG		7	6	5	4	3	2	1	12	11	10	9	8	0	8	9	8	2	0	0	0	0	0	0	0	0	0	0	0	0	0	0	0	0	0	0	0	0	0	
123154	118	EAGLE HEIGHTS VILLAGE*		 EAGLE HEIGHTS VILLAGE*		2587 E POWELL WAY				EAGLE MOUNTAIN UT 84005-2300	UT	84005-2300	87	3825 N EAGLE MEADOWS DR #B / EHV 109 B	Water			Sewer	Penalty			Garbage Service	Garbage Fuel Charge		Storm Drain	Deployed Abatement	Deposit	Miscellaneous							34.14			45.75				9.50			8.25									0	97.64	97.64CR			97.64	97.64	08/08/2022	08/31/2022	07/01/2022	07/31/2022	27						00109						88824093						1						07/20/2022						90						06/20/2022						98						8						GAL							Past Due balances must be paid by 08/15/2022  in order to avoid a $50 fee and disconnection of water service.	If you would like to enroll in paperless billing or pay your bills online please visit www.eaglemountaincity.com	123154	04/01/2022		Single Graph				GAL To	31	7																		84005	0	JUL	JUN	MAY	APR	MAR	FEB	JAN	DEC	NOV	OCT	SEP	AUG		7	6	5	4	3	2	1	12	11	10	9	8	0	8	8	7	0	0	0	0	0	0	0	0	0	0	0	0	0	0	0	0	0	0	0	0	0	0	
123154	133	EAGLE HEIGHTS VILLAGE*		 EAGLE HEIGHTS VILLAGE*		2587 E POWELL WAY				EAGLE MOUNTAIN UT 84005-2300	UT	84005-2300	87	3908 N OAK BLVD #A / EHV 118 A	Water			Sewer	Penalty			Garbage Service	Garbage Fuel Charge		Storm Drain	Deployed Abatement	Deposit	Miscellaneous							35.22			45.75				14.50			8.25									0	104.80	104.80CR			103.72	103.72	08/08/2022	08/31/2022	07/01/2022	07/31/2022	27						00118						88844514						1						07/20/2022						89						06/20/2022						98						9						GAL							Past Due balances must be paid by 08/15/2022  in order to avoid a $50 fee and disconnection of water service.	If you would like to enroll in paperless billing or pay your bills online please visit www.eaglemountaincity.com	123154	04/01/2022		Single Graph				GAL To	31	7																		84005	0	JUL	JUN	MAY	APR	MAR	FEB	JAN	DEC	NOV	OCT	SEP	AUG		7	6	5	4	3	2	1	12	11	10	9	8	0	9	10	7	1	0	0	0	0	0	0	0	0	0	0	0	0	0	0	0	0	0	0	0	0	0	
123154	155	EAGLE HEIGHTS VILLAGE*		 EAGLE HEIGHTS VILLAGE*		2587 E POWELL WAY				EAGLE MOUNTAIN UT 84005-2300	UT	84005-2300	87	3929 N OAK BLVD #B / EHV 128 B	Water			Sewer	Penalty			Garbage Service	Garbage Fuel Charge		Storm Drain	Deployed Abatement	Deposit	Miscellaneous							36.30			45.75				14.50			8.25									0	105.88	105.88CR			104.80	104.80	08/08/2022	08/31/2022	07/01/2022	07/31/2022	27						00128						88844563						1						07/20/2022						145						06/20/2022						155						10						GAL							Past Due balances must be paid by 08/15/2022  in order to avoid a $50 fee and disconnection of water service.	If you would like to enroll in paperless billing or pay your bills online please visit www.eaglemountaincity.com	123154	03/31/2022		Single Graph				GAL To	31	7																		84005	0	JUL	JUN	MAY	APR	MAR	FEB	JAN	DEC	NOV	OCT	SEP	AUG		7	6	5	4	3	2	1	12	11	10	9	8	0	10	11	8	5	0	0	0	0	0	0	0	0	0	0	0	0	0	0	0	0	0	0	0	0	0	
123154	146	EAGLE HEIGHTS VILLAGE*		 EAGLE HEIGHTS VILLAGE*		2587 E POWELL WAY				EAGLE MOUNTAIN UT 84005-2300	UT	84005-2300	87	3839 N OAK BLVD #B / EHV 124 B	Water			Sewer	Penalty			Garbage Service	Garbage Fuel Charge		Storm Drain	Deployed Abatement	Deposit	Miscellaneous							39.54			45.75				14.50			8.25									0	108.04	108.04CR			108.04	108.04	08/08/2022	08/31/2022	07/01/2022	07/31/2022	27						00124						88920391						1						07/20/2022						120						06/20/2022						133						13						GAL							Past Due balances must be paid by 08/15/2022  in order to avoid a $50 fee and disconnection of water service.	If you would like to enroll in paperless billing or pay your bills online please visit www.eaglemountaincity.com	123154	04/01/2022		Single Graph				GAL To	31	7																		84005	0	JUL	JUN	MAY	APR	MAR	FEB	JAN	DEC	NOV	OCT	SEP	AUG		7	6	5	4	3	2	1	12	11	10	9	8	0	13	13	8	1	0	0	0	0	0	0	0	0	0	0	0	0	0	0	0	0	0	0	0	0	0	
123154	092	EAGLE HEIGHTS VILLAGE*		 EAGLE HEIGHTS VILLAGE*		2587 E POWELL WAY				EAGLE MOUNTAIN UT 84005-2300	UT	84005-2300	87	2655 E POWELL WAY #B/ EHV 102 B	Water			Sewer	Penalty			Garbage Service	Garbage Fuel Charge		Storm Drain	Deployed Abatement	Deposit	Miscellaneous							43.86			45.75				14.50			8.25									0	112.36	112.36CR			112.36	112.36	08/08/2022	08/31/2022	07/01/2022	07/31/2022	27						00102						88495290						1						07/20/2022						367						06/20/2022						384						17						GAL							Past Due balances must be paid by 08/15/2022  in order to avoid a $50 fee and disconnection of water service.	If you would like to enroll in paperless billing or pay your bills online please visit www.eaglemountaincity.com	123154	04/01/2022		Single Graph				GAL To	31	7																		84005	0	JUL	JUN	MAY	APR	MAR	FEB	JAN	DEC	NOV	OCT	SEP	AUG		7	6	5	4	3	2	1	12	11	10	9	8	0	17	17	14	4	0	0	0	0	0	0	0	0	0	0	0	0	0	0	0	0	0	0	0	0	0	
123154	126	EAGLE HEIGHTS VILLAGE*		 EAGLE HEIGHTS VILLAGE*		2587 E POWELL WAY				EAGLE MOUNTAIN UT 84005-2300	UT	84005-2300	87	3925 N EAGLE MEADOWS DR #B / EHV 114 B	Water			Sewer	Penalty			Garbage Service	Garbage Fuel Charge		Storm Drain	Deployed Abatement	Deposit	Miscellaneous							37.38			45.75				9.50			8.25									0	101.96	101.96CR			100.88	100.88	08/08/2022	08/31/2022	07/01/2022	07/31/2022	27						00114						88824031						1						07/20/2022						202						06/20/2022						213						11						GAL							Past Due balances must be paid by 08/15/2022  in order to avoid a $50 fee and disconnection of water service.	If you would like to enroll in paperless billing or pay your bills online please visit www.eaglemountaincity.com	123154	04/01/2022		Single Graph				GAL To	31	7																		84005	0	JUL	JUN	MAY	APR	MAR	FEB	JAN	DEC	NOV	OCT	SEP	AUG		7	6	5	4	3	2	1	12	11	10	9	8	0	11	12	9	4	0	0	0	0	0	0	0	0	0	0	0	0	0	0	0	0	0	0	0	0	0	
123154	107	EAGLE HEIGHTS VILLAGE*		 EAGLE HEIGHTS VILLAGE*		2587 E POWELL WAY				EAGLE MOUNTAIN UT 84005-2300	UT	84005-2300	87	3902 N EAGLE MEADOWS DR #A / EHV 105 A	Water			Sewer	Penalty			Garbage Service	Garbage Fuel Charge		Storm Drain	Deployed Abatement	Deposit	Miscellaneous							38.46			45.75				9.50			8.25									0	100.88	100.88CR			101.96	101.96	08/08/2022	08/31/2022	07/01/2022	07/31/2022	27						00105						88495215						1						07/20/2022						287						06/20/2022						299						12						GAL							Past Due balances must be paid by 08/15/2022  in order to avoid a $50 fee and disconnection of water service.	If you would like to enroll in paperless billing or pay your bills online please visit www.eaglemountaincity.com	123154	04/01/2022		Single Graph				GAL To	31	7																		84005	0	JUL	JUN	MAY	APR	MAR	FEB	JAN	DEC	NOV	OCT	SEP	AUG		7	6	5	4	3	2	1	12	11	10	9	8	0	12	11	8	5	0	0	0	0	0	0	0	0	0	0	0	0	0	0	0	0	0	0	0	0	0	
123154	119	EAGLE HEIGHTS VILLAGE*		 EAGLE HEIGHTS VILLAGE*		2587 E POWELL WAY				EAGLE MOUNTAIN UT 84005-2300	UT	84005-2300	87	3845 N EAGLE MEADOWS DR #A / EHV 110 A	Water			Sewer	Penalty			Garbage Service	Garbage Fuel Charge		Storm Drain	Deployed Abatement	Deposit	Miscellaneous							40.62			45.75				9.50			8.25									0	104.12	104.12CR			104.12	104.12	08/08/2022	08/31/2022	07/01/2022	07/31/2022	27						00110						88824097						1						07/20/2022						222						06/20/2022						236						14						GAL							Past Due balances must be paid by 08/15/2022  in order to avoid a $50 fee and disconnection of water service.	If you would like to enroll in paperless billing or pay your bills online please visit www.eaglemountaincity.com	123154	04/01/2022		Single Graph				GAL To	31	7																		84005	0	JUL	JUN	MAY	APR	MAR	FEB	JAN	DEC	NOV	OCT	SEP	AUG		7	6	5	4	3	2	1	12	11	10	9	8	0	14	14	11	6	0	0	0	0	0	0	0	0	0	0	0	0	0	0	0	0	0	0	0	0	0	
123154	171	EAGLE HEIGHTS VILLAGE*		 EAGLE HEIGHTS VILLAGE*		2587 E POWELL WAY				EAGLE MOUNTAIN UT 84005-2300	UT	84005-2300	87	3857 N STALLION ST #A/EHV 136 A	Water			Sewer	Penalty			Garbage Service	Garbage Fuel Charge		Storm Drain	Deployed Abatement	Deposit	Miscellaneous							38.46			45.75				9.50			8.25									0	107.36	107.36CR			101.96	101.96	08/08/2022	08/31/2022	07/01/2022	07/31/2022	27						00136						88867521						1						07/20/2022						155						06/20/2022						167						12						GAL							Past Due balances must be paid by 08/15/2022  in order to avoid a $50 fee and disconnection of water service.	If you would like to enroll in paperless billing or pay your bills online please visit www.eaglemountaincity.com	123154	04/01/2022		Single Graph				GAL To	31	7																		84005	0	JUL	JUN	MAY	APR	MAR	FEB	JAN	DEC	NOV	OCT	SEP	AUG		7	6	5	4	3	2	1	12	11	10	9	8	0	12	17	9	2	0	0	0	0	0	0	0	0	0	0	0	0	0	0	0	0	0	0	0	0	0	
123154	153	EAGLE HEIGHTS VILLAGE*		 EAGLE HEIGHTS VILLAGE*		2587 E POWELL WAY				EAGLE MOUNTAIN UT 84005-2300	UT	84005-2300	87	3909 N OAK BLVD #B / EHV 127 B	Water			Sewer	Penalty			Garbage Service	Garbage Fuel Charge		Storm Drain	Deployed Abatement	Deposit	Miscellaneous							33.06			45.75				9.50			8.25									0	97.64	97.64CR			96.56	96.56	08/08/2022	08/31/2022	07/01/2022	07/31/2022	27						00127						88844535						1						07/20/2022						107						06/20/2022						114						7						GAL							Past Due balances must be paid by 08/15/2022  in order to avoid a $50 fee and disconnection of water service.	If you would like to enroll in paperless billing or pay your bills online please visit www.eaglemountaincity.com	123154	04/01/2022		Single Graph				GAL To	31	7																		84005	0	JUL	JUN	MAY	APR	MAR	FEB	JAN	DEC	NOV	OCT	SEP	AUG		7	6	5	4	3	2	1	12	11	10	9	8	0	7	8	6	1	0	0	0	0	0	0	0	0	0	0	0	0	0	0	0	0	0	0	0	0	0	
123154	114	EAGLE HEIGHTS VILLAGE*		 EAGLE HEIGHTS VILLAGE*		2587 E POWELL WAY				EAGLE MOUNTAIN UT 84005-2300	UT	84005-2300	87	3842 N EAGLE MEADOWS DR #A / EHV 108 A	Water			Sewer	Penalty			Garbage Service	Garbage Fuel Charge		Storm Drain	Deployed Abatement	Deposit	Miscellaneous							49.26			45.75				15.75			8.25									0	123.33	123.33CR			119.01	119.01	08/08/2022	08/31/2022	07/01/2022	07/31/2022	27						00108						88495213						1						07/20/2022						392						06/20/2022						414						22						GAL							Past Due balances must be paid by 08/15/2022  in order to avoid a $50 fee and disconnection of water service.	If you would like to enroll in paperless billing or pay your bills online please visit www.eaglemountaincity.com	123154	04/01/2022		Single Graph				GAL To	31	7																		84005	0	JUL	JUN	MAY	APR	MAR	FEB	JAN	DEC	NOV	OCT	SEP	AUG		7	6	5	4	3	2	1	12	11	10	9	8	0	22	26	19	13	0	0	0	0	0	0	0	0	0	0	0	0	0	0	0	0	0	0	0	0	0	
130614	004	EAGLE HEIGHTS VILLAGE II LLC		 EAGLE HEIGHTS VILLAGE II LLC		2587 E POWELL WAY				EAGLE MOUNTAIN UT 84005-2300	UT	84005-2300	87	3774 N EAGLE MEADOWS DR/ EHV 203 A	Water			Sewer	Penalty			Garbage Service	Garbage Fuel Charge		Storm Drain	Deployed Abatement	Deposit	Miscellaneous							47.10			45.75				9.50			8.25									0	118.16	118.16CR			110.60	110.60	08/08/2022	08/31/2022	07/01/2022	07/31/2022	79						00203						90977303						1						07/20/2022						41						06/20/2022						61						20						GAL							Past Due balances must be paid by 08/15/2022  in order to avoid a $50 fee and disconnection of water service.	If you would like to enroll in paperless billing or pay your bills online please visit www.eaglemountaincity.com	130614	05/01/2022		Single Graph				GAL To	31	7																		84005	0	JUL	JUN	MAY	APR	MAR	FEB	JAN	DEC	NOV	OCT	SEP	AUG		7	6	5	4	3	2	1	12	11	10	9	8	0	20	27	12	0	0	0	0	0	0	0	0	0	0	0	0	0	0	0	0	0	0	0	0	0	0	
130614	017	EAGLE HEIGHTS VILLAGE II LLC		 EAGLE HEIGHTS VILLAGE II LLC		2587 E POWELL WAY				EAGLE MOUNTAIN UT 84005-2300	UT	84005-2300	87	3789 N EAGLE MEADOWS DR/ EHV 209 B	Water			Sewer	Penalty			Garbage Service	Garbage Fuel Charge		Storm Drain	Deployed Abatement	Deposit	Miscellaneous							50.34			45.75				9.50			8.25									0	116.00	223.36CR			113.84	6.48	08/08/2022	08/31/2022	07/01/2022	07/31/2022	79						00209						90977309						1						07/20/2022						45						06/20/2022						68						23						GAL							Past Due balances must be paid by 08/15/2022  in order to avoid a $50 fee and disconnection of water service.	If you would like to enroll in paperless billing or pay your bills online please visit www.eaglemountaincity.com	130614	05/01/2022		Single Graph				GAL To	31	7																		84005	0	JUL	JUN	MAY	APR	MAR	FEB	JAN	DEC	NOV	OCT	SEP	AUG		7	6	5	4	3	2	1	12	11	10	9	8	0	23	25	17	0	0	0	0	0	0	0	0	0	0	0	0	0	0	0	0	0	0	0	0	0	0	
130614	039	EAGLE HEIGHTS VILLAGE II LLC		 EAGLE HEIGHTS VILLAGE II LLC		2587 E POWELL WAY				EAGLE MOUNTAIN UT 84005-2300	UT	84005-2300	87	3796 N STALLION ST/ EHV 2 221 A	Water			Sewer	Penalty			Garbage Service	Garbage Fuel Charge		Storm Drain	Deployed Abatement	Deposit	Miscellaneous							36.30			45.75				14.50			8.25									0	108.04	108.04CR			104.80	104.80	08/08/2022	08/31/2022	07/01/2022	07/31/2022	27						0221A						90852869						1						07/18/2022						27						06/20/2022						37						10						GAL							Past Due balances must be paid by 08/15/2022  in order to avoid a $50 fee and disconnection of water service.	If you would like to enroll in paperless billing or pay your bills online please visit www.eaglemountaincity.com	130614	05/01/2022		Single Graph				GAL To	31	7																		84005	0	JUL	JUN	MAY	APR	MAR	FEB	JAN	DEC	NOV	OCT	SEP	AUG		7	6	5	4	3	2	1	12	11	10	9	8	0	10	13	5	0	0	0	0	0	0	0	0	0	0	0	0	0	0	0	0	0	0	0	0	0	0	
130614	042	EAGLE HEIGHTS VILLAGE II LLC		 EAGLE HEIGHTS VILLAGE II LLC		2587 E POWELL WAY				EAGLE MOUNTAIN UT 84005-2300	UT	84005-2300	87	3776 N STALLION ST/ EHV 2 222 B	Water			Sewer	Penalty			Garbage Service	Garbage Fuel Charge		Storm Drain	Deployed Abatement	Deposit	Miscellaneous							39.54			45.75				14.50			8.25									0	110.20	110.20CR			108.04	108.04	08/08/2022	08/31/2022	07/01/2022	07/31/2022	27						0222B						90852871						1						07/20/2022						34						06/20/2022						47						13						GAL							Past Due balances must be paid by 08/15/2022  in order to avoid a $50 fee and disconnection of water service.	If you would like to enroll in paperless billing or pay your bills online please visit www.eaglemountaincity.com	130614	05/01/2022		Single Graph				GAL To	31	7																		84005	0	JUL	JUN	MAY	APR	MAR	FEB	JAN	DEC	NOV	OCT	SEP	AUG		7	6	5	4	3	2	1	12	11	10	9	8	0	13	15	0	0	0	0	0	0	0	0	0	0	0	0	0	0	0	0	0	0	0	0	0	0	0	
130614	005	EAGLE HEIGHTS VILLAGE II LLC		 EAGLE HEIGHTS VILLAGE II LLC		2587 E POWELL WAY				EAGLE MOUNTAIN UT 84005-2300	UT	84005-2300	87	3774 N EAGLE MEADOWS DR/ EHV 203 B	Water			Sewer	Penalty			Garbage Service	Garbage Fuel Charge		Storm Drain	Deployed Abatement	Deposit	Miscellaneous							52.50			45.75				9.50			8.25									0	123.56	123.56CR			116.00	116.00	08/08/2022	08/31/2022	07/01/2022	07/31/2022	79						0203B						90977257						1						07/20/2022						44						06/20/2022						69						25						GAL							Past Due balances must be paid by 08/15/2022  in order to avoid a $50 fee and disconnection of water service.	If you would like to enroll in paperless billing or pay your bills online please visit www.eaglemountaincity.com	130614	05/01/2022		Single Graph				GAL To	31	7																		84005	0	JUL	JUN	MAY	APR	MAR	FEB	JAN	DEC	NOV	OCT	SEP	AUG		7	6	5	4	3	2	1	12	11	10	9	8	0	25	32	9	0	0	0	0	0	0	0	0	0	0	0	0	0	0	0	0	0	0	0	0	0	0	
130614	003	EAGLE HEIGHTS VILLAGE II LLC		 EAGLE HEIGHTS VILLAGE II LLC		2587 E POWELL WAY				EAGLE MOUNTAIN UT 84005-2300	UT	84005-2300	87	3794 N EAGLE MEADOWS DR/ EHV 202 B	Water			Sewer	Penalty			Garbage Service	Garbage Fuel Charge		Storm Drain	Deployed Abatement	Deposit	Miscellaneous							47.10			45.75				14.50			8.25									0	127.48	127.48CR			115.60	115.60	08/08/2022	08/31/2022	07/01/2022	07/31/2022	79						00202						90977260						1						07/20/2022						47						06/20/2022						67						20						GAL							Past Due balances must be paid by 08/15/2022  in order to avoid a $50 fee and disconnection of water service.	If you would like to enroll in paperless billing or pay your bills online please visit www.eaglemountaincity.com	130614	05/01/2022		Single Graph				GAL To	31	7																		84005	0	JUL	JUN	MAY	APR	MAR	FEB	JAN	DEC	NOV	OCT	SEP	AUG		7	6	5	4	3	2	1	12	11	10	9	8	0	20	31	14	0	0	0	0	0	0	0	0	0	0	0	0	0	0	0	0	0	0	0	0	0	0	
130614	032	EAGLE HEIGHTS VILLAGE II LLC		 EAGLE HEIGHTS VILLAGE II LLC		2587 E POWELL WAY				EAGLE MOUNTAIN UT 84005-2300	UT	84005-2300	87	3755 N OAK BLVD/ EHV 217 B	Water			Sewer	Penalty			Garbage Service	Garbage Fuel Charge		Storm Drain	Deployed Abatement	Deposit	Miscellaneous							39.54			45.75				14.50			8.25									0	109.12	109.12CR			108.04	108.04	08/08/2022	08/31/2022	07/01/2022	07/31/2022	27						0217B						90852841						1						07/20/2022						36						06/20/2022						49						13						GAL							Past Due balances must be paid by 08/15/2022  in order to avoid a $50 fee and disconnection of water service.	If you would like to enroll in paperless billing or pay your bills online please visit www.eaglemountaincity.com	130614	05/01/2022		Single Graph				GAL To	31	7																		84005	0	JUL	JUN	MAY	APR	MAR	FEB	JAN	DEC	NOV	OCT	SEP	AUG		7	6	5	4	3	2	1	12	11	10	9	8	0	13	14	9	0	0	0	0	0	0	0	0	0	0	0	0	0	0	0	0	0	0	0	0	0	0	
130614	046	EAGLE HEIGHTS VILLAGE II LLC		 EAGLE HEIGHTS VILLAGE II LLC		2587 E POWELL WAY				EAGLE MOUNTAIN UT 84005-2300	UT	84005-2300	87	3736 N STALLION ST/ EHV 224 B	Water			Sewer	Penalty			Garbage Service	Garbage Fuel Charge		Storm Drain	Deployed Abatement	Deposit	Miscellaneous							44.94			45.75				14.50			8.25									0	113.44	113.44CR			113.44	113.44	08/08/2022	08/31/2022	07/01/2022	07/31/2022	27						0224B						89540454						1						07/20/2022						65						06/20/2022						83						18						GAL							Past Due balances must be paid by 08/15/2022  in order to avoid a $50 fee and disconnection of water service.	If you would like to enroll in paperless billing or pay your bills online please visit www.eaglemountaincity.com	130614	05/01/2022		Single Graph				GAL To	31	7																		84005	0	JUL	JUN	MAY	APR	MAR	FEB	JAN	DEC	NOV	OCT	SEP	AUG		7	6	5	4	3	2	1	12	11	10	9	8	0	18	18	0	0	0	0	0	0	0	0	0	0	0	0	0	0	0	0	0	0	0	0	0	0	0	
130614	012	EAGLE HEIGHTS VILLAGE II LLC		 EAGLE HEIGHTS VILLAGE II LLC		2587 E POWELL WAY				EAGLE MOUNTAIN UT 84005-2300	UT	84005-2300	87	3749 N EAGLE MEADOWS DR/ EHV 207 A	Water			Sewer	Penalty			Garbage Service	Garbage Fuel Charge		Storm Drain	Deployed Abatement	Deposit	Miscellaneous							40.62			45.75				9.50			8.25									0	125.72	125.72CR			104.12	104.12	08/08/2022	08/31/2022	07/01/2022	07/31/2022	27						0207A						90977302						1						07/20/2022						34						06/20/2022						48						14						GAL							Past Due balances must be paid by 08/15/2022  in order to avoid a $50 fee and disconnection of water service.	If you would like to enroll in paperless billing or pay your bills online please visit www.eaglemountaincity.com	130614	05/01/2022		Single Graph				GAL To	31	7																		84005	0	JUL	JUN	MAY	APR	MAR	FEB	JAN	DEC	NOV	OCT	SEP	AUG		7	6	5	4	3	2	1	12	11	10	9	8	0	14	34	9	0	0	0	0	0	0	0	0	0	0	0	0	0	0	0	0	0	0	0	0	0	0	
130614	015	EAGLE HEIGHTS VILLAGE II LLC		 EAGLE HEIGHTS VILLAGE II LLC		2587 E POWELL WAY				EAGLE MOUNTAIN UT 84005-2300	UT	84005-2300	87	3769 N EAGLE MEADOWS DR/ EHV 208 B	Water			Sewer	Penalty			Garbage Service	Garbage Fuel Charge		Storm Drain	Deployed Abatement	Deposit	Miscellaneous							38.46			45.75				9.50			8.25									0	104.12	104.12CR			101.96	101.96	08/08/2022	08/31/2022	07/01/2022	07/31/2022	79						00208						91727728						1						07/20/2022						28						06/20/2022						40						12						GAL							Past Due balances must be paid by 08/15/2022  in order to avoid a $50 fee and disconnection of water service.	If you would like to enroll in paperless billing or pay your bills online please visit www.eaglemountaincity.com	130614	05/01/2022		Single Graph				GAL To	31	7																		84005	0	JUL	JUN	MAY	APR	MAR	FEB	JAN	DEC	NOV	OCT	SEP	AUG		7	6	5	4	3	2	1	12	11	10	9	8	0	12	14	9	0	0	0	0	0	0	0	0	0	0	0	0	0	0	0	0	0	0	0	0	0	0	
130614	047	EAGLE HEIGHTS VILLAGE II LLC		 EAGLE HEIGHTS VILLAGE II LLC		2587 E POWELL WAY				EAGLE MOUNTAIN UT 84005-2300	UT	84005-2300	87	3716 N STALLION ST/ EHV 225 A	Water			Sewer	Penalty			Garbage Service	Garbage Fuel Charge		Storm Drain	Deployed Abatement	Deposit	Miscellaneous							41.70			45.75				9.50			8.25									0	106.28	106.28CR			105.20	105.20	08/08/2022	08/31/2022	07/01/2022	07/31/2022	27						0225A						90852805						1						07/20/2022						47						06/20/2022						62						15						GAL							Past Due balances must be paid by 08/15/2022  in order to avoid a $50 fee and disconnection of water service.	If you would like to enroll in paperless billing or pay your bills online please visit www.eaglemountaincity.com	130614	05/01/2022		Single Graph				GAL To	31	7																		84005	0	JUL	JUN	MAY	APR	MAR	FEB	JAN	DEC	NOV	OCT	SEP	AUG		7	6	5	4	3	2	1	12	11	10	9	8	0	15	16	0	0	0	0	0	0	0	0	0	0	0	0	0	0	0	0	0	0	0	0	0	0	0	
130614	048	EAGLE HEIGHTS VILLAGE II LLC		 EAGLE HEIGHTS VILLAGE II LLC		2587 E POWELL WAY				EAGLE MOUNTAIN UT 84005-2300	UT	84005-2300	87	3716 N STALLION ST/ EHV 225 B	Water			Sewer	Penalty			Garbage Service	Garbage Fuel Charge		Storm Drain	Deployed Abatement	Deposit	Miscellaneous							42.78			45.75				9.50			8.25									0	108.44	108.44CR			106.28	106.28	08/08/2022	08/31/2022	07/01/2022	07/31/2022	27						0225B						90852801						1						07/20/2022						52						06/20/2022						68						16						GAL							Past Due balances must be paid by 08/15/2022  in order to avoid a $50 fee and disconnection of water service.	If you would like to enroll in paperless billing or pay your bills online please visit www.eaglemountaincity.com	130614	05/01/2022		Single Graph				GAL To	31	7																		84005	0	JUL	JUN	MAY	APR	MAR	FEB	JAN	DEC	NOV	OCT	SEP	AUG		7	6	5	4	3	2	1	12	11	10	9	8	0	16	18	0	0	0	0	0	0	0	0	0	0	0	0	0	0	0	0	0	0	0	0	0	0	0	
130614	022	EAGLE HEIGHTS VILLAGE II LLC		 EAGLE HEIGHTS VILLAGE II LLC		2587 E POWELL WAY				EAGLE MOUNTAIN UT 84005-2300	UT	84005-2300	87	3752 N OAK BLVD/ EHV 212 B	Water			Sewer	Penalty			Garbage Service	Garbage Fuel Charge		Storm Drain	Deployed Abatement	Deposit	Miscellaneous							46.09			45.75				9.50			8.25									0	89.00	89.00CR			109.59	109.59	08/08/2022	08/31/2022	07/01/2022	07/31/2022	85						0212B						21180898						1						07/20/2022						0						06/02/2022						19						19						GAL							Past Due balances must be paid by 08/15/2022  in order to avoid a $50 fee and disconnection of water service.	If you would like to enroll in paperless billing or pay your bills online please visit www.eaglemountaincity.com	130614	05/01/2022		Single Graph				GAL To	31	7																		84005	0	JUL	JUN	MAY	APR	MAR	FEB	JAN	DEC	NOV	OCT	SEP	AUG		7	6	5	4	3	2	1	12	11	10	9	8	0	19	0	0	0	0	0	0	0	0	0	0	0	0	0	0	0	0	0	0	0	0	0	0	0	0	
130614	009	EAGLE HEIGHTS VILLAGE II LLC		 EAGLE HEIGHTS VILLAGE II LLC		2587 E POWELL WAY				EAGLE MOUNTAIN UT 84005-2300	UT	84005-2300	87	3734 N EAGLE MEADOWS DR/ EHV 205 B	Water			Sewer	Penalty			Garbage Service	Garbage Fuel Charge		Storm Drain	Deployed Abatement	Deposit	Miscellaneous							51.42			45.75				9.50			8.25									0	125.72	125.72CR			114.92	114.92	08/08/2022	08/31/2022	07/01/2022	07/31/2022	79						00205						92075989						1						07/20/2022						52						06/20/2022						76						24						GAL							Past Due balances must be paid by 08/15/2022  in order to avoid a $50 fee and disconnection of water service.	If you would like to enroll in paperless billing or pay your bills online please visit www.eaglemountaincity.com	130614	05/01/2022		Single Graph				GAL To	31	7																		84005	0	JUL	JUN	MAY	APR	MAR	FEB	JAN	DEC	NOV	OCT	SEP	AUG		7	6	5	4	3	2	1	12	11	10	9	8	0	24	34	14	0	0	0	0	0	0	0	0	0	0	0	0	0	0	0	0	0	0	0	0	0	0	
130614	000	EAGLE HEIGHTS VILLAGE II LLC		 EAGLE HEIGHTS VILLAGE II LLC		2587 E POWELL WAY				EAGLE MOUNTAIN UT 84005-2300	UT	84005-2300	87	3814 N EAGLE MEADOWS DR/ EHV 201 A	Water			Sewer	Penalty			Garbage Service	Garbage Fuel Charge		Storm Drain	Deployed Abatement	Deposit	Miscellaneous							37.38			45.75				14.50			8.25									0	112.36	112.36CR			105.88	105.88	08/08/2022	08/31/2022	07/01/2022	07/31/2022	79						00201						92075991						1						07/20/2022						28						06/20/2022						39						11						GAL							Past Due balances must be paid by 08/15/2022  in order to avoid a $50 fee and disconnection of water service.	If you would like to enroll in paperless billing or pay your bills online please visit www.eaglemountaincity.com	130614	05/01/2022		Single Graph				GAL To	31	7																		84005	0	JUL	JUN	MAY	APR	MAR	FEB	JAN	DEC	NOV	OCT	SEP	AUG		7	6	5	4	3	2	1	12	11	10	9	8	0	11	17	9	0	0	0	0	0	0	0	0	0	0	0	0	0	0	0	0	0	0	0	0	0	0	
130614	002	EAGLE HEIGHTS VILLAGE II LLC		 EAGLE HEIGHTS VILLAGE II LLC		2587 E POWELL WAY				EAGLE MOUNTAIN UT 84005-2300	UT	84005-2300	87	3794 N EAGLE MEADOWS DR/ EHV 202 A	Water			Sewer	Penalty			Garbage Service	Garbage Fuel Charge		Storm Drain	Deployed Abatement	Deposit	Miscellaneous							46.02			45.75				20.75			8.25									0	129.41	129.41CR			120.77	120.77	08/08/2022	08/31/2022	07/01/2022	07/31/2022	79						00202						92075984						1						07/20/2022						42						06/20/2022						61						19						GAL							Past Due balances must be paid by 08/15/2022  in order to avoid a $50 fee and disconnection of water service.	If you would like to enroll in paperless billing or pay your bills online please visit www.eaglemountaincity.com	130614	05/01/2022		Single Graph				GAL To	31	7																		84005	0	JUL	JUN	MAY	APR	MAR	FEB	JAN	DEC	NOV	OCT	SEP	AUG		7	6	5	4	3	2	1	12	11	10	9	8	0	19	27	13	0	0	0	0	0	0	0	0	0	0	0	0	0	0	0	0	0	0	0	0	0	0	
130614	018	EAGLE HEIGHTS VILLAGE II LLC		 EAGLE HEIGHTS VILLAGE II LLC		2587 E POWELL WAY				EAGLE MOUNTAIN UT 84005-2300	UT	84005-2300	87	3790 N OAK BLVD/ EHV 210 A	Water			Sewer	Penalty			Garbage Service	Garbage Fuel Charge		Storm Drain	Deployed Abatement	Deposit	Miscellaneous							50.74			45.75				9.50			8.25									0	89.00	89.00CR			114.24	114.24	08/08/2022	08/31/2022	07/01/2022	07/31/2022	85						0210A						21180986						1						07/20/2022						0						06/02/2022						23						23						GAL							Past Due balances must be paid by 08/15/2022  in order to avoid a $50 fee and disconnection of water service.	If you would like to enroll in paperless billing or pay your bills online please visit www.eaglemountaincity.com	130614	05/01/2022		Single Graph				GAL To	31	7																		84005	0	JUL	JUN	MAY	APR	MAR	FEB	JAN	DEC	NOV	OCT	SEP	AUG		7	6	5	4	3	2	1	12	11	10	9	8	0	23	0	0	0	0	0	0	0	0	0	0	0	0	0	0	0	0	0	0	0	0	0	0	0	0	
130614	014	EAGLE HEIGHTS VILLAGE II LLC		 EAGLE HEIGHTS VILLAGE II LLC		2587 E POWELL WAY				EAGLE MOUNTAIN UT 84005-2300	UT	84005-2300	87	3769 N EAGLE MEADOWS DR/ EHV 208 A	Water			Sewer	Penalty			Garbage Service	Garbage Fuel Charge		Storm Drain	Deployed Abatement	Deposit	Miscellaneous							36.30			45.75				9.50			8.25									0	104.12	104.12CR			99.80	99.80	08/08/2022	08/31/2022	07/01/2022	07/31/2022	79						00208						91727734						1						07/20/2022						24						06/20/2022						34						10						GAL							Past Due balances must be paid by 08/15/2022  in order to avoid a $50 fee and disconnection of water service.	If you would like to enroll in paperless billing or pay your bills online please visit www.eaglemountaincity.com	130614	05/01/2022		Single Graph				GAL To	31	7																		84005	0	JUL	JUN	MAY	APR	MAR	FEB	JAN	DEC	NOV	OCT	SEP	AUG		7	6	5	4	3	2	1	12	11	10	9	8	0	10	14	7	0	0	0	0	0	0	0	0	0	0	0	0	0	0	0	0	0	0	0	0	0	0	
130614	006	EAGLE HEIGHTS VILLAGE II LLC		 EAGLE HEIGHTS VILLAGE II LLC		2587 E POWELL WAY				EAGLE MOUNTAIN UT 84005-2300	UT	84005-2300	87	3754 N EAGLE MEADOWS DR/ EHV 204 A	Water			Sewer	Penalty			Garbage Service	Garbage Fuel Charge		Storm Drain	Deployed Abatement	Deposit	Miscellaneous							39.54			45.75				20.75			8.25									0	135.89	135.89CR			114.29	114.29	08/08/2022	08/31/2022	07/01/2022	07/31/2022	79						0204A						92075986						1						07/20/2022						53						06/20/2022						66						13						GAL							Past Due balances must be paid by 08/15/2022  in order to avoid a $50 fee and disconnection of water service.	If you would like to enroll in paperless billing or pay your bills online please visit www.eaglemountaincity.com	130614	05/01/2022		Single Graph				GAL To	31	7																		84005	0	JUL	JUN	MAY	APR	MAR	FEB	JAN	DEC	NOV	OCT	SEP	AUG		7	6	5	4	3	2	1	12	11	10	9	8	0	13	33	12	0	0	0	0	0	0	0	0	0	0	0	0	0	0	0	0	0	0	0	0	0	0	
130614	020	EAGLE HEIGHTS VILLAGE II LLC		 EAGLE HEIGHTS VILLAGE II LLC		2587 E POWELL WAY				EAGLE MOUNTAIN UT 84005-2300	UT	84005-2300	87	3772 N OAK BLVD/ EHV 211 B	Water			Sewer	Penalty			Garbage Service	Garbage Fuel Charge		Storm Drain	Deployed Abatement	Deposit	Miscellaneous							47.22			45.75				14.50			8.25									0	94.00	94.00CR			115.72	115.72	08/08/2022	08/31/2022	07/01/2022	07/31/2022	85						0211B						21180983						1						07/20/2022						0						06/02/2022						20						20						GAL							Past Due balances must be paid by 08/15/2022  in order to avoid a $50 fee and disconnection of water service.	If you would like to enroll in paperless billing or pay your bills online please visit www.eaglemountaincity.com	130614	05/08/2022		Single Graph				GAL To	31	7																		84005	0	JUL	JUN	MAY	APR	MAR	FEB	JAN	DEC	NOV	OCT	SEP	AUG		7	6	5	4	3	2	1	12	11	10	9	8	0	20	0	0	0	0	0	0	0	0	0	0	0	0	0	0	0	0	0	0	0	0	0	0	0	0	
130614	028	EAGLE HEIGHTS VILLAGE II LLC		 EAGLE HEIGHTS VILLAGE II LLC		2587 E POWELL WAY				EAGLE MOUNTAIN UT 84005-2300	UT	84005-2300	87	3715 N OAK BLVD/ EHV 215 B	Water			Sewer	Penalty			Garbage Service	Garbage Fuel Charge		Storm Drain	Deployed Abatement	Deposit	Miscellaneous							25.50			45.75				6.25			8.25									0	85.75	85.75CR			85.75	85.75	08/08/2022	08/31/2022	07/01/2022	07/31/2022																			0												0												0						0													Past Due balances must be paid by 08/15/2022  in order to avoid a $50 fee and disconnection of water service.	If you would like to enroll in paperless billing or pay your bills online please visit www.eaglemountaincity.com	130614	05/01/2022		Single Graph					31	7																		84005	0														0	0	0	0	0	0	0	0	0	0	0	0	0	0	0	0	0	0	0	0	0	0	0	0	0	0	0	0	0	0	0	0	0	0	0	0	0	0	
130614	041	EAGLE HEIGHTS VILLAGE II LLC		 EAGLE HEIGHTS VILLAGE II LLC		2587 E POWELL WAY				EAGLE MOUNTAIN UT 84005-2300	UT	84005-2300	87	3776 N STALLION ST/ EHV 2 222 A	Water			Sewer	Penalty			Garbage Service	Garbage Fuel Charge		Storm Drain	Deployed Abatement	Deposit	Miscellaneous							36.30			45.75				9.50			8.25									0	100.88	100.88CR			99.80	99.80	08/08/2022	08/31/2022	07/01/2022	07/31/2022	27						0222A						90852870						1						07/20/2022						23						06/20/2022						33						10						GAL							Past Due balances must be paid by 08/15/2022  in order to avoid a $50 fee and disconnection of water service.	If you would like to enroll in paperless billing or pay your bills online please visit www.eaglemountaincity.com	130614	05/01/2022		Single Graph				GAL To	31	7																		84005	0	JUL	JUN	MAY	APR	MAR	FEB	JAN	DEC	NOV	OCT	SEP	AUG		7	6	5	4	3	2	1	12	11	10	9	8	0	10	11	0	0	0	0	0	0	0	0	0	0	0	0	0	0	0	0	0	0	0	0	0	0	0	
130614	021	EAGLE HEIGHTS VILLAGE II LLC		 EAGLE HEIGHTS VILLAGE II LLC		2587 E POWELL WAY				EAGLE MOUNTAIN UT 84005-2300	UT	84005-2300	87	3752 N OAK BLVD/ EHV 212 A	Water			Sewer	Penalty			Garbage Service	Garbage Fuel Charge		Storm Drain	Deployed Abatement	Deposit	Miscellaneous							44.25			45.75				9.50			8.25									0	89.00	89.00CR			107.75	107.75	08/08/2022	08/31/2022	07/01/2022	07/31/2022	85						0212A						21180897						1						07/20/2022						0						06/02/2022						17						17						GAL							Past Due balances must be paid by 08/15/2022  in order to avoid a $50 fee and disconnection of water service.	If you would like to enroll in paperless billing or pay your bills online please visit www.eaglemountaincity.com	130614	05/01/2022		Single Graph				GAL To	31	7																		84005	0	JUL	JUN	MAY	APR	MAR	FEB	JAN	DEC	NOV	OCT	SEP	AUG		7	6	5	4	3	2	1	12	11	10	9	8	0	17	0	0	0	0	0	0	0	0	0	0	0	0	0	0	0	0	0	0	0	0	0	0	0	0	
130614	044	EAGLE HEIGHTS VILLAGE II LLC		 EAGLE HEIGHTS VILLAGE II LLC		2587 E POWELL WAY				EAGLE MOUNTAIN UT 84005-2300	UT	84005-2300	87	3756 N STALLION ST/ EHV 2 223 B	Water			Sewer	Penalty			Garbage Service	Garbage Fuel Charge		Storm Drain	Deployed Abatement	Deposit	Miscellaneous							39.54			45.75				9.50			8.25									0	103.04	103.04CR			103.04	103.04	08/08/2022	08/31/2022	07/01/2022	07/31/2022	27						0223B						89875798						1						07/20/2022						32						06/20/2022						45						13						GAL							Past Due balances must be paid by 08/15/2022  in order to avoid a $50 fee and disconnection of water service.	If you would like to enroll in paperless billing or pay your bills online please visit www.eaglemountaincity.com	130614	05/01/2022		Single Graph				GAL To	31	7																		84005	0	JUL	JUN	MAY	APR	MAR	FEB	JAN	DEC	NOV	OCT	SEP	AUG		7	6	5	4	3	2	1	12	11	10	9	8	0	13	13	0	0	0	0	0	0	0	0	0	0	0	0	0	0	0	0	0	0	0	0	0	0	0	
130614	024	EAGLE HEIGHTS VILLAGE II LLC		 EAGLE HEIGHTS VILLAGE II LLC		2587 E POWELL WAY				EAGLE MOUNTAIN UT 84005-2300	UT	84005-2300	87	3732 N OAK BLVD/ EHV 213 B	Water			Sewer	Penalty			Garbage Service	Garbage Fuel Charge		Storm Drain	Deployed Abatement	Deposit	Miscellaneous							47.05			45.75				14.50			8.25									0	94.00	94.00CR			115.55	115.55	08/08/2022	08/31/2022	07/01/2022	07/31/2022	85						0213B						21180984						1						07/20/2022						0						06/02/2022						19						19						GAL							Past Due balances must be paid by 08/15/2022  in order to avoid a $50 fee and disconnection of water service.	If you would like to enroll in paperless billing or pay your bills online please visit www.eaglemountaincity.com	130614	04/30/2022		Single Graph				GAL To	31	7																		84005	0	JUL	JUN	MAY	APR	MAR	FEB	JAN	DEC	NOV	OCT	SEP	AUG		7	6	5	4	3	2	1	12	11	10	9	8	0	19	0	0	0	0	0	0	0	0	0	0	0	0	0	0	0	0	0	0	0	0	0	0	0	0	
130614	052	EAGLE HEIGHTS VILLAGE II LLC		 EAGLE HEIGHTS VILLAGE II LLC		2587 E POWELL WAY				EAGLE MOUNTAIN UT 84005-2300	UT	84005-2300	87	3787 N STALLION ST/ EHV 2 227 B	Water			Sewer	Penalty			Garbage Service	Garbage Fuel Charge		Storm Drain	Deployed Abatement	Deposit	Miscellaneous							50.34			45.75				15.75			8.25									0	117.93	117.93CR			120.09	120.09	08/08/2022	08/31/2022	07/01/2022	07/31/2022	27						0227B						88531770						1						07/20/2022						57						06/20/2022						80						23						GAL							Past Due balances must be paid by 08/15/2022  in order to avoid a $50 fee and disconnection of water service.	If you would like to enroll in paperless billing or pay your bills online please visit www.eaglemountaincity.com	130614	05/01/2022		Single Graph				GAL To	31	7																		84005	0	JUL	JUN	MAY	APR	MAR	FEB	JAN	DEC	NOV	OCT	SEP	AUG		7	6	5	4	3	2	1	12	11	10	9	8	0	23	21	0	0	0	0	0	0	0	0	0	0	0	0	0	0	0	0	0	0	0	0	0	0	0	
130614	033	EAGLE HEIGHTS VILLAGE II LLC		 EAGLE HEIGHTS VILLAGE II LLC		2587 E POWELL WAY				EAGLE MOUNTAIN UT 84005-2300	UT	84005-2300	87	3775 N OAK BLVD/ EHV 218 A	Water			Sewer	Penalty			Garbage Service	Garbage Fuel Charge		Storm Drain	Deployed Abatement	Deposit	Miscellaneous							39.54			45.75				20.75			8.25									0	122.93	122.93CR			114.29	114.29	08/08/2022	08/31/2022	07/01/2022	07/31/2022	79						0218A						90852842						1						07/20/2022						37						06/20/2022						50						13						GAL							Past Due balances must be paid by 08/15/2022  in order to avoid a $50 fee and disconnection of water service.	If you would like to enroll in paperless billing or pay your bills online please visit www.eaglemountaincity.com	130614	05/01/2022		Single Graph				GAL To	31	7																		84005	0	JUL	JUN	MAY	APR	MAR	FEB	JAN	DEC	NOV	OCT	SEP	AUG		7	6	5	4	3	2	1	12	11	10	9	8	0	13	21	0	0	0	0	0	0	0	0	0	0	0	0	0	0	0	0	0	0	0	0	0	0	0	
130614	038	EAGLE HEIGHTS VILLAGE II LLC		 EAGLE HEIGHTS VILLAGE II LLC		2587 E POWELL WAY				EAGLE MOUNTAIN UT 84005-2300	UT	84005-2300	87	3816 N STALLION ST/ EHV 2 220 B	Water			Sewer	Penalty			Garbage Service	Garbage Fuel Charge		Storm Drain	Deployed Abatement	Deposit	Miscellaneous							40.62			45.75				9.50			8.25									0	106.28	106.28CR			104.12	104.12	08/08/2022	08/31/2022	07/01/2022	07/31/2022	27						0220B						89459745						1						07/20/2022						47						06/20/2022						61						14						GAL							Past Due balances must be paid by 08/15/2022  in order to avoid a $50 fee and disconnection of water service.	If you would like to enroll in paperless billing or pay your bills online please visit www.eaglemountaincity.com	130614	05/01/2022		Single Graph				GAL To	31	7																		84005	0	JUL	JUN	MAY	APR	MAR	FEB	JAN	DEC	NOV	OCT	SEP	AUG		7	6	5	4	3	2	1	12	11	10	9	8	0	14	16	9	0	0	0	0	0	0	0	0	0	0	0	0	0	0	0	0	0	0	0	0	0	0	
130614	034	EAGLE HEIGHTS VILLAGE II LLC		 EAGLE HEIGHTS VILLAGE II LLC		2587 E POWELL WAY				EAGLE MOUNTAIN UT 84005-2300	UT	84005-2300	87	3775 N OAK BLVD/ EHV 218 B	Water			Sewer	Penalty			Garbage Service	Garbage Fuel Charge		Storm Drain	Deployed Abatement	Deposit	Miscellaneous							39.54			45.75				14.50			8.25									0	109.12	109.12CR			108.04	108.04	08/08/2022	08/31/2022	07/01/2022	07/31/2022	79						0218B						90852846						1						07/20/2022						39						06/20/2022						52						13						GAL							Past Due balances must be paid by 08/15/2022  in order to avoid a $50 fee and disconnection of water service.	If you would like to enroll in paperless billing or pay your bills online please visit www.eaglemountaincity.com	130614	05/01/2022		Single Graph				GAL To	31	7																		84005	0	JUL	JUN	MAY	APR	MAR	FEB	JAN	DEC	NOV	OCT	SEP	AUG		7	6	5	4	3	2	1	12	11	10	9	8	0	13	14	8	0	0	0	0	0	0	0	0	0	0	0	0	0	0	0	0	0	0	0	0	0	0	
130614	008	EAGLE HEIGHTS VILLAGE II LLC		 EAGLE HEIGHTS VILLAGE II LLC		2587 E POWELL WAY				EAGLE MOUNTAIN UT 84005-2300	UT	84005-2300	87	3734 N EAGLE MEADOWS DR/ EHV 205 A	Water			Sewer	Penalty			Garbage Service	Garbage Fuel Charge		Storm Drain	Deployed Abatement	Deposit	Miscellaneous							62.22			45.75				20.75			8.25									0	137.99	137.99CR			136.97	136.97	08/08/2022	08/31/2022	07/01/2022	07/31/2022	79						00205						92075990						1						07/20/2022						63						06/20/2022						97						34						GAL							Past Due balances must be paid by 08/15/2022  in order to avoid a $50 fee and disconnection of water service.	If you would like to enroll in paperless billing or pay your bills online please visit www.eaglemountaincity.com	130614	05/01/2022		Single Graph				GAL To	31	7																		84005	0	JUL	JUN	MAY	APR	MAR	FEB	JAN	DEC	NOV	OCT	SEP	AUG		7	6	5	4	3	2	1	12	11	10	9	8	0	34	42	17	0	0	0	0	0	0	0	0	0	0	0	0	0	0	0	0	0	0	0	0	0	0	
130614	053	EAGLE HEIGHTS VILLAGE II LLC		 EAGLE HEIGHTS VILLAGE II LLC		2587 E POWELL WAY				EAGLE MOUNTAIN UT 84005-2300	UT	84005-2300	87	3809 N STALLION ST/ EHV 2 228 A	Water			Sewer	Penalty			Garbage Service	Garbage Fuel Charge		Storm Drain	Deployed Abatement	Deposit	Miscellaneous							52.50			45.75				9.50			8.25									0	114.92	114.92CR			116.00	116.00	08/08/2022	08/31/2022	07/01/2022	07/31/2022	27						0228A						88531774						1						07/20/2022						51						06/20/2022						76						25						GAL							Past Due balances must be paid by 08/15/2022  in order to avoid a $50 fee and disconnection of water service.	If you would like to enroll in paperless billing or pay your bills online please visit www.eaglemountaincity.com	130614	05/01/2022		Single Graph				GAL To	31	7																		84005	0	JUL	JUN	MAY	APR	MAR	FEB	JAN	DEC	NOV	OCT	SEP	AUG		7	6	5	4	3	2	1	12	11	10	9	8	0	25	24	0	0	0	0	0	0	0	0	0	0	0	0	0	0	0	0	0	0	0	0	0	0	0	
130614	054	EAGLE HEIGHTS VILLAGE II LLC		 EAGLE HEIGHTS VILLAGE II LLC		2587 E POWELL WAY				EAGLE MOUNTAIN UT 84005-2300	UT	84005-2300	87	3809 N STALLION ST/ EHV 2 228 B	Water			Sewer	Penalty			Garbage Service	Garbage Fuel Charge		Storm Drain	Deployed Abatement	Deposit	Miscellaneous							41.70			45.75				9.50			8.25									0	111.68	111.68CR			105.20	105.20	08/08/2022	08/31/2022	07/01/2022	07/31/2022	27						0228B						88531769						1						07/20/2022						55						06/20/2022						70						15						GAL							Past Due balances must be paid by 08/15/2022  in order to avoid a $50 fee and disconnection of water service.	If you would like to enroll in paperless billing or pay your bills online please visit www.eaglemountaincity.com	130614	05/01/2022		Single Graph				GAL To	31	7																		84005	0	JUL	JUN	MAY	APR	MAR	FEB	JAN	DEC	NOV	OCT	SEP	AUG		7	6	5	4	3	2	1	12	11	10	9	8	0	15	21	0	0	0	0	0	0	0	0	0	0	0	0	0	0	0	0	0	0	0	0	0	0	0	
130614	025	EAGLE HEIGHTS VILLAGE II LLC		 EAGLE HEIGHTS VILLAGE II LLC		2587 E POWELL WAY				EAGLE MOUNTAIN UT 84005-2300	UT	84005-2300	87	3712 N OAK BLVD/ EHV 214 A	Water			Sewer	Penalty			Garbage Service	Garbage Fuel Charge		Storm Drain	Deployed Abatement	Deposit	Miscellaneous							25.50			45.75				9.50			8.25									0	89.00	89.00CR			89.00	89.00	08/08/2022	08/31/2022	07/01/2022	07/31/2022																			0												0												0						0													Past Due balances must be paid by 08/15/2022  in order to avoid a $50 fee and disconnection of water service.	If you would like to enroll in paperless billing or pay your bills online please visit www.eaglemountaincity.com	130614	05/01/2022		Single Graph					31	7																		84005	0														0	0	0	0	0	0	0	0	0	0	0	0	0	0	0	0	0	0	0	0	0	0	0	0	0	0	0	0	0	0	0	0	0	0	0	0	0	0	
130614	029	EAGLE HEIGHTS VILLAGE II LLC		 EAGLE HEIGHTS VILLAGE II LLC		2587 E POWELL WAY				EAGLE MOUNTAIN UT 84005-2300	UT	84005-2300	87	3735 N OAK BLVD/ EHV 216 A	Water			Sewer	Penalty			Garbage Service	Garbage Fuel Charge		Storm Drain	Deployed Abatement	Deposit	Miscellaneous							36.30			45.75				9.50			8.25									0	100.88	100.88CR			99.80	99.80	08/08/2022	08/31/2022	07/01/2022	07/31/2022	79						0216A						90852756						1						07/20/2022						24						06/20/2022						34						10						GAL							Past Due balances must be paid by 08/15/2022  in order to avoid a $50 fee and disconnection of water service.	If you would like to enroll in paperless billing or pay your bills online please visit www.eaglemountaincity.com	130614	05/01/2022		Single Graph				GAL To	31	7																		84005	0	JUL	JUN	MAY	APR	MAR	FEB	JAN	DEC	NOV	OCT	SEP	AUG		7	6	5	4	3	2	1	12	11	10	9	8	0	10	11	6	0	0	0	0	0	0	0	0	0	0	0	0	0	0	0	0	0	0	0	0	0	0	
130614	001	EAGLE HEIGHTS VILLAGE II LLC		 EAGLE HEIGHTS VILLAGE II LLC		2587 E POWELL WAY				EAGLE MOUNTAIN UT 84005-2300	UT	84005-2300	87	3814 N EAGLE MEADOWS DR/ EHV 201 B	Water			Sewer	Penalty			Garbage Service	Garbage Fuel Charge		Storm Drain	Deployed Abatement	Deposit	Miscellaneous							46.02			45.75				14.50			8.25									0	122.08	122.08CR			114.52	114.52	08/08/2022	08/31/2022	07/01/2022	07/31/2022	79						00201						92075988						1						07/20/2022						39						06/20/2022						58						19						GAL							Past Due balances must be paid by 08/15/2022  in order to avoid a $50 fee and disconnection of water service.	If you would like to enroll in paperless billing or pay your bills online please visit www.eaglemountaincity.com	130614	05/01/2022		Single Graph				GAL To	31	7																		84005	0	JUL	JUN	MAY	APR	MAR	FEB	JAN	DEC	NOV	OCT	SEP	AUG		7	6	5	4	3	2	1	12	11	10	9	8	0	19	26	12	0	0	0	0	0	0	0	0	0	0	0	0	0	0	0	0	0	0	0	0	0	0	
130614	036	EAGLE HEIGHTS VILLAGE II LLC		 EAGLE HEIGHTS VILLAGE II LLC		2587 E POWELL WAY				EAGLE MOUNTAIN UT 84005-2300	UT	84005-2300	87	3795 N OAK BLVD/ EHV 219 B	Water			Sewer	Penalty			Garbage Service	Garbage Fuel Charge		Storm Drain	Deployed Abatement	Deposit	Miscellaneous							41.70			45.75				9.50			8.25									0	109.52	109.52CR			105.20	105.20	08/08/2022	08/31/2022	07/01/2022	07/31/2022	79						0219B						90852847						1						07/20/2022						53						06/20/2022						68						15						GAL							Past Due balances must be paid by 08/15/2022  in order to avoid a $50 fee and disconnection of water service.	If you would like to enroll in paperless billing or pay your bills online please visit www.eaglemountaincity.com	130614	05/01/2022		Single Graph				GAL To	31	7																		84005	0	JUL	JUN	MAY	APR	MAR	FEB	JAN	DEC	NOV	OCT	SEP	AUG		7	6	5	4	3	2	1	12	11	10	9	8	0	15	19	10	0	0	0	0	0	0	0	0	0	0	0	0	0	0	0	0	0	0	0	0	0	0	
130614	049	EAGLE HEIGHTS VILLAGE II LLC		 EAGLE HEIGHTS VILLAGE II LLC		2587 E POWELL WAY				EAGLE MOUNTAIN UT 84005-2300	UT	84005-2300	87	3767 N STALLION ST / EHV 226 A	Water			Sewer	Penalty			Garbage Service	Garbage Fuel Charge		Storm Drain	Deployed Abatement	Deposit	Miscellaneous							47.10			45.75				9.50			8.25									0	111.68	111.68CR			110.60	110.60	08/08/2022	08/31/2022	07/01/2022	07/31/2022	27						0226A						88531775						1						07/20/2022						83						06/20/2022						103						20						GAL							Past Due balances must be paid by 08/15/2022  in order to avoid a $50 fee and disconnection of water service.	If you would like to enroll in paperless billing or pay your bills online please visit www.eaglemountaincity.com	130614	05/01/2022		Single Graph				GAL To	31	7																		84005	0	JUL	JUN	MAY	APR	MAR	FEB	JAN	DEC	NOV	OCT	SEP	AUG		7	6	5	4	3	2	1	12	11	10	9	8	0	20	21	0	0	0	0	0	0	0	0	0	0	0	0	0	0	0	0	0	0	0	0	0	0	0	
130614	045	EAGLE HEIGHTS VILLAGE II LLC		 EAGLE HEIGHTS VILLAGE II LLC		2587 E POWELL WAY				EAGLE MOUNTAIN UT 84005-2300	UT	84005-2300	87	3736 N STALLION ST/ EHV 224 A	Water			Sewer	Penalty			Garbage Service	Garbage Fuel Charge		Storm Drain	Deployed Abatement	Deposit	Miscellaneous							40.62			45.75				14.50			8.25									0	110.20	110.20CR			109.12	109.12	08/08/2022	08/31/2022	07/01/2022	07/31/2022	27						0224A						89875794						1						07/20/2022						42						06/20/2022						56						14						GAL							Past Due balances must be paid by 08/15/2022  in order to avoid a $50 fee and disconnection of water service.	If you would like to enroll in paperless billing or pay your bills online please visit www.eaglemountaincity.com	130614	05/01/2022		Single Graph				GAL To	31	7																		84005	0	JUL	JUN	MAY	APR	MAR	FEB	JAN	DEC	NOV	OCT	SEP	AUG		7	6	5	4	3	2	1	12	11	10	9	8	0	14	15	0	0	0	0	0	0	0	0	0	0	0	0	0	0	0	0	0	0	0	0	0	0	0	
130614	040	EAGLE HEIGHTS VILLAGE II LLC		 EAGLE HEIGHTS VILLAGE II LLC		2587 E POWELL WAY				EAGLE MOUNTAIN UT 84005-2300	UT	84005-2300	87	3796 N STALLION ST/ EHV 2 221 B	Water			Sewer	Penalty			Garbage Service	Garbage Fuel Charge		Storm Drain	Deployed Abatement	Deposit	Miscellaneous							41.70			45.75				9.50			8.25									0	113.84	113.84CR			105.20	105.20	08/08/2022	08/31/2022	07/01/2022	07/31/2022	27						0221B						90852865						1						07/20/2022						47						06/20/2022						62						15						GAL							Past Due balances must be paid by 08/15/2022  in order to avoid a $50 fee and disconnection of water service.	If you would like to enroll in paperless billing or pay your bills online please visit www.eaglemountaincity.com	130614	05/01/2022		Single Graph				GAL To	31	7																		84005	0	JUL	JUN	MAY	APR	MAR	FEB	JAN	DEC	NOV	OCT	SEP	AUG		7	6	5	4	3	2	1	12	11	10	9	8	0	15	23	0	0	0	0	0	0	0	0	0	0	0	0	0	0	0	0	0	0	0	0	0	0	0	
130614	037	EAGLE HEIGHTS VILLAGE II LLC		 EAGLE HEIGHTS VILLAGE II LLC		2587 E POWELL WAY				EAGLE MOUNTAIN UT 84005-2300	UT	84005-2300	87	3816 N STALLION ST/ EHV 2 220 A	Water			Sewer	Penalty			Garbage Service	Garbage Fuel Charge		Storm Drain	Deployed Abatement	Deposit	Miscellaneous							40.62			45.75				9.50			8.25									0	105.20	105.20CR			104.12	104.12	08/08/2022	08/31/2022	07/01/2022	07/31/2022	27						0220A						90852864						1						07/20/2022						45						06/20/2022						59						14						GAL							Past Due balances must be paid by 08/15/2022  in order to avoid a $50 fee and disconnection of water service.	If you would like to enroll in paperless billing or pay your bills online please visit www.eaglemountaincity.com	130614	05/01/2022		Single Graph				GAL To	31	7																		84005	0	JUL	JUN	MAY	APR	MAR	FEB	JAN	DEC	NOV	OCT	SEP	AUG		7	6	5	4	3	2	1	12	11	10	9	8	0	14	15	8	0	0	0	0	0	0	0	0	0	0	0	0	0	0	0	0	0	0	0	0	0	0	
130614	051	EAGLE HEIGHTS VILLAGE II LLC		 EAGLE HEIGHTS VILLAGE II LLC		2587 E POWELL WAY				EAGLE MOUNTAIN UT 84005-2300	UT	84005-2300	87	3787 N STALLION ST/ EHV 2 227 A	Water			Sewer	Penalty			Garbage Service	Garbage Fuel Charge		Storm Drain	Deployed Abatement	Deposit	Miscellaneous							57.90			45.75				9.50			8.25									0	130.04	130.04CR			121.40	121.40	08/08/2022	08/31/2022	07/01/2022	07/31/2022	27						0227A						88531771						1						07/20/2022						105						06/20/2022						135						30						GAL							Past Due balances must be paid by 08/15/2022  in order to avoid a $50 fee and disconnection of water service.	If you would like to enroll in paperless billing or pay your bills online please visit www.eaglemountaincity.com	130614	05/01/2022		Single Graph				GAL To	31	7																		84005	0	JUL	JUN	MAY	APR	MAR	FEB	JAN	DEC	NOV	OCT	SEP	AUG		7	6	5	4	3	2	1	12	11	10	9	8	0	30	38	0	0	0	0	0	0	0	0	0	0	0	0	0	0	0	0	0	0	0	0	0	0	0	
130614	035	EAGLE HEIGHTS VILLAGE II LLC		 EAGLE HEIGHTS VILLAGE II LLC		2587 E POWELL WAY				EAGLE MOUNTAIN UT 84005-2300	UT	84005-2300	87	3795 N OAK BLVD/ EHV 219 A	Water			Sewer	Penalty			Garbage Service	Garbage Fuel Charge		Storm Drain	Deployed Abatement	Deposit	Miscellaneous							40.62			45.75				20.75			8.25									0	116.45	116.45CR			115.37	115.37	08/08/2022	08/31/2022	07/01/2022	07/31/2022	79						0219A						90852843						1						07/20/2022						50						06/20/2022						64						14						GAL							Past Due balances must be paid by 08/15/2022  in order to avoid a $50 fee and disconnection of water service.	If you would like to enroll in paperless billing or pay your bills online please visit www.eaglemountaincity.com	130614	05/01/2022		Single Graph				GAL To	31	7																		84005	0	JUL	JUN	MAY	APR	MAR	FEB	JAN	DEC	NOV	OCT	SEP	AUG		7	6	5	4	3	2	1	12	11	10	9	8	0	14	15	10	0	0	0	0	0	0	0	0	0	0	0	0	0	0	0	0	0	0	0	0	0	0	
130614	050	EAGLE HEIGHTS VILLAGE II LLC		 EAGLE HEIGHTS VILLAGE II LLC		2587 E POWELL WAY				EAGLE MOUNTAIN UT 84005-2300	UT	84005-2300	87	3767 N STALLION ST/ EHV 2 226 B	Water			Sewer	Penalty			Garbage Service	Garbage Fuel Charge		Storm Drain	Deployed Abatement	Deposit	Miscellaneous							51.42			45.75				14.50			8.25									0	123.16	123.16CR			119.92	119.92	08/08/2022	08/31/2022	07/01/2022	07/31/2022	27						0226B						88531776						1						07/20/2022						71						06/20/2022						95						24						GAL							Past Due balances must be paid by 08/15/2022  in order to avoid a $50 fee and disconnection of water service.	If you would like to enroll in paperless billing or pay your bills online please visit www.eaglemountaincity.com	130614	05/01/2022		Single Graph				GAL To	31	7																		84005	0	JUL	JUN	MAY	APR	MAR	FEB	JAN	DEC	NOV	OCT	SEP	AUG		7	6	5	4	3	2	1	12	11	10	9	8	0	24	27	0	0	0	0	0	0	0	0	0	0	0	0	0	0	0	0	0	0	0	0	0	0	0	
130614	030	EAGLE HEIGHTS VILLAGE II LLC		 EAGLE HEIGHTS VILLAGE II LLC		2587 E POWELL WAY				EAGLE MOUNTAIN UT 84005-2300	UT	84005-2300	87	3735 N OAK BLVD #B/ EHV 216 B	Water			Sewer	Penalty			Garbage Service	Garbage Fuel Charge		Storm Drain	Deployed Abatement	Deposit	Miscellaneous							43.86			45.75				9.50			8.25									0	105.39	105.39CR			107.36	107.36	08/08/2022	08/31/2022	07/01/2022	07/31/2022	79						0216B						90852752						1						07/20/2022						40						06/16/2022						57						17						GAL							Past Due balances must be paid by 08/15/2022  in order to avoid a $50 fee and disconnection of water service.	If you would like to enroll in paperless billing or pay your bills online please visit www.eaglemountaincity.com	130614	05/01/2022		Single Graph				GAL To	31	7																		84005	0	JUL	JUN	MAY	APR	MAR	FEB	JAN	DEC	NOV	OCT	SEP	AUG		7	6	5	4	3	2	1	12	11	10	9	8	0	17	12	10	0	0	0	0	0	0	0	0	0	0	0	0	0	0	0	0	0	0	0	0	0	0	
130614	031	EAGLE HEIGHTS VILLAGE II LLC		 EAGLE HEIGHTS VILLAGE II LLC		2587 E POWELL WAY				EAGLE MOUNTAIN UT 84005-2300	UT	84005-2300	87	3755 N OAK BLVD/ EHV 217 A	Water			Sewer	Penalty			Garbage Service	Garbage Fuel Charge		Storm Drain	Deployed Abatement	Deposit	Miscellaneous							41.70			45.75				20.75			8.25									0	116.45	116.45CR			116.45	116.45	08/08/2022	08/31/2022	07/01/2022	07/31/2022	79						0217A						90852845						1						07/20/2022						42						06/20/2022						57						15						GAL							Past Due balances must be paid by 08/15/2022  in order to avoid a $50 fee and disconnection of water service.	If you would like to enroll in paperless billing or pay your bills online please visit www.eaglemountaincity.com	130614	05/01/2022		Single Graph				GAL To	31	7																		84005	0	JUL	JUN	MAY	APR	MAR	FEB	JAN	DEC	NOV	OCT	SEP	AUG		7	6	5	4	3	2	1	12	11	10	9	8	0	15	15	8	0	0	0	0	0	0	0	0	0	0	0	0	0	0	0	0	0	0	0	0	0	0	
130614	027	EAGLE HEIGHTS VILLAGE II LLC		 EAGLE HEIGHTS VILLAGE II LLC		2587 E POWELL WAY				EAGLE MOUNTAIN UT 84005-2300	UT	84005-2300	87	3715 N OAK BLVD/ EHV 215 A	Water			Sewer	Penalty			Garbage Service	Garbage Fuel Charge		Storm Drain	Deployed Abatement	Deposit	Miscellaneous							41.70			45.75				9.50			8.25									0	104.12	104.12CR			105.20	105.20	08/08/2022	08/31/2022	07/01/2022	07/31/2022	27						0215B						89459741						1						07/15/2022						32						06/15/2022						47						15						GAL							Past Due balances must be paid by 08/15/2022  in order to avoid a $50 fee and disconnection of water service.	If you would like to enroll in paperless billing or pay your bills online please visit www.eaglemountaincity.com	130614	05/01/2022		Single Graph				GAL To	31	7																		84005	0	JUL	JUN	MAY	APR	MAR	FEB	JAN	DEC	NOV	OCT	SEP	AUG		7	6	5	4	3	2	1	12	11	10	9	8	0	15	14	8	0	0	0	0	0	0	0	0	0	0	0	0	0	0	0	0	0	0	0	0	0	0	
130614	016	EAGLE HEIGHTS VILLAGE II LLC		 EAGLE HEIGHTS VILLAGE II LLC		2587 E POWELL WAY				EAGLE MOUNTAIN UT 84005-2300	UT	84005-2300	87	3789 N EAGLE MEADOWS DR/ EHV 209 A	Water			Sewer	Penalty			Garbage Service	Garbage Fuel Charge		Storm Drain	Deployed Abatement	Deposit	Miscellaneous							37.38			45.75				9.50			8.25									0	105.20	105.20CR			100.88	100.88	08/08/2022	08/31/2022	07/01/2022	07/31/2022	79						0209A						90977304						1						07/20/2022						31						06/20/2022						42						11						GAL							Past Due balances must be paid by 08/15/2022  in order to avoid a $50 fee and disconnection of water service.	If you would like to enroll in paperless billing or pay your bills online please visit www.eaglemountaincity.com	130614	05/01/2022		Single Graph				GAL To	31	7																		84005	0	JUL	JUN	MAY	APR	MAR	FEB	JAN	DEC	NOV	OCT	SEP	AUG		7	6	5	4	3	2	1	12	11	10	9	8	0	11	15	8	0	0	0	0	0	0	0	0	0	0	0	0	0	0	0	0	0	0	0	0	0	0	
130614	011	EAGLE HEIGHTS VILLAGE II LLC		 EAGLE HEIGHTS VILLAGE II LLC		2587 E POWELL WAY				EAGLE MOUNTAIN UT 84005-2300	UT	84005-2300	87	3727 N EAGLE MEADOWS DR/ EHV 206 B	Water			Sewer	Penalty			Garbage Service	Garbage Fuel Charge		Storm Drain	Deployed Abatement	Deposit	Miscellaneous							25.50			45.75				9.50			8.25									0	89.00	89.00CR			89.00	89.00	08/08/2022	08/31/2022	07/01/2022	07/31/2022																			0												0												0						0													Past Due balances must be paid by 08/15/2022  in order to avoid a $50 fee and disconnection of water service.	If you would like to enroll in paperless billing or pay your bills online please visit www.eaglemountaincity.com	130614	05/01/2022		Single Graph					31	7																		84005	0														0	0	0	0	0	0	0	0	0	0	0	0	0	0	0	0	0	0	0	0	0	0	0	0	0	0	0	0	0	0	0	0	0	0	0	0	0	0	
130614	013	EAGLE HEIGHTS VILLAGE II LLC		 EAGLE HEIGHTS VILLAGE II LLC		2587 E POWELL WAY				EAGLE MOUNTAIN UT 84005-2300	UT	84005-2300	87	3749 N EAGLE MEADOWS DR/ EHV 207 B	Water			Sewer	Penalty			Garbage Service	Garbage Fuel Charge		Storm Drain	Deployed Abatement	Deposit	Miscellaneous							41.70			45.75				9.50			8.25									0	106.28	106.28CR			105.20	105.20	08/08/2022	08/31/2022	07/01/2022	07/31/2022	79						0207B						91727785						1						07/20/2022						30						06/20/2022						45						15						GAL							Past Due balances must be paid by 08/15/2022  in order to avoid a $50 fee and disconnection of water service.	If you would like to enroll in paperless billing or pay your bills online please visit www.eaglemountaincity.com	130614	05/01/2022		Single Graph				GAL To	31	7																		84005	0	JUL	JUN	MAY	APR	MAR	FEB	JAN	DEC	NOV	OCT	SEP	AUG		7	6	5	4	3	2	1	12	11	10	9	8	0	15	16	8	0	0	0	0	0	0	0	0	0	0	0	0	0	0	0	0	0	0	0	0	0	0	
130614	043	EAGLE HEIGHTS VILLAGE II LLC		 EAGLE HEIGHTS VILLAGE II LLC		2587 E POWELL WAY				EAGLE MOUNTAIN UT 84005-2300	UT	84005-2300	87	3756 N STALLION ST/ EHV 2 223 A	Water			Sewer	Penalty			Garbage Service	Garbage Fuel Charge		Storm Drain	Deployed Abatement	Deposit	Miscellaneous							36.30			45.75				9.50			8.25									0	100.88	100.88CR			99.80	99.80	08/08/2022	08/31/2022	07/01/2022	07/31/2022	27						0223A						89875793						1						07/20/2022						21						06/20/2022						31						10						GAL							Past Due balances must be paid by 08/15/2022  in order to avoid a $50 fee and disconnection of water service.	If you would like to enroll in paperless billing or pay your bills online please visit www.eaglemountaincity.com	130614	05/01/2022		Single Graph				GAL To	31	7																		84005	0	JUL	JUN	MAY	APR	MAR	FEB	JAN	DEC	NOV	OCT	SEP	AUG		7	6	5	4	3	2	1	12	11	10	9	8	0	10	11	0	0	0	0	0	0	0	0	0	0	0	0	0	0	0	0	0	0	0	0	0	0	0	
130614	023	EAGLE HEIGHTS VILLAGE II LLC		 EAGLE HEIGHTS VILLAGE II LLC		2587 E POWELL WAY				EAGLE MOUNTAIN UT 84005-2300	UT	84005-2300	87	3732 N OAK BLVD/ EHV 213 A	Water			Sewer	Penalty			Garbage Service	Garbage Fuel Charge		Storm Drain	Deployed Abatement	Deposit	Miscellaneous							49.26			45.75				9.50			8.25									0	89.00	89.00CR			112.76	112.76	08/08/2022	08/31/2022	07/01/2022	07/31/2022	85						0213A						89540494						1						07/20/2022						0						05/31/2022						22						22						GAL							Past Due balances must be paid by 08/15/2022  in order to avoid a $50 fee and disconnection of water service.	If you would like to enroll in paperless billing or pay your bills online please visit www.eaglemountaincity.com	130614	05/01/2022		Single Graph				GAL To	31	7																		84005	0	JUL	JUN	MAY	APR	MAR	FEB	JAN	DEC	NOV	OCT	SEP	AUG		7	6	5	4	3	2	1	12	11	10	9	8	0	22	0	0	0	0	0	0	0	0	0	0	0	0	0	0	0	0	0	0	0	0	0	0	0	0	
130614	007	EAGLE HEIGHTS VILLAGE II LLC		 EAGLE HEIGHTS VILLAGE II LLC		2587 E POWELL WAY				EAGLE MOUNTAIN UT 84005-2300	UT	84005-2300	87	3754 N EAGLE MEADOWS DR/ EHV 204 B	Water			Sewer	Penalty			Garbage Service	Garbage Fuel Charge		Storm Drain	Deployed Abatement	Deposit	Miscellaneous							56.82			45.75				9.50			8.25									0	128.96	128.96CR			120.32	120.32	08/08/2022	08/31/2022	07/01/2022	07/31/2022	79						0204B						92075985						1						07/20/2022						55						06/20/2022						84						29						GAL							Past Due balances must be paid by 08/15/2022  in order to avoid a $50 fee and disconnection of water service.	If you would like to enroll in paperless billing or pay your bills online please visit www.eaglemountaincity.com	130614	05/01/2022		Single Graph				GAL To	31	7																		84005	0	JUL	JUN	MAY	APR	MAR	FEB	JAN	DEC	NOV	OCT	SEP	AUG		7	6	5	4	3	2	1	12	11	10	9	8	0	29	37	13	0	0	0	0	0	0	0	0	0	0	0	0	0	0	0	0	0	0	0	0	0	0	
130614	019	EAGLE HEIGHTS VILLAGE II LLC		 EAGLE HEIGHTS VILLAGE II LLC		2587 E POWELL WAY				EAGLE MOUNTAIN UT 84005-2300	UT	84005-2300	87	3772 N OAK BLVD/ EHV 211 A	Water			Sewer	Penalty			Garbage Service	Garbage Fuel Charge		Storm Drain	Deployed Abatement	Deposit	Miscellaneous							49.91			45.75				9.50			8.25									0	89.00	89.00CR			113.41	113.41	08/08/2022	08/31/2022	07/01/2022	07/31/2022	85						0211A						21180985						1						07/20/2022						0						06/02/2022						22						22						GAL							Past Due balances must be paid by 08/15/2022  in order to avoid a $50 fee and disconnection of water service.	If you would like to enroll in paperless billing or pay your bills online please visit www.eaglemountaincity.com	130614	05/01/2022		Single Graph				GAL To	31	7																		84005	0	JUL	JUN	MAY	APR	MAR	FEB	JAN	DEC	NOV	OCT	SEP	AUG		7	6	5	4	3	2	1	12	11	10	9	8	0	22	0	0	0	0	0	0	0	0	0	0	0	0	0	0	0	0	0	0	0	0	0	0	0	0	
130614	010	EAGLE HEIGHTS VILLAGE II LLC		 EAGLE HEIGHTS VILLAGE II LLC		2587 E POWELL WAY				EAGLE MOUNTAIN UT 84005-2300	UT	84005-2300	87	3727 N EAGLE MEADOWS DR/ EHV 206 A	Water			Sewer	Penalty			Garbage Service	Garbage Fuel Charge		Storm Drain	Deployed Abatement	Deposit	Miscellaneous							25.50			45.75				9.50			8.25									0	89.00	89.00CR			89.00	89.00	08/08/2022	08/31/2022	07/01/2022	07/31/2022																			0												0												0						0													Past Due balances must be paid by 08/15/2022  in order to avoid a $50 fee and disconnection of water service.	If you would like to enroll in paperless billing or pay your bills online please visit www.eaglemountaincity.com	130614	05/01/2022		Single Graph					31	7																		84005	0														0	0	0	0	0	0	0	0	0	0	0	0	0	0	0	0	0	0	0	0	0	0	0	0	0	0	0	0	0	0	0	0	0	0	0	0	0	0	
119598	001	POMBO	JOSEPH	JOSEPH POMBO		9292 N HAWK LN				EAGLE MOUNTAIN UT 84005-3111	UT	84005-3111	92	1757 E AMERICAN WAY #3 /CLPK 3	Water			Sewer	Penalty			Garbage Service	Garbage Fuel Charge		Storm Drain	Deployed Abatement	Deposit	Miscellaneous							21.32			45.75				9.50			8.25									0	127.77	127.77CR			84.82	84.82	08/08/2022	08/31/2022	07/01/2022	07/31/2022	21						00003						34300440						1						07/15/2022						768						06/20/2022						764						-3						GAL							Past Due balances must be paid by 08/15/2022  in order to avoid a $50 fee and disconnection of water service.	If you would like to enroll in paperless billing or pay your bills online please visit www.eaglemountaincity.com	119598	05/20/2022		Single Graph				GAL To	31	7																		84005	0	JUL	JUN	MAY	APR	MAR	FEB	JAN	DEC	NOV	OCT	SEP	AUG		7	6	5	4	3	2	1	12	11	10	9	8	0	-3	4	0	0	0	0	0	0	0	0	0	0	0	0	0	0	0	0	0	0	0	0	0	0	0	
119598	000	POMBO	JOSEPH	JOSEPH POMBO		9292 N HAWK LN				EAGLE MOUNTAIN UT 84005-3111	UT	84005-3111	92	9292 N HAWK LN/ MR 207	Water			Sewer	Penalty			Garbage Service	Garbage Fuel Charge		Storm Drain	Deployed Abatement	Deposit	Miscellaneous							117.36			45.75				22.56			8.25									0	206.38	206.38CR			193.92	193.92	08/08/2022	08/31/2022	07/01/2022	07/31/2022	03						00207						86814867						1						07/20/2022						864						06/20/2022						948						84						GAL							Past Due balances must be paid by 08/15/2022  in order to avoid a $50 fee and disconnection of water service.	If you would like to enroll in paperless billing or pay your bills online please visit www.eaglemountaincity.com	119598	10/30/2017		Single Graph				GAL To	31	7																		84005	0	JUL	JUN	MAY	APR	MAR	FEB	JAN	DEC	NOV	OCT	SEP	AUG		7	6	5	4	3	2	1	12	11	10	9	8	0	84	102	77	78	6	4	7	12	5	31	92	80	0	50	67	52	39	6	6	6	6	14	17	70	37	
119598	002	POMBO	JOSEPH	JOSEPH POMBO		9292 N HAWK LN				EAGLE MOUNTAIN UT 84005-3111	UT	84005-3111	92	3988 E SMITH RANCH RD/ TC 175	Water			Sewer	Penalty			Garbage Service	Garbage Fuel Charge		Storm Drain	Deployed Abatement	Deposit	Miscellaneous							26.80			45.75				14.50			8.25									0	94.00	94.00CR			95.30	95.30	08/08/2022	08/31/2022	07/01/2022	07/31/2022	37						00175						48223599						1						07/19/2022						805						06/01/2022						806						1						GAL							Past Due balances must be paid by 08/15/2022  in order to avoid a $50 fee and disconnection of water service.	If you would like to enroll in paperless billing or pay your bills online please visit www.eaglemountaincity.com	119598	06/01/2022		Single Graph				GAL To	31	7																		84005	0	JUL	JUN	MAY	APR	MAR	FEB	JAN	DEC	NOV	OCT	SEP	AUG		7	6	5	4	3	2	1	12	11	10	9	8	0	1	0	0	0	0	0	0	0	0	0	0	0	0	0	0	0	0	0	0	0	0	0	0	0	0	
119598	003	POMBO	JOSEPH	JOSEPH POMBO		9292 N HAWK LN				EAGLE MOUNTAIN UT 84005-3111	UT	84005-3111	92	1796 E AMERICAN WAY #4/ CLPK 233	Water			Sewer	Penalty			Garbage Service	Garbage Fuel Charge		Storm Drain	Deployed Abatement	Deposit	Miscellaneous							21.42			38.37				7.97			6.92									0		0.00CR			74.68	74.68	08/08/2022	08/31/2022	07/06/2022	07/31/2022	21						00233						35543916						1						07/15/2022						460						07/06/2022						460						0						GAL							Past Due balances must be paid by 08/15/2022  in order to avoid a $50 fee and disconnection of water service.	If you would like to enroll in paperless billing or pay your bills online please visit www.eaglemountaincity.com	119598	07/06/2022		Single Graph				GAL To	31	7																		84005	0	JUL	JUN	MAY	APR	MAR	FEB	JAN	DEC	NOV	OCT	SEP	AUG		7	6	5	4	3	2	1	12	11	10	9	8	0	0	0	0	0	0	0	0	0	0	0	0	0	0	0	0	0	0	0	0	0	0	0	0	0	0	
003329	000	ALLRED	JANETTE	JANETTE ALLRED		3327 E SHORT RD				EAGLE MOUNTAIN UT 84005-3269	UT	84005-3269	27	3327 E SHORT RD/ MR 143	Water			Sewer	Penalty			Garbage Service	Garbage Fuel Charge		Storm Drain	Deployed Abatement	Deposit	Miscellaneous							25.50							28.25			8.25									0	97.64	97.64CR			62.00	62.00	08/08/2022	08/31/2022	07/01/2022	07/31/2022																			0												0												0						0													Past Due balances must be paid by 08/15/2022  in order to avoid a $50 fee and disconnection of water service.	If you would like to enroll in paperless billing or pay your bills online please visit www.eaglemountaincity.com	3329	06/22/1998		Single Graph			300060	GAL To	31	7																		84005	0	JUL	JUN	MAY	APR	MAR	FEB	JAN	DEC	NOV	OCT	SEP	AUG		7	6	5	4	3	2	1	12	11	10	9	8	0	0	33	33	0	114	119	119	0	0	380	35	0	0	158	19	33	17	15	192	0	0	0	98	189	67	
003329	001	ALLRED	JANETTE	JANETTE ALLRED		3327 E SHORT RD				EAGLE MOUNTAIN UT 84005-3269	UT	84005-3269	27	3330 E HARVEST LN/ MR 143	Water			Sewer	Penalty			Garbage Service	Garbage Fuel Charge		Storm Drain	Deployed Abatement	Deposit	Miscellaneous							25.50										8.25									0	33.75	33.75CR			33.75	33.75	08/08/2022	08/31/2022	07/01/2022	07/31/2022																			0												0												0						0													Past Due balances must be paid by 08/15/2022  in order to avoid a $50 fee and disconnection of water service.	If you would like to enroll in paperless billing or pay your bills online please visit www.eaglemountaincity.com	3329	07/07/2014		Single Graph					31	7																		84005	0														0	0	0	0	0	0	0	0	0	0	0	0	0	0	0	0	0	0	0	0	0	0	0	0	0	0	0	0	0	0	0	0	0	0	0	0	0	0	
115010	001	JACOBSEN	CHARISSE & ISAAC	CHARISSE & ISAAC JACOBSEN		9802 N FAUST STATION DR				EAGLE MOUNTAIN UT 84005-4006	UT	84005-4006	02	9745 N HORIZON DR/ VV A 507	Water			Sewer	Penalty			Garbage Service	Garbage Fuel Charge		Storm Drain	Deployed Abatement	Deposit	Miscellaneous							25.50							27.00			8.25									0	73.71	73.71CR			60.75	60.75	08/08/2022	08/31/2022	07/01/2022	07/31/2022																			0												0												0						0													Past Due balances must be paid by 08/15/2022  in order to avoid a $50 fee and disconnection of water service.	If you would like to enroll in paperless billing or pay your bills online please visit www.eaglemountaincity.com	115010	05/16/2022		Single Graph				GAL To	31	7																		84005	0	JUL	JUN	MAY	APR	MAR	FEB	JAN	DEC	NOV	OCT	SEP	AUG		7	6	5	4	3	2	1	12	11	10	9	8	0	0	12	0	0	0	0	0	0	0	0	0	0	0	0	0	0	0	0	0	0	0	0	0	0	0	
115010	000	JACOBSEN	CHARISSE & ISAAC	CHARISSE & ISAAC JACOBSEN		9802 N FAUST STATION DR				EAGLE MOUNTAIN UT 84005-4006	UT	84005-4006	02	9802 N FAUST STATION DR/ VV A 408	Water			Sewer	Penalty			Garbage Service	Garbage Fuel Charge		Storm Drain	Deployed Abatement	Deposit	Miscellaneous							66.54							15.75			8.25									0	91.62	91.62CR			90.54	90.54	08/08/2022	08/31/2022	07/01/2022	07/31/2022	06						00408						78414366						1						07/20/2022						1974						06/20/2022						2012						38						GAL							Past Due balances must be paid by 08/15/2022  in order to avoid a $50 fee and disconnection of water service.	If you would like to enroll in paperless billing or pay your bills online please visit www.eaglemountaincity.com	115010	02/13/2015		Single Graph				GAL To	31	7																		84005	0	JUL	JUN	MAY	APR	MAR	FEB	JAN	DEC	NOV	OCT	SEP	AUG		7	6	5	4	3	2	1	12	11	10	9	8	0	38	39	35	6	5	6	7	6	6	12	37	46	0	53	40	31	10	7	8	9	6	9	36	54	47	
125949	001	FOX	MARLA & DENNIS	MARLA & DENNIS FOX		1540 E BITTERBRUSH LN				EAGLE MOUNTAIN UT 84005-4127	UT	84005-4127	40	2125 E EMERALD AVE/ SF A2 223	Water			Sewer	Penalty			Garbage Service	Garbage Fuel Charge		Storm Drain	Deployed Abatement	Deposit	Miscellaneous							25.50			45.75							8.25									0		0.00CR			79.50	79.50	08/08/2022	08/31/2022	07/01/2022	07/31/2022	82						00223						92075835						1						07/20/2022						0						05/04/2022						0						0						GAL							Past Due balances must be paid by 08/15/2022  in order to avoid a $50 fee and disconnection of water service.	If you would like to enroll in paperless billing or pay your bills online please visit www.eaglemountaincity.com	125949	07/01/2022		Single Graph				GAL To	31	7																		84005	0	JUL	JUN	MAY	APR	MAR	FEB	JAN	DEC	NOV	OCT	SEP	AUG		7	6	5	4	3	2	1	12	11	10	9	8	0	0	0	0	0	0	0	0	0	0	0	0	0	0	0	0	0	0	0	0	0	0	0	0	0	0	
125949	000	FOX	MARLA & DENNIS	MARLA & DENNIS FOX		1540 E BITTERBRUSH LN				EAGLE MOUNTAIN UT 84005-4127	UT	84005-4127	40	1540 E BITTERBRUSH LN/ SV 69	Water			Sewer	Penalty			Garbage Service	Garbage Fuel Charge		Storm Drain	Deployed Abatement	Deposit	Miscellaneous							102.54							9.50			8.25									0	98.33	98.33CR			120.29	120.29	08/08/2022	08/31/2022	07/01/2022	07/31/2022	41						00069						76123487						1						07/20/2022						2001						06/20/2022						2072						71						GAL							Past Due balances must be paid by 08/15/2022  in order to avoid a $50 fee and disconnection of water service.	If you would like to enroll in paperless billing or pay your bills online please visit www.eaglemountaincity.com	125949	08/13/2020		Single Graph				GAL To	31	7																		84005	0	JUL	JUN	MAY	APR	MAR	FEB	JAN	DEC	NOV	OCT	SEP	AUG		7	6	5	4	3	2	1	12	11	10	9	8	0	71	51	11	53	44	29	18	7	9	41	75	73	0	84	68	38	4	4	3	11	4	63	0	0	0	
129724	000	ANDERSON	SHELLY	SHELLY ANDERSON		1176 E IRA HODGES SCENIC PKWY				EAGLE MOUNTAIN UT 84005-4246	UT	84005-4246	76	2051 E SPRING ST/ EPT 95	Water			Sewer	Penalty			Garbage Service	Garbage Fuel Charge		Storm Drain	Deployed Abatement	Deposit	Miscellaneous							57.15			45.75				25.75			8.25									0	155.37	155.37CR			136.90	136.90	08/08/2022	08/31/2022	07/01/2022	07/31/2022	27						00095						35543887						3						07/15/2022						2907						06/20/2022						2936						29						Decatherm							Past Due balances must be paid by 08/15/2022  in order to avoid a $50 fee and disconnection of water service.	If you would like to enroll in paperless billing or pay your bills online please visit www.eaglemountaincity.com	129724	03/01/2022		Single Graph				GAL To	31	7																		84005	0	JUL	JUN	MAY	APR	MAR	FEB	JAN	DEC	NOV	OCT	SEP	AUG		7	6	5	4	3	2	1	12	11	10	9	8	0	29	46	21	11	6	0	0	0	0	0	0	0	0	0	0	0	0	0	0	0	0	0	0	0	0	
129719	000	ANDERSON	SHELLY	SHELLY ANDERSON		1176 E IRA HODGES SCENIC PKWY				EAGLE MOUNTAIN UT 84005-4246	UT	84005-4246	76	2125 E SPRING ST/ EPT 92	Water			Sewer	Penalty			Garbage Service	Garbage Fuel Charge		Storm Drain	Deployed Abatement	Deposit	Miscellaneous							54.26			45.75				14.50			8.25									0	230.92	230.92CR			122.76	122.76	08/08/2022	08/31/2022	07/01/2022	07/31/2022	27						00092						44930566						1						07/15/2022						1924						06/20/2022						1950						26						GAL							Past Due balances must be paid by 08/15/2022  in order to avoid a $50 fee and disconnection of water service.	If you would like to enroll in paperless billing or pay your bills online please visit www.eaglemountaincity.com	129719	03/01/2022		Single Graph				GAL To	31	7																		84005	0	JUL	JUN	MAY	APR	MAR	FEB	JAN	DEC	NOV	OCT	SEP	AUG		7	6	5	4	3	2	1	12	11	10	9	8	0	26	20	5	5	2	0	0	0	0	0	0	0	0	0	0	0	0	0	0	0	0	0	0	0	0	
100973	001	MONSON	AARON	AARON MONSON		9552 N ELK RIDGE DR				EAGLE MOUNTAIN UT 84005-4257	UT	84005-4257	52	3250 E OX BRIDGE/ SPR 123	Water			Sewer	Penalty			Garbage Service	Garbage Fuel Charge		Storm Drain	Deployed Abatement	Deposit	Miscellaneous							70.86			45.75				15.75			8.25									0	130.89	130.89CR			140.61	140.61	08/08/2022	08/31/2022	07/01/2022	07/31/2022	74						00123						81960976						1						07/19/2022						1070						06/20/2022						1112						42						GAL							Past Due balances must be paid by 08/15/2022  in order to avoid a $50 fee and disconnection of water service.	If you would like to enroll in paperless billing or pay your bills online please visit www.eaglemountaincity.com	100973	03/28/2017		Single Graph				GAL To	31	7																		84005	0	JUL	JUN	MAY	APR	MAR	FEB	JAN	DEC	NOV	OCT	SEP	AUG		7	6	5	4	3	2	1	12	11	10	9	8	0	42	33	11	10	9	8	10	8	7	23	50	50	0	55	45	11	9	7	7	10	7	8	43	49	60	
100973	000	MONSON	AARON	AARON MONSON		9552 N ELK RIDGE DR				EAGLE MOUNTAIN UT 84005-4257	UT	84005-4257	52	9552 N ELK RIDGE DR/ MR 116	Water			Sewer	Penalty			Garbage Service	Garbage Fuel Charge		Storm Drain	Deployed Abatement	Deposit	Miscellaneous							128.25							15.75			8.25									0	190.60	190.60CR			152.25	152.25	08/08/2022	08/31/2022	07/01/2022	07/31/2022	03						00116						43043699						1						07/19/2022						6935						06/20/2022						7028						93						GAL							Past Due balances must be paid by 08/15/2022  in order to avoid a $50 fee and disconnection of water service.	If you would like to enroll in paperless billing or pay your bills online please visit www.eaglemountaincity.com	100973	02/03/2005		Single Graph			300280	GAL To	31	7																		84005	0	JUL	JUN	MAY	APR	MAR	FEB	JAN	DEC	NOV	OCT	SEP	AUG		7	6	5	4	3	2	1	12	11	10	9	8	0	93	126	101	142	15	13	19	13	13	83	86	73	0	95	141	71	72	11	12	14	13	16	65	42	72	
127359	000	BARNEY	KRIS	KRIS BARNEY		1756 E WEST PINION CIR				EAGLE MOUNTAIN UT 84005-4280	UT	84005-4280	56	1756 E WEST PINION CIR/ LND 27	Water			Sewer	Penalty			Garbage Service	Garbage Fuel Charge		Storm Drain	Deployed Abatement	Deposit	Miscellaneous							49.26			45.75				14.50			8.25									0	111.28	111.28CR			117.76	117.76	08/08/2022	08/31/2022	07/01/2022	07/31/2022	22						00027						80066216						1						07/15/2022						624						06/15/2022						646						22						GAL							Past Due balances must be paid by 08/15/2022  in order to avoid a $50 fee and disconnection of water service.	If you would like to enroll in paperless billing or pay your bills online please visit www.eaglemountaincity.com	127359	05/25/2021		Single Graph				GAL To	31	7																		84005	0	JUL	JUN	MAY	APR	MAR	FEB	JAN	DEC	NOV	OCT	SEP	AUG		7	6	5	4	3	2	1	12	11	10	9	8	0	22	16	18	8	2	2	4	2	1	11	21	18	0	21	15	0	0	0	0	0	0	0	0	0	0	
127359	001	BARNEY	KRIS	KRIS BARNEY		1756 E WEST PINION CIR				EAGLE MOUNTAIN UT 84005-4280	UT	84005-4280	56	2074 E SHADOW DR/ EPT 334	Water			Sewer	Penalty			Garbage Service	Garbage Fuel Charge		Storm Drain	Deployed Abatement	Deposit	Miscellaneous							36.51			45.75				18.53			8.25									0		0.00CR			109.04	109.04	08/08/2022	08/31/2022	07/01/2022	07/31/2022	27						00334						32968945						2						07/15/2022						2627						07/01/2022						2637						10						Kilowatt							Past Due balances must be paid by 08/15/2022  in order to avoid a $50 fee and disconnection of water service.	If you would like to enroll in paperless billing or pay your bills online please visit www.eaglemountaincity.com	127359	07/01/2022		Single Graph				GAL To	31	7																		84005	0	JUL	JUN	MAY	APR	MAR	FEB	JAN	DEC	NOV	OCT	SEP	AUG		7	6	5	4	3	2	1	12	11	10	9	8	0	10	0	0	0	0	0	0	0	0	0	0	0	0	0	0	0	0	0	0	0	0	0	0	0	0	
003440	000	JENSON	JAMES	JAMES JENSON		3257 E AUTUMN LN				EAGLE MOUNTAIN UT 84005-4340	UT	84005-4340	57	3257 E AUTUMN LN/ MR 132	Water			Sewer	Penalty			Garbage Service	Garbage Fuel Charge		Storm Drain	Deployed Abatement	Deposit	Miscellaneous							25.50							22.00			8.25									0	112.37	112.37CR			55.75	55.75	08/08/2022	08/31/2022	07/01/2022	07/31/2022	03						00132						34201966						1												0												0						0						GAL							Past Due balances must be paid by 08/15/2022  in order to avoid a $50 fee and disconnection of water service.	If you would like to enroll in paperless billing or pay your bills online please visit www.eaglemountaincity.com	3440	12/09/1999		Single Graph			300840	GAL To	31	7																		84005	0	JUL	JUN	MAY	APR	MAR	FEB	JAN	DEC	NOV	OCT	SEP	AUG		7	6	5	4	3	2	1	12	11	10	9	8	0	0	52	18	12	11	12	14	10	9	81	118	276	0	211	173	69	13	9	10	12	9	10	77	122	146	
003440	002	JENSON	JAMES	JAMES JENSON		3257 E AUTUMN LN				EAGLE MOUNTAIN UT 84005-4340	UT	84005-4340	57	3289 E AUTUMN LN/ MR 133	Water			Sewer	Penalty			Garbage Service	Garbage Fuel Charge		Storm Drain	Deployed Abatement	Deposit	Miscellaneous							96.78							15.75			8.25									0	143.46	143.46CR			120.78	120.78	08/08/2022	08/31/2022	07/01/2022	07/31/2022	03						00133						86814804						1						07/20/2022						1334						06/20/2022						1400						66						GAL							Past Due balances must be paid by 08/15/2022  in order to avoid a $50 fee and disconnection of water service.	If you would like to enroll in paperless billing or pay your bills online please visit www.eaglemountaincity.com	3440	04/22/2009		Single Graph				GAL To	31	7																		84005	0	JUL	JUN	MAY	APR	MAR	FEB	JAN	DEC	NOV	OCT	SEP	AUG		7	6	5	4	3	2	1	12	11	10	9	8	0	66	87	55	5	6	5	6	5	6	86	110	103	0	107	82	53	8	6	6	9	7	6	51	71	81	
129079	000	GUTIERREZ	ANA	ANA GUTIERREZ		2077 E SHADOW DR				EAGLE MOUNTAIN UT 84005-4393	UT	84005-4393	77	3434 E WINDHOVER CIR/ CHR 40	Water			Sewer	Penalty			Garbage Service	Garbage Fuel Charge		Storm Drain	Deployed Abatement	Deposit	Miscellaneous							55.09			45.75				14.50			8.25									0	102.02	102.02CR			123.59	123.59	08/08/2022	08/31/2022	07/01/2022	07/31/2022	11						00040						43045031						1						07/18/2022						949						06/17/2022						976						27						GAL							Past Due balances must be paid by 08/15/2022  in order to avoid a $50 fee and disconnection of water service.	If you would like to enroll in paperless billing or pay your bills online please visit www.eaglemountaincity.com	129079	12/06/2021		Single Graph				GAL To	31	7																		84005	0	JUL	JUN	MAY	APR	MAR	FEB	JAN	DEC	NOV	OCT	SEP	AUG		7	6	5	4	3	2	1	12	11	10	9	8	0	27	7	8	8	5	3	0	0	0	0	0	0	0	0	0	0	0	0	0	0	0	0	0	0	0	
117783	000	GUTIERREZ	ANA	ANA GUTIERREZ		2077 E SHADOW DR				EAGLE MTN UT 84005-4393	UT	84005-4393	77	2077 E SHADOW DR/ EPT 347	Water			Sewer	Penalty			Garbage Service	Garbage Fuel Charge		Storm Drain	Deployed Abatement	Deposit	Miscellaneous							51.42			45.75				14.50			8.25									0	117.76	117.76CR			119.92	119.92	08/08/2022	08/31/2022	07/01/2022	07/31/2022	27						00347						85533488						1						07/20/2022						695						06/20/2022						719						24						GAL							Past Due balances must be paid by 08/15/2022  in order to avoid a $50 fee and disconnection of water service.	If you would like to enroll in paperless billing or pay your bills online please visit www.eaglemountaincity.com	117783	10/25/2016		Single Graph				GAL To	31	7																		84043	0	JUL	JUN	MAY	APR	MAR	FEB	JAN	DEC	NOV	OCT	SEP	AUG		7	6	5	4	3	2	1	12	11	10	9	8	0	24	22	12	6	4	4	5	4	4	8	20	19	0	28	23	12	4	4	3	3	3	3	9	16	25	
006148	000	MONTGOMERY	DARRIN & LESLIE	DARRIN & LESLIE MONTGOMERY		9547 N ELK RIDGE DR				EAGLE MOUNTAIN UT 84005-4419	UT	84005-4419	47	9547 N ELK RIDGE DR/ MR 112	Water			Sewer	Penalty			Garbage Service	Garbage Fuel Charge		Storm Drain	Deployed Abatement	Deposit	Miscellaneous							64.38							20.75			8.25									0	84.74	84.74CR			93.38	93.38	08/08/2022	08/31/2022	07/01/2022	07/31/2022	03						00112						89218304						1						07/20/2022						354						06/20/2022						390						36						GAL							Past Due balances must be paid by 08/15/2022  in order to avoid a $50 fee and disconnection of water service.	If you would like to enroll in paperless billing or pay your bills online please visit www.eaglemountaincity.com	6148	08/01/2001		Single Graph			301370	GAL To	31	7																		84005	0	JUL	JUN	MAY	APR	MAR	FEB	JAN	DEC	NOV	OCT	SEP	AUG		7	6	5	4	3	2	1	12	11	10	9	8	0	36	28	18	11	9	8	16	10	12	15	36	42	0	68	43	38	4	7	16	16	15	17	56	47	55	
006148	001	MONTGOMERY	DARRIN & LESLIE	DARRIN & LESLIE MONTGOMERY		9547 N ELK RIDGE DR				EAGLE MOUNTAIN UT 84005-4419	UT	84005-4419	47	9581 N ELK RIDGE DR/ MR 113	Water			Sewer	Penalty			Garbage Service	Garbage Fuel Charge		Storm Drain	Deployed Abatement	Deposit	Miscellaneous							115.08							33.25			8.25									0	162.28	162.28CR			156.58	156.58	08/08/2022	08/31/2022	07/01/2022	07/31/2022	03						00113						88750532						1						07/20/2022						1006						06/20/2022						1088						82						GAL							Past Due balances must be paid by 08/15/2022  in order to avoid a $50 fee and disconnection of water service.	If you would like to enroll in paperless billing or pay your bills online please visit www.eaglemountaincity.com	6148	07/27/2009		Single Graph				GAL To	31	7																		84005	0	JUL	JUN	MAY	APR	MAR	FEB	JAN	DEC	NOV	OCT	SEP	AUG		7	6	5	4	3	2	1	12	11	10	9	8	0	82	87	34	31	24	28	33	23	71	69	79	71	0	92	71	58	25	19	20	26	19	39	87	51	97	
125243	001	MAGONIGAL	ROBERT	ROBERT MAGONIGAL		4068 E CLARK ST				EAGLE MOUNTAIN UT 84005-4452	UT	84005-4452	68	4068 E CLARK ST/ FMS 12	Water			Sewer	Penalty			Garbage Service	Garbage Fuel Charge		Storm Drain	Deployed Abatement	Deposit	Miscellaneous							76.37			45.75				14.50			8.25									0	109.37	110.00CR			144.87	144.24	08/08/2022	08/31/2022	07/01/2022	07/31/2022	49						00012						29554722						1						07/18/2022						3423						06/17/2022						3470						47						GAL							Past Due balances must be paid by 08/15/2022  in order to avoid a $50 fee and disconnection of water service.	If you would like to enroll in paperless billing or pay your bills online please visit www.eaglemountaincity.com	125243	12/01/2021		Single Graph				GAL To	31	7																		84005	0	JUL	JUN	MAY	APR	MAR	FEB	JAN	DEC	NOV	OCT	SEP	AUG		7	6	5	4	3	2	1	12	11	10	9	8	0	47	15	4	4	3	3	5	0	0	0	0	0	0	0	0	0	0	0	0	0	0	0	0	0	0	
125243	000	MAGONIGAL	ROBERT	ROBERT MAGONIGAL		4068 E CLARK ST				EAGLE MOUNTAIN UT 84005-4452	UT	84005-4452	68	4068 E CLARK ST/ FMS 12	Water			Sewer	Penalty			Garbage Service	Garbage Fuel Charge		Storm Drain	Deployed Abatement	Deposit	Miscellaneous																										0	183.49	0.00CR				183.49	08/08/2022	08/31/2022	07/01/2022	07/31/2022																			0												0												0						0													Past Due balances must be paid by 08/15/2022  in order to avoid a $50 fee and disconnection of water service.	If you would like to enroll in paperless billing or pay your bills online please visit www.eaglemountaincity.com	125243	08/03/2020	183.49	Single Graph				GAL To	31	7																		84005	0	JUL	JUN	MAY	APR	MAR	FEB	JAN	DEC	NOV	OCT	SEP	AUG		7	6	5	4	3	2	1	12	11	10	9	8	0	0	0	0	0	0	0	0	0	0	0	0	0	0	0	0	0	0	0	0	0	0	0	0	28	15	
107299	002	THE RANCHES GOLF COURSE		 THE RANCHES GOLF COURSE	c/o KELLY BECKER	4128 E CLUBHOUSE LN				EAGLE MOUNTAIN UT 84005-4468	UT	84005-4468	28	GOLF COURSE BATHROOM HOLE #2	Water			Sewer	Penalty			Garbage Service	Garbage Fuel Charge		Storm Drain	Deployed Abatement	Deposit	Miscellaneous							26.79			45.75							8.25									0	81.21	81.21CR			80.79	80.79	08/08/2022	08/31/2022	07/01/2022	07/31/2022	55						00055						30021169						1						07/19/2022						1289						06/20/2022						1290						1						GAL							Past Due balances must be paid by 08/15/2022  in order to avoid a $50 fee and disconnection of water service.	If you would like to enroll in paperless billing or pay your bills online please visit www.eaglemountaincity.com	107299	07/20/2009		Single Graph				GAL To	30	7																		84005	0	JUL	JUN	MAY	APR	MAR	FEB	JAN	DEC	NOV	OCT	SEP	AUG		7	6	5	4	3	2	1	12	11	10	9	8	0	1	1	0	15	0	0	18	100	0	1	1	1	0	1	1	1	3	0	0	0	0	0	0	0	0	
107299	000	THE RANCHES GOLF COURSE		 THE RANCHES GOLF COURSE	c/o KELLY BECKER	4128 E CLUBHOUSE LN				EAGLE MOUNTAIN UT 84005-4468	UT	84005-4468	28	4128 E CLUBHOUSE LN/ GOLFCOURSE	Water			Sewer	Penalty			Garbage Service	Garbage Fuel Charge		Storm Drain	Deployed Abatement	Deposit	Miscellaneous							25.50			45.75							66.00									0	169.65	169.65CR			137.25	137.25	08/08/2022	08/31/2022	07/01/2022	07/31/2022																			0												0												0						0													Past Due balances must be paid by 08/15/2022  in order to avoid a $50 fee and disconnection of water service.	If you would like to enroll in paperless billing or pay your bills online please visit www.eaglemountaincity.com	107299	07/20/2009		Single Graph				GAL To	30	7																		84005	0	JUL	JUN	MAY	APR	MAR	FEB	JAN	DEC	NOV	OCT	SEP	AUG		7	6	5	4	3	2	1	12	11	10	9	8	0	0	30	0	12	0	2	4	0	1	0	0	0	0	0	17	0	0	0	0	4	0	0	0	10	10	
107299	005	THE RANCHES GOLF COURSE		 THE RANCHES GOLF COURSE	c/o KELLY BECKER	4128 E CLUBHOUSE LN				EAGLE MOUNTAIN UT 84005-4468	UT	84005-4468	28	8658 N BERKSHIRE LN/PUMP HOUSE POND	Water			Sewer	Penalty			Garbage Service	Garbage Fuel Charge		Storm Drain	Deployed Abatement	Deposit	Miscellaneous							32,953.62																			0	78138.10	10000.00CR			32953.62	101091.72	08/08/2022	08/31/2022	07/01/2022	07/31/2022	77						55681						92102256						1						07/27/2022						162691						06/20/2022						193180						30489						GAL							Past Due balances must be paid by 08/15/2022  in order to avoid a $50 fee and disconnection of water service.	If you would like to enroll in paperless billing or pay your bills online please visit www.eaglemountaincity.com	107299	07/01/2020	68138.10	Single Graph				GAL To	30	7																		84005	0	JUL	JUN	MAY	APR	MAR	FEB	JAN	DEC	NOV	OCT	SEP	AUG		7	6	5	4	3	2	1	12	11	10	9	8	0	30489	14390	14007	11246	0	0	116	0	0	278	1471	1817	0	5050	0	3571	0	0	0	0	0	80000	0	0	0	
117765	001	MIRZOYAN	RAELENE & ARTAK DAVITI	RAELENE & ARTAK DAVITI MIRZOYAN		3793 E BUTTERFIELD RD				EAGLE MOUNTAIN UT 84005-4471	UT	84005-4471	93	3793 E BUTTERFIELD RD/ SB 75	Water			Sewer	Penalty			Garbage Service	Garbage Fuel Charge		Storm Drain	Deployed Abatement	Deposit	Miscellaneous							39.54			45.75				14.50			8.25									0	110.20	110.20CR			108.04	108.04	08/08/2022	08/31/2022	07/01/2022	07/31/2022	32						00075						75115473						1						07/18/2022						1288						06/17/2022						1301						13						GAL							Past Due balances must be paid by 08/15/2022  in order to avoid a $50 fee and disconnection of water service.	If you would like to enroll in paperless billing or pay your bills online please visit www.eaglemountaincity.com	117765	09/14/2018		Single Graph				GAL To	31	7																		84005	0	JUL	JUN	MAY	APR	MAR	FEB	JAN	DEC	NOV	OCT	SEP	AUG		7	6	5	4	3	2	1	12	11	10	9	8	0	13	15	10	13	10	9	12	10	10	9	12	15	0	10	10	9	8	6	7	9	6	8	8	9	15	
117765	000	MIRZOYAN	RAELENE & ARTAK DAVITI	RAELENE & ARTAK DAVITI MIRZOYAN		3793 E BUTTERFIELD RD				EAGLE MOUNTAIN UT 84005-4471	UT	84005-4471	93	7409 N ASPEN WAY/ LT 25	Water			Sewer	Penalty			Garbage Service	Garbage Fuel Charge		Storm Drain	Deployed Abatement	Deposit	Miscellaneous							35.11			45.75				14.50			8.25									0	101.32	101.32CR			103.61	103.61	08/08/2022	08/31/2022	07/01/2022	07/31/2022	12						00025						19619463						1						07/20/2022						2384						06/17/2022						2393						8						GAL							Past Due balances must be paid by 08/15/2022  in order to avoid a $50 fee and disconnection of water service.	If you would like to enroll in paperless billing or pay your bills online please visit www.eaglemountaincity.com	117765	10/21/2016		Single Graph				GAL To	31	7																		84005	0	JUL	JUN	MAY	APR	MAR	FEB	JAN	DEC	NOV	OCT	SEP	AUG		7	6	5	4	3	2	1	12	11	10	9	8	0	8	6	6	5	3	4	5	4	3	6	10	10	0	13	11	9	7	4	5	7	5	6	7	7	13	
123538	001	MOSHER	DALLAS	DALLAS MOSHER		7667 N BUTTERFIELD RD				EAGLE MOUNTAIN UT 84005-4538	UT	84005-4538	67	6448 N BISMARK PEAK LN/ OL D1 117	Water			Sewer	Penalty			Garbage Service	Garbage Fuel Charge		Storm Drain	Deployed Abatement	Deposit	Miscellaneous							34.14			45.75				9.50			8.25									0		0.00CR			97.64	97.64	08/08/2022	08/31/2022	07/01/2022	07/31/2022	84						0D117						92075831						1						07/20/2022						0						05/11/2022						8						8						GAL							Past Due balances must be paid by 08/15/2022  in order to avoid a $50 fee and disconnection of water service.	If you would like to enroll in paperless billing or pay your bills online please visit www.eaglemountaincity.com	123538	07/01/2022		Single Graph				GAL To	31	7																		84005	0	JUL	JUN	MAY	APR	MAR	FEB	JAN	DEC	NOV	OCT	SEP	AUG		7	6	5	4	3	2	1	12	11	10	9	8	0	8	0	0	0	0	0	0	0	0	0	0	0	0	0	0	0	0	0	0	0	0	0	0	0	0	
123538	000	MOSHER	DALLAS	DALLAS MOSHER		7667 N BUTTERFIELD RD				EAGLE MOUNTAIN UT 84005-4538	UT	84005-4538	67	7667 N BUTTERFIELD RD/ OFB 272	Water			Sewer	Penalty			Garbage Service	Garbage Fuel Charge		Storm Drain	Deployed Abatement	Deposit	Miscellaneous							43.86			45.75				14.50			8.25									0	126.40	126.40CR			112.36	112.36	08/08/2022	08/31/2022	07/01/2022	07/31/2022	58						00272						81323853						1						07/19/2022						692						06/20/2022						709						17						GAL							Past Due balances must be paid by 08/15/2022  in order to avoid a $50 fee and disconnection of water service.	If you would like to enroll in paperless billing or pay your bills online please visit www.eaglemountaincity.com	123538	11/01/2019		Single Graph				GAL To	31	7																		84005	0	JUL	JUN	MAY	APR	MAR	FEB	JAN	DEC	NOV	OCT	SEP	AUG		7	6	5	4	3	2	1	12	11	10	9	8	0	17	30	4	5	2	4	4	3	3	25	40	18	0	18	17	8	4	3	4	5	4	3	17	18	22	
114264	001	JESSOP	JAMES	JAMES JESSOP		2998 E HARVEST LN				EAGLE MOUNTAIN UT 84005-4569	UT	84005-4569	98	2978 E HARVEST LN/ MR 710 B	Water			Sewer	Penalty			Garbage Service	Garbage Fuel Charge		Storm Drain	Deployed Abatement	Deposit	Miscellaneous							57.90			45.75				20.75			8.25									0	131.57	131.57CR			132.65	132.65	08/08/2022	08/31/2022	07/01/2022	07/31/2022	03						0710B						79546181						1						07/19/2022						564						06/20/2022						594						30						GAL							Past Due balances must be paid by 08/15/2022  in order to avoid a $50 fee and disconnection of water service.	If you would like to enroll in paperless billing or pay your bills online please visit www.eaglemountaincity.com	114264	09/25/2017		Single Graph				GAL To	31	7																		84005	0	JUL	JUN	MAY	APR	MAR	FEB	JAN	DEC	NOV	OCT	SEP	AUG		7	6	5	4	3	2	1	12	11	10	9	8	0	30	29	13	10	8	7	8	8	7	10	17	16	0	22	24	11	8	6	6	8	6	14	21	31	9	
114264	002	JESSOP	JAMES	JAMES JESSOP		2998 E HARVEST LN				EAGLE MOUNTAIN UT 84005-4569	UT	84005-4569	98	2998 E HARVEST LN/ MR 710 A	Water			Sewer	Penalty			Garbage Service	Garbage Fuel Charge		Storm Drain	Deployed Abatement	Deposit	Miscellaneous							39.54			45.75				22.00			8.25									0	114.46	114.46CR			115.54	115.54	08/08/2022	08/31/2022	07/01/2022	07/31/2022	03						00710						83442832						1						07/19/2022						535						06/20/2022						548						13						GAL							Past Due balances must be paid by 08/15/2022  in order to avoid a $50 fee and disconnection of water service.	If you would like to enroll in paperless billing or pay your bills online please visit www.eaglemountaincity.com	114264	09/28/2017		Single Graph				GAL To	31	7																		84005	0	JUL	JUN	MAY	APR	MAR	FEB	JAN	DEC	NOV	OCT	SEP	AUG		7	6	5	4	3	2	1	12	11	10	9	8	0	13	12	11	13	12	9	13	12	11	12	14	13	0	12	13	11	7	17	5	20	5	13	13	11	13	
124773	000	STANLEY	DALLAS	DALLAS STANLEY		6186 N DAVIS KNOLLS DR				EAGLE MTN UT 84005-4570	UT	84005-4570	86	1761 E REVERE WAY/ PA 91	Water			Sewer	Penalty			Garbage Service	Garbage Fuel Charge		Storm Drain	Deployed Abatement	Deposit	Miscellaneous																										0	185.33	0.00CR				185.33	08/08/2022	08/31/2022	07/01/2022	07/31/2022																			0												0												0						0													Past Due balances must be paid by 08/15/2022  in order to avoid a $50 fee and disconnection of water service.	If you would like to enroll in paperless billing or pay your bills online please visit www.eaglemountaincity.com	124773	06/01/2020	185.33	Single Graph				GAL To	31	7																		84005	0	JUL	JUN	MAY	APR	MAR	FEB	JAN	DEC	NOV	OCT	SEP	AUG		7	6	5	4	3	2	1	12	11	10	9	8	0	0	4	15	2	2	2	1	1	1	6	15	4	0	12	31	20	1	1	2	3	3	5	3	19	135	
124773	001	STANLEY	DALLAS	DALLAS STANLEY		6186 N DAVIS KNOLLS DR				EAGLE MTN UT 84005-4570	UT	84005-4570	86	6186 N DAVIS KNOLLS DR/ OL A1 103	Water			Sewer	Penalty			Garbage Service	Garbage Fuel Charge		Storm Drain	Deployed Abatement	Deposit	Miscellaneous							27.66			45.75				9.50			8.25									0	66.03	0.00CR			91.16	157.19	08/08/2022	08/31/2022	07/01/2022	07/31/2022	18						00103						84077690						1						07/20/2022						181						06/17/2022						183						2						GAL							Past Due balances must be paid by 08/15/2022  in order to avoid a $50 fee and disconnection of water service.	If you would like to enroll in paperless billing or pay your bills online please visit www.eaglemountaincity.com	124773	06/08/2022	66.03	Single Graph				GAL To	31	7																		84005	0	JUL	JUN	MAY	APR	MAR	FEB	JAN	DEC	NOV	OCT	SEP	AUG		7	6	5	4	3	2	1	12	11	10	9	8	0	2	0	0	0	0	0	0	0	0	0	0	0	0	0	0	0	0	0	0	0	0	0	0	0	0	
130084	001	BUNKER	ZACHARY	ZACHARY BUNKER		9853 N ELKHORN RD				EAGLE MOUNTAIN UT 84005-4591	UT	84005-4591	53	4754 E RUSTIC RANCH WAY/ SL 2531	Water			Sewer	Penalty			Garbage Service	Garbage Fuel Charge		Storm Drain	Deployed Abatement	Deposit	Miscellaneous																										0	79.77	0.00CR				79.77	08/08/2022	08/31/2022	07/01/2022	07/31/2022																			0												0												0						0													Past Due balances must be paid by 08/15/2022  in order to avoid a $50 fee and disconnection of water service.	If you would like to enroll in paperless billing or pay your bills online please visit www.eaglemountaincity.com	130084	05/04/2022	79.77	Single Graph				GAL To	31	7																		84005	0	JUL	JUN	MAY	APR	MAR	FEB	JAN	DEC	NOV	OCT	SEP	AUG		7	6	5	4	3	2	1	12	11	10	9	8	0	0	0	0	0	0	0	0	0	0	0	0	0	0	0	0	0	0	0	0	0	0	0	0	0	0	
130084	000	BUNKER	ZACHARY	ZACHARY BUNKER		9853 N ELKHORN RD				EAGLE MOUNTAIN UT 84005-4591	UT	84005-4591	53	9853 N ELKHORN RD/ VVF A 108	Water			Sewer	Penalty			Garbage Service	Garbage Fuel Charge		Storm Drain	Deployed Abatement	Deposit	Miscellaneous							53.58			45.75				20.75			8.25									0	125.09	125.09CR			128.33	128.33	08/08/2022	08/31/2022	07/01/2022	07/31/2022	06						00108						83703484						1						07/19/2022						773						06/20/2022						799						26						GAL							Past Due balances must be paid by 08/15/2022  in order to avoid a $50 fee and disconnection of water service.	If you would like to enroll in paperless billing or pay your bills online please visit www.eaglemountaincity.com	130084	03/28/2022		Single Graph				GAL To	31	7																		84005	0	JUL	JUN	MAY	APR	MAR	FEB	JAN	DEC	NOV	OCT	SEP	AUG		7	6	5	4	3	2	1	12	11	10	9	8	0	26	23	7	2	0	0	0	0	0	0	0	0	0	0	0	0	0	0	0	0	0	0	0	0	0	
111320	004	HARPER	HEATH & SHEREE	HEATH & SHEREE HARPER		1546 E THORPE DR				EAGLE MOUNTAIN UT 84005-4593	UT	84005-4593	46	1546 E THORPE DR/ OL A2 204	Water			Sewer	Penalty			Garbage Service	Garbage Fuel Charge		Storm Drain	Deployed Abatement	Deposit	Miscellaneous							76.26			45.75				25.75			8.25									0	135.49	135.49CR			156.01	156.01	08/08/2022	08/31/2022	07/01/2022	07/31/2022	18						00204						86286218						1						07/20/2022						665						06/17/2022						712						47						GAL							Past Due balances must be paid by 08/15/2022  in order to avoid a $50 fee and disconnection of water service.	If you would like to enroll in paperless billing or pay your bills online please visit www.eaglemountaincity.com	111320	12/15/2020		Single Graph				GAL To	31	7																		84005	0	JUL	JUN	MAY	APR	MAR	FEB	JAN	DEC	NOV	OCT	SEP	AUG		7	6	5	4	3	2	1	12	11	10	9	8	0	47	28	14	5	4	3	6	5	5	16	41	24	0	53	40	13	1	0	0	1	0	0	0	0	0	
111320	002	HARPER	HEATH & SHEREE	HEATH & SHEREE HARPER		1546 E THORPE DR				EAGLE MOUNTAIN UT 84005-4593	UT	84005-4593	46	1019 E HUNTER LN/ AR 116	Water			Sewer	Penalty			Garbage Service	Garbage Fuel Charge		Storm Drain	Deployed Abatement	Deposit	Miscellaneous							35.22			45.75				15.75			8.25									0	114.69	114.69CR			104.97	104.97	08/08/2022	08/31/2022	07/01/2022	07/31/2022	02						00116						77652111						1						07/15/2022						1217						06/20/2022						1226						9						GAL							Past Due balances must be paid by 08/15/2022  in order to avoid a $50 fee and disconnection of water service.	If you would like to enroll in paperless billing or pay your bills online please visit www.eaglemountaincity.com	111320	11/22/2019		Single Graph				GAL To	31	7																		84005	0	JUL	JUN	MAY	APR	MAR	FEB	JAN	DEC	NOV	OCT	SEP	AUG		7	6	5	4	3	2	1	12	11	10	9	8	0	9	18	18	0	8	4	4	4	9	6	10	6	0	23	0	0	13	0	1	3	3	16	17	29	14	
111320	003	HARPER	HEATH & SHEREE	HEATH & SHEREE HARPER		1546 E THORPE DR				EAGLE MOUNTAIN UT 84005-4593	UT	84005-4593	46	9839 N ELK RIDGE DR/ MR V 340	Water			Sewer	Penalty			Garbage Service	Garbage Fuel Charge		Storm Drain	Deployed Abatement	Deposit	Miscellaneous							30.90			45.75				25.75			8.25									0	111.73	111.73CR			110.65	110.65	08/08/2022	08/31/2022	07/01/2022	07/31/2022	03						00340						83488171						1						07/19/2022						135						06/20/2022						140						5						GAL							Past Due balances must be paid by 08/15/2022  in order to avoid a $50 fee and disconnection of water service.	If you would like to enroll in paperless billing or pay your bills online please visit www.eaglemountaincity.com	111320	07/20/2020		Single Graph				GAL To	31	7																		84005	0	JUL	JUN	MAY	APR	MAR	FEB	JAN	DEC	NOV	OCT	SEP	AUG		7	6	5	4	3	2	1	12	11	10	9	8	0	5	6	3	1	0	1	0	0	0	1	0	0	0	0	1	4	7	5	6	6	5	0	0	0	1	
116634	000	ROWE	CHERI	CHERI ROWE		9039 N MOUNT AIREY DR				EAGLE MOUNTAIN UT 84005-4605	UT	84005-4605	39	9039 N MT AIREY DR/ MTA 56	Water			Sewer	Penalty			Garbage Service	Garbage Fuel Charge		Storm Drain	Deployed Abatement	Deposit	Miscellaneous							85.27			45.75				14.50			8.25									0	168.42	168.42CR			153.77	153.77	08/08/2022	08/31/2022	07/01/2022	07/31/2022	31						00056						33559895						1						07/19/2022						4313						06/20/2022						4368						55						GAL							Past Due balances must be paid by 08/15/2022  in order to avoid a $50 fee and disconnection of water service.	If you would like to enroll in paperless billing or pay your bills online please visit www.eaglemountaincity.com	116634	03/15/2016		Single Graph				GAL To	31	7																		84005	0	JUL	JUN	MAY	APR	MAR	FEB	JAN	DEC	NOV	OCT	SEP	AUG		7	6	5	4	3	2	1	12	11	10	9	8	0	55	68	19	6	5	5	7	6	5	34	65	61	0	67	66	55	20	7	7	10	8	17	38	59	78	
116634	001	ROWE	CHERI	CHERI ROWE		9039 N MOUNT AIREY DR				EAGLE MOUNTAIN UT 84005-4605	UT	84005-4605	39	9256 N PRAIRIE DUNES WAY/ SPV 50	Water			Sewer	Penalty			Garbage Service	Garbage Fuel Charge		Storm Drain	Deployed Abatement	Deposit	Miscellaneous							25.50			45.75				14.50			8.25									0	211.64	196.64CR			94.00	109.00	08/08/2022	08/31/2022	07/01/2022	07/31/2022																			0												0												0						0													Past Due balances must be paid by 08/15/2022  in order to avoid a $50 fee and disconnection of water service.	If you would like to enroll in paperless billing or pay your bills online please visit www.eaglemountaincity.com	116634	04/01/2022	15.00	Single Graph				GAL To	31	7																		84005	0	JUL	JUN	MAY	APR	MAR	FEB	JAN	DEC	NOV	OCT	SEP	AUG		7	6	5	4	3	2	1	12	11	10	9	8	0	0	8	0	6	0	0	0	0	0	0	0	0	0	0	0	0	0	0	0	0	0	0	0	0	0	
128203	001	SOUTHWICK	JACE	JACE SOUTHWICK		3688 E CAMPUS DR STE 100				EAGLE MOUNTAIN UT 84005-4668	UT	84005-4668	25	1793 E REVERE WAY/ PA 88	Water			Sewer	Penalty			Garbage Service	Garbage Fuel Charge		Storm Drain	Deployed Abatement	Deposit	Miscellaneous							61.99			45.75				20.75			8.25									0	287.82	287.82CR			136.74	136.74	08/08/2022	08/31/2022	07/01/2022	07/31/2022	17						00088						56119919						1						07/15/2022						2497						06/16/2022						2531						33						GAL							Past Due balances must be paid by 08/15/2022  in order to avoid a $50 fee and disconnection of water service.	If you would like to enroll in paperless billing or pay your bills online please visit www.eaglemountaincity.com	128203	03/07/2022		Single Graph				GAL To	31	7																		84005	0	JUL	JUN	MAY	APR	MAR	FEB	JAN	DEC	NOV	OCT	SEP	AUG		7	6	5	4	3	2	1	12	11	10	9	8	0	33	43	9	12	0	0	0	0	0	0	0	0	0	0	0	0	0	0	0	0	0	0	0	0	0	
128203	000	SOUTHWICK	JACE	JACE SOUTHWICK		3688 E CAMPUS DR STE 100				EAGLE MOUNTAIN UT 84005-4668	UT	84005-4668	25	1909 E CHURCH WAY/ PA 119	Water			Sewer	Penalty			Garbage Service	Garbage Fuel Charge		Storm Drain	Deployed Abatement	Deposit	Miscellaneous							62.76			45.75				14.50			8.25									0	111.42	111.42CR			131.26	131.26	08/08/2022	08/31/2022	07/01/2022	07/31/2022	17						00119						33703803						1						07/15/2022						4711						06/16/2022						4746						34						GAL							Past Due balances must be paid by 08/15/2022  in order to avoid a $50 fee and disconnection of water service.	If you would like to enroll in paperless billing or pay your bills online please visit www.eaglemountaincity.com	128203	08/26/2021		Single Graph				GAL To	31	7																		84005	0	JUL	JUN	MAY	APR	MAR	FEB	JAN	DEC	NOV	OCT	SEP	AUG		7	6	5	4	3	2	1	12	11	10	9	8	0	34	16	7	8	7	6	9	5	6	12	24	0	0	0	0	0	0	0	0	0	0	0	0	0	0	
106588	003	DUNN	SCOTT	SCOTT DUNN		3688 E CAMPUS DR STE 100				EAGLE MOUNTAIN UT 84005-4668	UT	84005-4668	25	1808 E COSMOS DR/ EPT A-4	Water			Sewer	Penalty			Garbage Service	Garbage Fuel Charge		Storm Drain	Deployed Abatement	Deposit	Miscellaneous							26.58			45.75							8.25									0	81.66	0.00CR	15.00		80.58	177.24	08/08/2022	08/31/2022	07/01/2022	07/31/2022	27						000A4						84705222						1						07/15/2022						78						06/20/2022						79						1						GAL							Past Due balances must be paid by 08/15/2022  in order to avoid a $50 fee and disconnection of water service.	If you would like to enroll in paperless billing or pay your bills online please visit www.eaglemountaincity.com	106588	02/28/2022	96.66	Single Graph				GAL To	31	7																		84005	0	JUL	JUN	MAY	APR	MAR	FEB	JAN	DEC	NOV	OCT	SEP	AUG		7	6	5	4	3	2	1	12	11	10	9	8	0	1	2	2	2	1	0	0	0	0	0	0	0	0	0	0	0	0	0	0	0	0	0	0	0	0	
129749	000	DUNN	SCOTT	SCOTT DUNN	c/o THE REAL ESTATE GROUP	3688 E CAMPUS DR STE 100				EAGLE MOUNTAIN UT 84005-4668	UT	84005-4668	25	1807 E COSMOS DR/ EPT F-2	Water			Sewer	Penalty			Garbage Service	Garbage Fuel Charge		Storm Drain	Deployed Abatement	Deposit	Miscellaneous							26.58			45.75							8.25									0	82.74	82.74CR			80.58	80.58	08/08/2022	08/31/2022	07/01/2022	07/31/2022	27						000F2						77587619						1						07/15/2022						228						06/20/2022						229						1						GAL							Past Due balances must be paid by 08/15/2022  in order to avoid a $50 fee and disconnection of water service.	If you would like to enroll in paperless billing or pay your bills online please visit www.eaglemountaincity.com	129749	02/28/2022		Single Graph				GAL To	31	7																		84005	0	JUL	JUN	MAY	APR	MAR	FEB	JAN	DEC	NOV	OCT	SEP	AUG		7	6	5	4	3	2	1	12	11	10	9	8	0	1	3	1	3	2	0	0	0	0	0	0	0	0	0	0	0	0	0	0	0	0	0	0	0	0	
129747	000	DUNN	SCOTT	SCOTT DUNN	c/o THE REAL ESTATE GROUP	3688 E CAMPUS DR STE 100				EAGLE MOUNTAIN UT 84005-4668	UT	84005-4668	25	1807 E COSMOS DR/ EPT F-3	Water			Sewer	Penalty			Garbage Service	Garbage Fuel Charge		Storm Drain	Deployed Abatement	Deposit	Miscellaneous							26.58			45.75							8.25									0	81.66	82.80CR			80.58	79.44	08/08/2022	08/31/2022	07/01/2022	07/31/2022	27						000F3						77587615						1						07/20/2022						173						06/20/2022						174						1						GAL							Past Due balances must be paid by 08/15/2022  in order to avoid a $50 fee and disconnection of water service.	If you would like to enroll in paperless billing or pay your bills online please visit www.eaglemountaincity.com	129747	02/28/2022		Single Graph				GAL To	31	7																		84005	0	JUL	JUN	MAY	APR	MAR	FEB	JAN	DEC	NOV	OCT	SEP	AUG		7	6	5	4	3	2	1	12	11	10	9	8	0	1	2	1	2	0	0	0	0	0	0	0	0	0	0	0	0	0	0	0	0	0	0	0	0	0	
129743	001	DUNN	SCOTT	SCOTT DUNN	c/o THE REAL ESTATE GROUP	3688 E CAMPUS DR STE 100				EAGLE MOUNTAIN UT 84005-4668	UT	84005-4668	25	1808 E COSMOS DR/ EPT A-1	Water			Sewer	Penalty			Garbage Service	Garbage Fuel Charge		Storm Drain	Deployed Abatement	Deposit	Miscellaneous							30.90			45.75							8.25									0	84.90	84.90CR			84.90	84.90	08/08/2022	08/31/2022	07/01/2022	07/31/2022	27						000A1						76554923						1						07/15/2022						346						06/20/2022						351						5						GAL							Past Due balances must be paid by 08/15/2022  in order to avoid a $50 fee and disconnection of water service.	If you would like to enroll in paperless billing or pay your bills online please visit www.eaglemountaincity.com	129743	02/28/2022		Single Graph				GAL To	31	7																		84005	0	JUL	JUN	MAY	APR	MAR	FEB	JAN	DEC	NOV	OCT	SEP	AUG		7	6	5	4	3	2	1	12	11	10	9	8	0	5	5	4	6	2	0	0	0	0	0	0	0	0	0	0	0	0	0	0	0	0	0	0	0	0	
129757	000	DUNN	SCOTT	SCOTT DUNN	c/o THE REAL ESTATE GROUP	3688 E CAMPUS DR STE 100				EAGLE MOUNTAIN UT 84005-4668	UT	84005-4668	25	1808 E COSMOS DR/ EPT A-6	Water			Sewer	Penalty			Garbage Service	Garbage Fuel Charge		Storm Drain	Deployed Abatement	Deposit	Miscellaneous							26.58			45.75							8.25									0	82.74	82.74CR			80.58	80.58	08/08/2022	08/31/2022	07/01/2022	07/31/2022	27						000A6						76554920						1						07/15/2022						244						06/15/2022						245						1						GAL							Past Due balances must be paid by 08/15/2022  in order to avoid a $50 fee and disconnection of water service.	If you would like to enroll in paperless billing or pay your bills online please visit www.eaglemountaincity.com	129757	02/28/2022		Single Graph				GAL To	31	7																		84005	0	JUL	JUN	MAY	APR	MAR	FEB	JAN	DEC	NOV	OCT	SEP	AUG		7	6	5	4	3	2	1	12	11	10	9	8	0	1	3	2	3	0	0	0	0	0	0	0	0	0	0	0	0	0	0	0	0	0	0	0	0	0	
129753	000	DUNN	SCOTT	SCOTT DUNN	c/o THE REAL ESTATE GROUP	3688 E CAMPUS DR STE 100				EAGLE MOUNTAIN UT 84005-4668	UT	84005-4668	25	1843 E COSMOS DR/ EPT D-8	Water			Sewer	Penalty			Garbage Service	Garbage Fuel Charge		Storm Drain	Deployed Abatement	Deposit	Miscellaneous							27.66			45.75							8.25									0	87.06	0.00CR			81.66	168.72	08/08/2022	08/31/2022	07/01/2022	07/31/2022	27						000D8						77340395						1						07/15/2022						213						06/20/2022						215						2						GAL							Past Due balances must be paid by 08/15/2022  in order to avoid a $50 fee and disconnection of water service.	If you would like to enroll in paperless billing or pay your bills online please visit www.eaglemountaincity.com	129753	02/28/2022	87.06	Single Graph				GAL To	31	7																		84005	0	JUL	JUN	MAY	APR	MAR	FEB	JAN	DEC	NOV	OCT	SEP	AUG		7	6	5	4	3	2	1	12	11	10	9	8	0	2	7	0	2	1	0	0	0	0	0	0	0	0	0	0	0	0	0	0	0	0	0	0	0	0	
129743	000	DUNN	SCOTT	SCOTT DUNN	c/o THE REAL ESTATE GROUP	3688 E CAMPUS DR STE 100				EAGLE MOUNTAIN UT 84005-4668	UT	84005-4668	25	1807 E COSMOS DR/ EPT F-5	Water			Sewer	Penalty			Garbage Service	Garbage Fuel Charge		Storm Drain	Deployed Abatement	Deposit	Miscellaneous							28.74			45.75							8.25									0	167.64	167.64CR	50.00		82.74	132.74	08/08/2022	08/31/2022	07/01/2022	07/31/2022	27						000F5						77587612						1						07/15/2022						177						06/20/2022						180						3						GAL							Past Due balances must be paid by 08/15/2022  in order to avoid a $50 fee and disconnection of water service.	If you would like to enroll in paperless billing or pay your bills online please visit www.eaglemountaincity.com	129743	02/28/2022	50.00	Single Graph				GAL To	31	7																		84005	0	JUL	JUN	MAY	APR	MAR	FEB	JAN	DEC	NOV	OCT	SEP	AUG		7	6	5	4	3	2	1	12	11	10	9	8	0	3	5	3	4	2	0	0	0	0	0	0	0	0	0	0	0	0	0	0	0	0	0	0	0	0	
129739	000	DUNN	SCOTT	SCOTT DUNN	c/o THE REAL ESTATE GROUP	3688 E CAMPUS DR STE 100				EAGLE MOUNTAIN UT 84005-4668	UT	84005-4668	25	1807 E COSMOS DR/ EPT F-7	Water			Sewer	Penalty			Garbage Service	Garbage Fuel Charge		Storm Drain	Deployed Abatement	Deposit	Miscellaneous							28.74			45.75							8.25									0	226.16	131.00CR	65.00		82.74	242.90	08/08/2022	08/31/2022	07/01/2022	07/31/2022	27						000F7						77587616						1						07/15/2022						164						06/15/2022						167						3						GAL							Past Due balances must be paid by 08/15/2022  in order to avoid a $50 fee and disconnection of water service.	If you would like to enroll in paperless billing or pay your bills online please visit www.eaglemountaincity.com	129739	02/28/2022	160.16	Single Graph				GAL To	31	7																		84005	0	JUL	JUN	MAY	APR	MAR	FEB	JAN	DEC	NOV	OCT	SEP	AUG		7	6	5	4	3	2	1	12	11	10	9	8	0	3	1	1	1	1	0	0	0	0	0	0	0	0	0	0	0	0	0	0	0	0	0	0	0	0	
129741	000	DUNN	SCOTT	SCOTT DUNN	c/o THE REAL ESTATE GROUP	3688 E CAMPUS DR STE 100				EAGLE MOUNTAIN UT 84005-4668	UT	84005-4668	25	1807 E COSMOS DR/ EPT F-6	Water			Sewer	Penalty			Garbage Service	Garbage Fuel Charge		Storm Drain	Deployed Abatement	Deposit	Miscellaneous							26.58			45.75							8.25									0	165.48	165.48CR			80.58	80.58	08/08/2022	08/31/2022	07/01/2022	07/31/2022	27						000F6						77587613						1						07/15/2022						141						06/20/2022						142						1						GAL							Past Due balances must be paid by 08/15/2022  in order to avoid a $50 fee and disconnection of water service.	If you would like to enroll in paperless billing or pay your bills online please visit www.eaglemountaincity.com	129741	03/01/2022		Single Graph				GAL To	31	7																		84005	0	JUL	JUN	MAY	APR	MAR	FEB	JAN	DEC	NOV	OCT	SEP	AUG		7	6	5	4	3	2	1	12	11	10	9	8	0	1	3	3	3	1	0	0	0	0	0	0	0	0	0	0	0	0	0	0	0	0	0	0	0	0	
129755	000	DUNN	SCOTT	SCOTT DUNN	c/o THE REAL ESTATE GROUP	3688 E CAMPUS DR STE 100				EAGLE MOUNTAIN UT 84005-4668	UT	84005-4668	25	1808 E COSMOS DR/ EPT A-7	Water			Sewer	Penalty			Garbage Service	Garbage Fuel Charge		Storm Drain	Deployed Abatement	Deposit	Miscellaneous							25.50			45.75							8.25									0	159.00	159.00CR	15.00		79.50	94.50	08/08/2022	08/31/2022	07/01/2022	07/31/2022	27						000A7						76554927						1						07/20/2022						170						06/20/2022						170						0						GAL							Past Due balances must be paid by 08/15/2022  in order to avoid a $50 fee and disconnection of water service.	If you would like to enroll in paperless billing or pay your bills online please visit www.eaglemountaincity.com	129755	02/28/2022	15.00	Single Graph				GAL To	31	7																		84005	0	JUL	JUN	MAY	APR	MAR	FEB	JAN	DEC	NOV	OCT	SEP	AUG		7	6	5	4	3	2	1	12	11	10	9	8	0	0	0	0	0	0	0	0	0	0	0	0	0	0	0	0	0	0	0	0	0	0	0	0	0	0	
129745	000	DUNN	SCOTT	SCOTT DUNN	c/o THE REAL ESTATE GROUP	3688 E CAMPUS DR STE 100				EAGLE MOUNTAIN UT 84005-4668	UT	84005-4668	25	1807 E COSMOS DR/ EPT F-4	Water			Sewer	Penalty			Garbage Service	Garbage Fuel Charge		Storm Drain	Deployed Abatement	Deposit	Miscellaneous							28.74			45.75							8.25									0	82.74	82.74CR			82.74	82.74	08/08/2022	08/31/2022	07/01/2022	07/31/2022	27						000F4						77587614						1						07/19/2022						317						06/20/2022						320						3						GAL							Past Due balances must be paid by 08/15/2022  in order to avoid a $50 fee and disconnection of water service.	If you would like to enroll in paperless billing or pay your bills online please visit www.eaglemountaincity.com	129745	02/28/2022		Single Graph				GAL To	31	7																		84005	0	JUL	JUN	MAY	APR	MAR	FEB	JAN	DEC	NOV	OCT	SEP	AUG		7	6	5	4	3	2	1	12	11	10	9	8	0	3	3	3	4	1	0	0	0	0	0	0	0	0	0	0	0	0	0	0	0	0	0	0	0	0	
129737	000	DUNN	SCOTT	SCOTT DUNN	c/o THE REAL ESTATE GROUP	3688 E CAMPUS DR STE 100				EAGLE MOUNTAIN UT 84005-4668	UT	84005-4668	25	1807 E COSMOS DR/ EPT F-8	Water			Sewer	Penalty			Garbage Service	Garbage Fuel Charge		Storm Drain	Deployed Abatement	Deposit	Miscellaneous							27.66			45.75							8.25									0	66.66	66.66CR			81.66	81.66	08/08/2022	08/31/2022	07/01/2022	07/31/2022	27						000F8						77587617						1						07/20/2022						136						06/20/2022						138						2						GAL							Past Due balances must be paid by 08/15/2022  in order to avoid a $50 fee and disconnection of water service.	If you would like to enroll in paperless billing or pay your bills online please visit www.eaglemountaincity.com	129737	02/28/2022		Single Graph				GAL To	31	7																		84005	0	JUL	JUN	MAY	APR	MAR	FEB	JAN	DEC	NOV	OCT	SEP	AUG		7	6	5	4	3	2	1	12	11	10	9	8	0	2	2	2	2	0	0	0	0	0	0	0	0	0	0	0	0	0	0	0	0	0	0	0	0	0	
129665	002	THE REAL ESTATE GROUP		 THE REAL ESTATE GROUP		3688 E CAMPUS DR STE 100				EAGLE MOUNTAIN UT 84005-4668	UT	84005-4668	25	1778 E SUNSET VIEW LN/ NR 34	Water			Sewer	Penalty			Garbage Service	Garbage Fuel Charge		Storm Drain	Deployed Abatement	Deposit	Miscellaneous							155.08							20.75			8.25									0	289.90	125.00CR	65.00		184.08	413.98	08/08/2022	08/31/2022	07/01/2022	07/31/2022	01						00034						77776778						1						07/20/2022						4815						06/20/2022						4932						117						GAL							Past Due balances must be paid by 08/15/2022  in order to avoid a $50 fee and disconnection of water service.	If you would like to enroll in paperless billing or pay your bills online please visit www.eaglemountaincity.com	129783	03/01/2022	229.90	Single Graph				GAL To	31	7																		84005	0	JUL	JUN	MAY	APR	MAR	FEB	JAN	DEC	NOV	OCT	SEP	AUG		7	6	5	4	3	2	1	12	11	10	9	8	0	117	94	58	37	15	0	0	0	0	0	0	0	0	0	0	0	0	0	0	0	0	0	0	0	0	
129665	001	THE REAL ESTATE GROUP		 THE REAL ESTATE GROUP		3688 E CAMPUS DR STE 100				EAGLE MOUNTAIN UT 84005-4668	UT	84005-4668	25	7641 N POWELL ST/ TC 97	Water			Sewer	Penalty			Garbage Service	Garbage Fuel Charge		Storm Drain	Deployed Abatement	Deposit	Miscellaneous							44.94			45.75				9.50			8.25									0	111.68	100.00CR			108.44	120.12	08/08/2022	08/31/2022	07/01/2022	07/31/2022	37						00097						79317571						1						07/19/2022						1401						06/20/2022						1419						18						GAL							Past Due balances must be paid by 08/15/2022  in order to avoid a $50 fee and disconnection of water service.	If you would like to enroll in paperless billing or pay your bills online please visit www.eaglemountaincity.com	129781	03/01/2022	11.68	Single Graph				GAL To	31	7																		84005	0	JUL	JUN	MAY	APR	MAR	FEB	JAN	DEC	NOV	OCT	SEP	AUG		7	6	5	4	3	2	1	12	11	10	9	8	0	18	21	14	11	4	0	0	0	0	0	0	0	0	0	0	0	0	0	0	0	0	0	0	0	0	
120957	002	PORTER RANCH TOWNHOMES LLC		 PORTER RANCH TOWNHOMES LLC		3931 E CARDON LN				EAGLE MOUNTAIN UT 84005-4957	UT	84005-4957	31	3947 E CARDON LN/ PR LNDSCP	Water			Sewer	Penalty			Garbage Service	Garbage Fuel Charge		Storm Drain	Deployed Abatement	Deposit	Miscellaneous							25.50																			0	62.22	62.22CR			25.50	25.50	08/08/2022	08/31/2022	07/01/2022	07/31/2022																			0												0												0						0													Past Due balances must be paid by 08/15/2022  in order to avoid a $50 fee and disconnection of water service.	If you would like to enroll in paperless billing or pay your bills online please visit www.eaglemountaincity.com	120957	07/03/2019		Single Graph				GAL To	30	7																		84005	0	JUL	JUN	MAY	APR	MAR	FEB	JAN	DEC	NOV	OCT	SEP	AUG		7	6	5	4	3	2	1	12	11	10	9	8	0	0	34	0	0	0	0	0	0	0	22	234	827	0	0	312	312	0	0	0	0	0	0	276	517	512	
120957	000	PORTER RANCH TOWNHOMES LLC		 PORTER RANCH TOWNHOMES LLC		3931 E CARDON LN				EAGLE MOUNTAIN UT 84005-4957	UT	84005-4957	31	3931 E CARDON LN/ PORTER RANCH MULTI	Water			Sewer	Penalty			Garbage Service	Garbage Fuel Charge		Storm Drain	Deployed Abatement	Deposit	Miscellaneous							3,832.62			5,856.00				1,476.00			1,056.00									0	12218.06	12218.06CR			12220.62	12220.62	08/08/2022	08/31/2022	07/01/2022	07/31/2022	36						00022						90080658						1						07/20/2022						18740						06/20/2022						19213						473						GAL							Past Due balances must be paid by 08/15/2022  in order to avoid a $50 fee and disconnection of water service.	If you would like to enroll in paperless billing or pay your bills online please visit www.eaglemountaincity.com	120957	06/01/2018		Single Graph				GAL To	30	7																		84005	0	JUL	JUN	MAY	APR	MAR	FEB	JAN	DEC	NOV	OCT	SEP	AUG		7	6	5	4	3	2	1	12	11	10	9	8	0	473	479	420	545	414	408	520	391	482	434	505	461	0	500	439	440	541	423	407	508	421	483	473	449	515	
120957	005	PORTER RANCH TOWNHOMES LLC		 PORTER RANCH TOWNHOMES LLC		3931 E CARDON LN				EAGLE MOUNTAIN UT 84005-4957	UT	84005-4957	31	8214 N JENKS LN/ PR LNDSCP	Water			Sewer	Penalty			Garbage Service	Garbage Fuel Charge		Storm Drain	Deployed Abatement	Deposit	Miscellaneous							291.18																			0	286.86	286.86CR			291.18	291.18	08/08/2022	08/31/2022	07/01/2022	07/31/2022	72						LNDSP						91421389						1						07/20/2022						3098						06/20/2022						3344						246						GAL							Past Due balances must be paid by 08/15/2022  in order to avoid a $50 fee and disconnection of water service.	If you would like to enroll in paperless billing or pay your bills online please visit www.eaglemountaincity.com	120957	05/14/2020		Single Graph				GAL To	30	7																		84005	0	JUL	JUN	MAY	APR	MAR	FEB	JAN	DEC	NOV	OCT	SEP	AUG		7	6	5	4	3	2	1	12	11	10	9	8	0	246	242	155	25	0	0	0	0	0	61	181	268	0	398	163	149	66	0	0	0	5	15	249	284	441	
120957	001	PORTER RANCH TOWNHOMES LLC		 PORTER RANCH TOWNHOMES LLC		3931 E CARDON LN				EAGLE MOUNTAIN UT 84005-4957	UT	84005-4957	31	3924 E CARDON LN/ PR LNDSCP	Water			Sewer	Penalty			Garbage Service	Garbage Fuel Charge		Storm Drain	Deployed Abatement	Deposit	Miscellaneous							43.86																			0	49.26	49.26CR			43.86	43.86	08/08/2022	08/31/2022	07/01/2022	07/31/2022	72						LNDSP						90999653						1						07/20/2022						6796						06/20/2022						6813						17						GAL							Past Due balances must be paid by 08/15/2022  in order to avoid a $50 fee and disconnection of water service.	If you would like to enroll in paperless billing or pay your bills online please visit www.eaglemountaincity.com	120957	07/03/2019		Single Graph				GAL To	30	7																		84005	0	JUL	JUN	MAY	APR	MAR	FEB	JAN	DEC	NOV	OCT	SEP	AUG		7	6	5	4	3	2	1	12	11	10	9	8	0	17	22	7	1	0	0	0	0	0	3	8	17	0	22	13	13	1	0	89	5	0	0	352	895	870	
120957	003	PORTER RANCH TOWNHOMES LLC		 PORTER RANCH TOWNHOMES LLC		3931 E CARDON LN				EAGLE MOUNTAIN UT 84005-4957	UT	84005-4957	31	3983 E ST ANDREWS DR/ PR LNDSCP	Water			Sewer	Penalty			Garbage Service	Garbage Fuel Charge		Storm Drain	Deployed Abatement	Deposit	Miscellaneous							262.02																			0	228.54	228.54CR			262.02	262.02	08/08/2022	08/31/2022	07/01/2022	07/31/2022	72						LNDSP						91421392						1						07/20/2022						1235						06/20/2022						1454						219						GAL							Past Due balances must be paid by 08/15/2022  in order to avoid a $50 fee and disconnection of water service.	If you would like to enroll in paperless billing or pay your bills online please visit www.eaglemountaincity.com	120957	05/14/2020		Single Graph				GAL To	30	7																		84005	0	JUL	JUN	MAY	APR	MAR	FEB	JAN	DEC	NOV	OCT	SEP	AUG		7	6	5	4	3	2	1	12	11	10	9	8	0	219	188	182	0	0	0	0	0	0	37	122	177	0	227	181	98	23	0	0	0	0	0	0	0	0	
120957	004	PORTER RANCH TOWNHOMES LLC		 PORTER RANCH TOWNHOMES LLC		3931 E CARDON LN				EAGLE MOUNTAIN UT 84005-4957	UT	84005-4957	31	8245 N JENKS LN/ PR LNDSCP	Water			Sewer	Penalty			Garbage Service	Garbage Fuel Charge		Storm Drain	Deployed Abatement	Deposit	Miscellaneous							263.10																			0	303.06	303.06CR			263.10	263.10	08/08/2022	08/31/2022	07/01/2022	07/31/2022	72						LNDSP						91421390						1						07/20/2022						963						06/20/2022						1183						220						GAL							Past Due balances must be paid by 08/15/2022  in order to avoid a $50 fee and disconnection of water service.	If you would like to enroll in paperless billing or pay your bills online please visit www.eaglemountaincity.com	120957	05/14/2020		Single Graph				GAL To	30	7																		84005	0	JUL	JUN	MAY	APR	MAR	FEB	JAN	DEC	NOV	OCT	SEP	AUG		7	6	5	4	3	2	1	12	11	10	9	8	0	220	257	98	0	0	0	0	0	0	0	114	235	0	157	0	0	0	0	0	0	0	0	0	0	0	
118207	004	PORTER RANCH TOWNHOMES LLC*		 PORTER RANCH TOWNHOMES LLC*		3931 E CARDON LN				EAGLE MOUNTAIN UT 84005-4957	UT	84005-4957	31	8247 N BLUE STONE AVE/ PR 11	Water			Sewer	Penalty			Garbage Service	Garbage Fuel Charge		Storm Drain	Deployed Abatement	Deposit	Miscellaneous							25.50			45.75				14.50			8.25									0	96.16	96.16CR			94.00	94.00	08/08/2022	08/31/2022	07/01/2022	07/31/2022																			0												0												0						0													Past Due balances must be paid by 08/15/2022  in order to avoid a $50 fee and disconnection of water service.	If you would like to enroll in paperless billing or pay your bills online please visit www.eaglemountaincity.com	118207	07/17/2019		Single Graph				GAL To	30	7																		84005	0	JUL	JUN	MAY	APR	MAR	FEB	JAN	DEC	NOV	OCT	SEP	AUG		7	6	5	4	3	2	1	12	11	10	9	8	0	0	2	0	0	0	4	4	2	0	0	27	2	0	0	0	0	0	0	23	4	4	9	0	10	8	
118207	001	PORTER RANCH TOWNHOMES LLC*		 PORTER RANCH TOWNHOMES LLC*		3931 E CARDON LN				EAGLE MOUNTAIN UT 84005-4957	UT	84005-4957	31	8237 N BLUE STONE AVE/ PR 8	Water			Sewer	Penalty			Garbage Service	Garbage Fuel Charge		Storm Drain	Deployed Abatement	Deposit	Miscellaneous							25.50			45.75				9.50			8.25									0	98.72	98.72CR			89.00	89.00	08/08/2022	08/31/2022	07/01/2022	07/31/2022																			0												0												0						0													Past Due balances must be paid by 08/15/2022  in order to avoid a $50 fee and disconnection of water service.	If you would like to enroll in paperless billing or pay your bills online please visit www.eaglemountaincity.com	118207	07/17/2019		Single Graph				GAL To	30	7																		84005	0	JUL	JUN	MAY	APR	MAR	FEB	JAN	DEC	NOV	OCT	SEP	AUG		7	6	5	4	3	2	1	12	11	10	9	8	0	0	9	0	4	0	2	2	3	3	1	4	2	0	3	2	2	2	0	0	2	4	8	0	5	3	
118207	022	PORTER RANCH TOWNHOMES LLC*		 PORTER RANCH TOWNHOMES LLC*		3931 E CARDON LN				EAGLE MOUNTAIN UT 84005-4957	UT	84005-4957	31	8263 N ASTORIA AVE/ PR 22	Water			Sewer	Penalty			Garbage Service	Garbage Fuel Charge		Storm Drain	Deployed Abatement	Deposit	Miscellaneous							29.82			45.75				9.50			8.25									0	93.32	93.32CR			93.32	93.32	08/08/2022	08/31/2022	07/01/2022	07/31/2022	72						00N/A						87151595						1						07/20/2022						101						06/20/2022						105						4						GAL							Past Due balances must be paid by 08/15/2022  in order to avoid a $50 fee and disconnection of water service.	If you would like to enroll in paperless billing or pay your bills online please visit www.eaglemountaincity.com	118207	08/14/2019		Single Graph				GAL To	30	7																		84005	0	JUL	JUN	MAY	APR	MAR	FEB	JAN	DEC	NOV	OCT	SEP	AUG		7	6	5	4	3	2	1	12	11	10	9	8	0	4	4	4	5	3	3	7	4	4	4	3	3	0	3	2	3	4	2	4	4	2	4	2	3	3	
118207	018	PORTER RANCH TOWNHOMES LLC*		 PORTER RANCH TOWNHOMES LLC*		3931 E CARDON LN				EAGLE MOUNTAIN UT 84005-4957	UT	84005-4957	31	8260 N ASTORIA AVE/ PR 18	Water			Sewer	Penalty			Garbage Service	Garbage Fuel Charge		Storm Drain	Deployed Abatement	Deposit	Miscellaneous							25.50			45.75				14.50			8.25									0	140.44	140.44CR			94.00	94.00	08/08/2022	08/31/2022	07/01/2022	07/31/2022																			0												0												0						0													Past Due balances must be paid by 08/15/2022  in order to avoid a $50 fee and disconnection of water service.	If you would like to enroll in paperless billing or pay your bills online please visit www.eaglemountaincity.com	118207	08/14/2019		Single Graph				GAL To	30	7																		84005	0	JUL	JUN	MAY	APR	MAR	FEB	JAN	DEC	NOV	OCT	SEP	AUG		7	6	5	4	3	2	1	12	11	10	9	8	0	0	43	0	8	0	4	2	3	8	2	0	12	0	3	6	4	9	27	2	2	4	6	4	10	11	
118207	002	PORTER RANCH TOWNHOMES LLC*		 PORTER RANCH TOWNHOMES LLC*		3931 E CARDON LN				EAGLE MOUNTAIN UT 84005-4957	UT	84005-4957	31	8241 N BLUE STONE AVE/ PR 9	Water			Sewer	Penalty			Garbage Service	Garbage Fuel Charge		Storm Drain	Deployed Abatement	Deposit	Miscellaneous							25.50			45.75				14.50			8.25									0	138.28	138.28CR			94.00	94.00	08/08/2022	08/31/2022	07/01/2022	07/31/2022																			0												0												0						0													Past Due balances must be paid by 08/15/2022  in order to avoid a $50 fee and disconnection of water service.	If you would like to enroll in paperless billing or pay your bills online please visit www.eaglemountaincity.com	118207	07/17/2019		Single Graph				GAL To	30	7																		84005	0	JUL	JUN	MAY	APR	MAR	FEB	JAN	DEC	NOV	OCT	SEP	AUG		7	6	5	4	3	2	1	12	11	10	9	8	0	0	41	0	5	0	3	1	3	9	6	11	4	0	5	2	2	5	3	1	1	4	8	0	5	0	
118207	005	PORTER RANCH TOWNHOMES LLC*		 PORTER RANCH TOWNHOMES LLC*		3931 E CARDON LN				EAGLE MOUNTAIN UT 84005-4957	UT	84005-4957	31	8249 N BLUE STONE AVE/ PR 12	Water			Sewer	Penalty			Garbage Service	Garbage Fuel Charge		Storm Drain	Deployed Abatement	Deposit	Miscellaneous							25.50			45.75				9.50			8.25									0	92.24	92.24CR			89.00	89.00	08/08/2022	08/31/2022	07/01/2022	07/31/2022																			0												0												0						0													Past Due balances must be paid by 08/15/2022  in order to avoid a $50 fee and disconnection of water service.	If you would like to enroll in paperless billing or pay your bills online please visit www.eaglemountaincity.com	118207	07/17/2019		Single Graph				GAL To	30	7																		84005	0	JUL	JUN	MAY	APR	MAR	FEB	JAN	DEC	NOV	OCT	SEP	AUG		7	6	5	4	3	2	1	12	11	10	9	8	0	0	3	0	2	0	0	1	2	0	0	0	1	0	0	1	0	0	0	0	1	6	4	0	0	0	
118207	008	PORTER RANCH TOWNHOMES LLC*		 PORTER RANCH TOWNHOMES LLC*		3931 E CARDON LN				EAGLE MOUNTAIN UT 84005-4957	UT	84005-4957	31	8234 N BLUE STONE AVE/ PR 1 4	Water			Sewer	Penalty			Garbage Service	Garbage Fuel Charge		Storm Drain	Deployed Abatement	Deposit	Miscellaneous							25.50			45.75				9.50			8.25									0	96.56	96.56CR			89.00	89.00	08/08/2022	08/31/2022	07/01/2022	07/31/2022																			0												0												0						0													Past Due balances must be paid by 08/15/2022  in order to avoid a $50 fee and disconnection of water service.	If you would like to enroll in paperless billing or pay your bills online please visit www.eaglemountaincity.com	118207	07/17/2019		Single Graph				GAL To	30	7																		84005	0	JUL	JUN	MAY	APR	MAR	FEB	JAN	DEC	NOV	OCT	SEP	AUG		7	6	5	4	3	2	1	12	11	10	9	8	0	0	7	0	3	0	3	4	3	0	7	5	1	0	1	0	0	0	18	0	4	4	11	0	0	6	
118207	007	PORTER RANCH TOWNHOMES LLC*		 PORTER RANCH TOWNHOMES LLC*		3931 E CARDON LN				EAGLE MOUNTAIN UT 84005-4957	UT	84005-4957	31	8232 N BLUE STONE AVE/ PR 1 3	Water			Sewer	Penalty			Garbage Service	Garbage Fuel Charge		Storm Drain	Deployed Abatement	Deposit	Miscellaneous							25.50			45.75				14.50			8.25									0	77.80	77.80CR			94.00	94.00	08/08/2022	08/31/2022	07/01/2022	07/31/2022																			0												0												0						0													Past Due balances must be paid by 08/15/2022  in order to avoid a $50 fee and disconnection of water service.	If you would like to enroll in paperless billing or pay your bills online please visit www.eaglemountaincity.com	118207	07/17/2019		Single Graph				GAL To	30	7																		84005	0	JUL	JUN	MAY	APR	MAR	FEB	JAN	DEC	NOV	OCT	SEP	AUG		7	6	5	4	3	2	1	12	11	10	9	8	0	0	-15	0	0	0	0	1	0	0	0	0	0	0	0	0	15	0	0	0	1	4	9	0	0	1	
118207	000	PORTER RANCH TOWNHOMES LLC*		 PORTER RANCH TOWNHOMES LLC*		3931 E CARDON LN				EAGLE MOUNTAIN UT 84005-4957	UT	84005-4957	31	8235 N BLUE STONE AVE/ PR 7	Water			Sewer	Penalty			Garbage Service	Garbage Fuel Charge		Storm Drain	Deployed Abatement	Deposit	Miscellaneous							25.50			45.75				9.50			8.25									0	92.24	92.24CR			89.00	89.00	08/08/2022	08/31/2022	07/01/2022	07/31/2022																			0												0												0						0													Past Due balances must be paid by 08/15/2022  in order to avoid a $50 fee and disconnection of water service.	If you would like to enroll in paperless billing or pay your bills online please visit www.eaglemountaincity.com	118207	07/17/2019		Single Graph				GAL To	30	7																		84005	0	JUL	JUN	MAY	APR	MAR	FEB	JAN	DEC	NOV	OCT	SEP	AUG		7	6	5	4	3	2	1	12	11	10	9	8	0	0	3	0	6	0	2	3	2	4	2	4	4	0	4	5	2	4	0	0	3	4	12	4	5	2	
118207	003	PORTER RANCH TOWNHOMES LLC*		 PORTER RANCH TOWNHOMES LLC*		3931 E CARDON LN				EAGLE MOUNTAIN UT 84005-4957	UT	84005-4957	31	8243 N BLUE STONE AVE/ PR 10	Water			Sewer	Penalty			Garbage Service	Garbage Fuel Charge		Storm Drain	Deployed Abatement	Deposit	Miscellaneous							25.50			45.75				9.50			8.25									0	94.40	94.40CR			89.00	89.00	08/08/2022	08/31/2022	07/01/2022	07/31/2022																			0												0												0						0													Past Due balances must be paid by 08/15/2022  in order to avoid a $50 fee and disconnection of water service.	If you would like to enroll in paperless billing or pay your bills online please visit www.eaglemountaincity.com	118207	07/17/2019		Single Graph				GAL To	30	7																		84005	0	JUL	JUN	MAY	APR	MAR	FEB	JAN	DEC	NOV	OCT	SEP	AUG		7	6	5	4	3	2	1	12	11	10	9	8	0	0	5	0	6	0	4	5	3	5	2	4	3	0	4	3	4	2	4	2	5	6	7	2	5	4	
118207	009	PORTER RANCH TOWNHOMES LLC*		 PORTER RANCH TOWNHOMES LLC*		3931 E CARDON LN				EAGLE MOUNTAIN UT 84005-4957	UT	84005-4957	31	8238 N BLUE STONE AVE/ PR 1 5	Water			Sewer	Penalty			Garbage Service	Garbage Fuel Charge		Storm Drain	Deployed Abatement	Deposit	Miscellaneous							25.50			45.75				9.50			8.25									0	92.24	92.24CR			89.00	89.00	08/08/2022	08/31/2022	07/01/2022	07/31/2022																			0												0												0						0													Past Due balances must be paid by 08/15/2022  in order to avoid a $50 fee and disconnection of water service.	If you would like to enroll in paperless billing or pay your bills online please visit www.eaglemountaincity.com	118207	07/17/2019		Single Graph				GAL To	30	7																		84005	0	JUL	JUN	MAY	APR	MAR	FEB	JAN	DEC	NOV	OCT	SEP	AUG		7	6	5	4	3	2	1	12	11	10	9	8	0	0	3	0	16	0	3	3	2	0	9	9	5	0	4	0	0	0	0	4	3	4	10	0	0	6	
118207	010	PORTER RANCH TOWNHOMES LLC*		 PORTER RANCH TOWNHOMES LLC*		3931 E CARDON LN				EAGLE MOUNTAIN UT 84005-4957	UT	84005-4957	31	8242 N BLUE STONE AVE/ PR 1 6	Water			Sewer	Penalty			Garbage Service	Garbage Fuel Charge		Storm Drain	Deployed Abatement	Deposit	Miscellaneous							25.50			45.75				14.50			8.25									0	99.40	99.40CR			94.00	94.00	08/08/2022	08/31/2022	07/01/2022	07/31/2022																			0												0												0						0													Past Due balances must be paid by 08/15/2022  in order to avoid a $50 fee and disconnection of water service.	If you would like to enroll in paperless billing or pay your bills online please visit www.eaglemountaincity.com	118207	07/17/2019		Single Graph				GAL To	30	7																		84005	0	JUL	JUN	MAY	APR	MAR	FEB	JAN	DEC	NOV	OCT	SEP	AUG		7	6	5	4	3	2	1	12	11	10	9	8	0	0	5	0	6	0	4	2	3	2	2	4	2	0	3	2	2	5	5	1	2	4	12	12	6	22	
118207	006	PORTER RANCH TOWNHOMES LLC*		 PORTER RANCH TOWNHOMES LLC*		3931 E CARDON LN				EAGLE MOUNTAIN UT 84005-4957	UT	84005-4957	31	8228 N BLUE STONE AVE/ PR 1 2	Water			Sewer	Penalty			Garbage Service	Garbage Fuel Charge		Storm Drain	Deployed Abatement	Deposit	Miscellaneous							25.50			45.75				9.50			8.25									0	93.32	93.32CR			89.00	89.00	08/08/2022	08/31/2022	07/01/2022	07/31/2022																			0												0												0						0													Past Due balances must be paid by 08/15/2022  in order to avoid a $50 fee and disconnection of water service.	If you would like to enroll in paperless billing or pay your bills online please visit www.eaglemountaincity.com	118207	07/17/2019		Single Graph				GAL To	30	7																		84005	0	JUL	JUN	MAY	APR	MAR	FEB	JAN	DEC	NOV	OCT	SEP	AUG		7	6	5	4	3	2	1	12	11	10	9	8	0	0	4	0	12	0	0	1	3	3	3	3	5	0	0	5	0	5	3	0	1	6	5	0	0	0	
118207	014	PORTER RANCH TOWNHOMES LLC*		 PORTER RANCH TOWNHOMES LLC*		3931 E CARDON LN				EAGLE MOUNTAIN UT 84005-4957	UT	84005-4957	31	8244 N ASTORIA AVE/ PR 13	Water			Sewer	Penalty			Garbage Service	Garbage Fuel Charge		Storm Drain	Deployed Abatement	Deposit	Miscellaneous							28.74			45.75				14.50			8.25									0	98.32	98.32CR			97.24	97.24	08/08/2022	08/31/2022	07/01/2022	07/31/2022	72						00N/A						87151602						1						07/20/2022						157						06/20/2022						160						3						GAL							Past Due balances must be paid by 08/15/2022  in order to avoid a $50 fee and disconnection of water service.	If you would like to enroll in paperless billing or pay your bills online please visit www.eaglemountaincity.com	118207	08/14/2019		Single Graph				GAL To	31	7																		84005	0	JUL	JUN	MAY	APR	MAR	FEB	JAN	DEC	NOV	OCT	SEP	AUG		7	6	5	4	3	2	1	12	11	10	9	8	0	3	4	3	2	2	4	4	3	4	4	4	3	0	4	5	5	8	7	3	1	4	2	1	4	6	
118207	015	PORTER RANCH TOWNHOMES LLC*		 PORTER RANCH TOWNHOMES LLC*		3931 E CARDON LN				EAGLE MOUNTAIN UT 84005-4957	UT	84005-4957	31	8248 N ASTORIA AVE/ PR 14	Water			Sewer	Penalty			Garbage Service	Garbage Fuel Charge		Storm Drain	Deployed Abatement	Deposit	Miscellaneous							31.98			45.75				9.50			8.25									0	95.48	95.48CR			95.48	95.48	08/08/2022	08/31/2022	07/01/2022	07/31/2022	72						00N/A						87151601						1						07/20/2022						189						06/20/2022						195						6						GAL							Past Due balances must be paid by 08/15/2022  in order to avoid a $50 fee and disconnection of water service.	If you would like to enroll in paperless billing or pay your bills online please visit www.eaglemountaincity.com	118207	08/14/2019		Single Graph				GAL To	31	7																		84005	0	JUL	JUN	MAY	APR	MAR	FEB	JAN	DEC	NOV	OCT	SEP	AUG		7	6	5	4	3	2	1	12	11	10	9	8	0	6	6	6	7	6	5	7	5	5	6	7	5	0	4	5	5	7	5	7	7	6	9	11	13	18	
118207	016	PORTER RANCH TOWNHOMES LLC*		 PORTER RANCH TOWNHOMES LLC*		3931 E CARDON LN				EAGLE MOUNTAIN UT 84005-4957	UT	84005-4957	31	8250 N ASTORIA AVE/ PR 15	Water			Sewer	Penalty			Garbage Service	Garbage Fuel Charge		Storm Drain	Deployed Abatement	Deposit	Miscellaneous							38.46			45.75				9.50			8.25									0	98.72	98.72CR			101.96	101.96	08/08/2022	08/31/2022	07/01/2022	07/31/2022	72						00N/A						87151600						1						07/20/2022						176						06/20/2022						188						12						GAL							Past Due balances must be paid by 08/15/2022  in order to avoid a $50 fee and disconnection of water service.	If you would like to enroll in paperless billing or pay your bills online please visit www.eaglemountaincity.com	118207	08/14/2019		Single Graph				GAL To	31	7																		84005	0	JUL	JUN	MAY	APR	MAR	FEB	JAN	DEC	NOV	OCT	SEP	AUG		7	6	5	4	3	2	1	12	11	10	9	8	0	12	9	7	8	7	6	7	5	7	5	7	5	0	6	5	6	6	5	6	7	4	6	6	3	6	
118207	024	PORTER RANCH TOWNHOMES LLC*		 PORTER RANCH TOWNHOMES LLC*		3931 E CARDON LN				EAGLE MOUNTAIN UT 84005-4957	UT	84005-4957	31	8266 N SILVER SPRINGS AVE/ PR 26	Water			Sewer	Penalty			Garbage Service	Garbage Fuel Charge		Storm Drain	Deployed Abatement	Deposit	Miscellaneous							25.50			45.75				9.50			8.25									0	100.88	100.88CR			89.00	89.00	08/08/2022	08/31/2022	07/01/2022	07/31/2022																			0												0												0						0													Past Due balances must be paid by 08/15/2022  in order to avoid a $50 fee and disconnection of water service.	If you would like to enroll in paperless billing or pay your bills online please visit www.eaglemountaincity.com	118207	08/14/2019		Single Graph				GAL To	31	7																		84005	0	JUL	JUN	MAY	APR	MAR	FEB	JAN	DEC	NOV	OCT	SEP	AUG		7	6	5	4	3	2	1	12	11	10	9	8	0	0	11	0	5	0	4	4	0	0	3	0	6	0	4	3	2	4	1	2	4	4	9	5	6	5	
118207	027	PORTER RANCH TOWNHOMES LLC*		 PORTER RANCH TOWNHOMES LLC*		3931 E CARDON LN				EAGLE MOUNTAIN UT 84005-4957	UT	84005-4957	31	8274 N SILVER SPRINGS AVE/ PR 29	Water			Sewer	Penalty			Garbage Service	Garbage Fuel Charge		Storm Drain	Deployed Abatement	Deposit	Miscellaneous							27.66			45.75				9.50			8.25									0	92.24	92.24CR			91.16	91.16	08/08/2022	08/31/2022	07/01/2022	07/31/2022	72						00N/A						87151567						1						07/20/2022						92						06/20/2022						94						2						GAL							Past Due balances must be paid by 08/15/2022  in order to avoid a $50 fee and disconnection of water service.	If you would like to enroll in paperless billing or pay your bills online please visit www.eaglemountaincity.com	118207	08/14/2019		Single Graph				GAL To	31	7																		84005	0	JUL	JUN	MAY	APR	MAR	FEB	JAN	DEC	NOV	OCT	SEP	AUG		7	6	5	4	3	2	1	12	11	10	9	8	0	2	3	1	3	2	2	2	1	2	2	1	2	0	2	1	2	3	3	3	3	3	3	4	6	5	
118207	011	PORTER RANCH TOWNHOMES LLC*		 PORTER RANCH TOWNHOMES LLC*		3931 E CARDON LN				EAGLE MOUNTAIN UT 84005-4957	UT	84005-4957	31	8269 N ASTORIA AVE/ PR 24	Water			Sewer	Penalty			Garbage Service	Garbage Fuel Charge		Storm Drain	Deployed Abatement	Deposit	Miscellaneous							28.74			45.75				9.50			8.25									0	92.24	92.24CR			92.24	92.24	08/08/2022	08/31/2022	07/01/2022	07/31/2022	72						00N/A						87151532						1						07/20/2022						123						06/20/2022						126						3						GAL							Past Due balances must be paid by 08/15/2022  in order to avoid a $50 fee and disconnection of water service.	If you would like to enroll in paperless billing or pay your bills online please visit www.eaglemountaincity.com	118207	09/06/2019		Single Graph				GAL To	31	7																		84005	0	JUL	JUN	MAY	APR	MAR	FEB	JAN	DEC	NOV	OCT	SEP	AUG		7	6	5	4	3	2	1	12	11	10	9	8	0	3	3	3	3	3	1	0	4	5	5	5	6	0	6	4	4	6	5	4	5	4	5	5	4	5	
118207	019	PORTER RANCH TOWNHOMES LLC*		 PORTER RANCH TOWNHOMES LLC*		3931 E CARDON LN				EAGLE MOUNTAIN UT 84005-4957	UT	84005-4957	31	8256 N ASTORIA AVE/ PR 17	Water			Sewer	Penalty			Garbage Service	Garbage Fuel Charge		Storm Drain	Deployed Abatement	Deposit	Miscellaneous							29.82			45.75				9.50			8.25									0	92.24	92.24CR			93.32	93.32	08/08/2022	08/31/2022	07/01/2022	07/31/2022	72						00N/A						87151597						1						07/20/2022						102						06/20/2022						106						4						GAL							Past Due balances must be paid by 08/15/2022  in order to avoid a $50 fee and disconnection of water service.	If you would like to enroll in paperless billing or pay your bills online please visit www.eaglemountaincity.com	118207	08/14/2019		Single Graph				GAL To	31	7																		84005	0	JUL	JUN	MAY	APR	MAR	FEB	JAN	DEC	NOV	OCT	SEP	AUG		7	6	5	4	3	2	1	12	11	10	9	8	0	4	3	3	4	4	3	4	4	3	3	5	4	0	4	0	0	3	3	5	8	7	4	3	3	6	
118207	026	PORTER RANCH TOWNHOMES LLC*		 PORTER RANCH TOWNHOMES LLC*		3931 E CARDON LN				EAGLE MOUNTAIN UT 84005-4957	UT	84005-4957	31	8270 N SILVER SPRINGS AVE/ PR 27	Water			Sewer	Penalty			Garbage Service	Garbage Fuel Charge		Storm Drain	Deployed Abatement	Deposit	Miscellaneous							30.90			45.75				9.50			8.25									0	97.64	97.64CR			94.40	94.40	08/08/2022	08/31/2022	07/01/2022	07/31/2022	72						00N/A						87151568						1						07/20/2022						130						06/20/2022						135						5						GAL							Past Due balances must be paid by 08/15/2022  in order to avoid a $50 fee and disconnection of water service.	If you would like to enroll in paperless billing or pay your bills online please visit www.eaglemountaincity.com	118207	08/14/2019		Single Graph				GAL To	31	7																		84005	0	JUL	JUN	MAY	APR	MAR	FEB	JAN	DEC	NOV	OCT	SEP	AUG		7	6	5	4	3	2	1	12	11	10	9	8	0	5	8	5	5	6	7	9	7	7	6	7	5	0	7	5	6	7	6	5	0	2	3	2	1	2	
118207	023	PORTER RANCH TOWNHOMES LLC*		 PORTER RANCH TOWNHOMES LLC*		3931 E CARDON LN				EAGLE MOUNTAIN UT 84005-4957	UT	84005-4957	31	8262 N SILVER SPRINGS AVE/ PR 25	Water			Sewer	Penalty			Garbage Service	Garbage Fuel Charge		Storm Drain	Deployed Abatement	Deposit	Miscellaneous							25.50			45.75				9.50			8.25									0	146.24	146.24CR			89.00	89.00	08/08/2022	08/31/2022	07/01/2022	07/31/2022																			0												0												0						0													Past Due balances must be paid by 08/15/2022  in order to avoid a $50 fee and disconnection of water service.	If you would like to enroll in paperless billing or pay your bills online please visit www.eaglemountaincity.com	118207	08/13/2019		Single Graph				GAL To	31	7																		84005	0	JUL	JUN	MAY	APR	MAR	FEB	JAN	DEC	NOV	OCT	SEP	AUG		7	6	5	4	3	2	1	12	11	10	9	8	0	0	53	0	5	0	5	5	2	0	2	7	10	0	8	7	4	9	8	19	5	4	5	7	8	8	
118207	025	PORTER RANCH TOWNHOMES LLC*		 PORTER RANCH TOWNHOMES LLC*		3931 E CARDON LN				EAGLE MOUNTAIN UT 84005-4957	UT	84005-4957	31	8272 N SILVER SPRINGS AVE/ PR 28	Water			Sewer	Penalty			Garbage Service	Garbage Fuel Charge		Storm Drain	Deployed Abatement	Deposit	Miscellaneous							29.82			45.75				9.50			8.25									0	94.40	94.40CR			93.32	93.32	08/08/2022	08/31/2022	07/01/2022	07/31/2022	72						00N/A						87151564						1						07/20/2022						145						06/20/2022						149						4						GAL							Past Due balances must be paid by 08/15/2022  in order to avoid a $50 fee and disconnection of water service.	If you would like to enroll in paperless billing or pay your bills online please visit www.eaglemountaincity.com	118207	08/14/2019		Single Graph				GAL To	31	7																		84005	0	JUL	JUN	MAY	APR	MAR	FEB	JAN	DEC	NOV	OCT	SEP	AUG		7	6	5	4	3	2	1	12	11	10	9	8	0	4	5	4	6	4	4	5	5	4	5	5	5	0	5	4	4	5	5	6	12	3	6	5	6	6	
118207	020	PORTER RANCH TOWNHOMES LLC*		 PORTER RANCH TOWNHOMES LLC*		3931 E CARDON LN				EAGLE MOUNTAIN UT 84005-4957	UT	84005-4957	31	8253 N ASTORIA AVE/ PR 19	Water			Sewer	Penalty			Garbage Service	Garbage Fuel Charge		Storm Drain	Deployed Abatement	Deposit	Miscellaneous							27.66			45.75				9.50			8.25									0	91.16	91.16CR			91.16	91.16	08/08/2022	08/31/2022	07/01/2022	07/31/2022	72						00N/A						87151487						1						07/20/2022						94						06/20/2022						96						2						GAL							Past Due balances must be paid by 08/15/2022  in order to avoid a $50 fee and disconnection of water service.	If you would like to enroll in paperless billing or pay your bills online please visit www.eaglemountaincity.com	118207	08/14/2019		Single Graph				GAL To	31	7																		84005	0	JUL	JUN	MAY	APR	MAR	FEB	JAN	DEC	NOV	OCT	SEP	AUG		7	6	5	4	3	2	1	12	11	10	9	8	0	2	2	1	2	2	1	0	0	1	3	4	4	0	3	4	3	4	3	3	4	4	3	4	3	4	
118207	028	PORTER RANCH TOWNHOMES LLC*		 PORTER RANCH TOWNHOMES LLC*		3931 E CARDON LN				EAGLE MOUNTAIN UT 84005-4957	UT	84005-4957	31	8278 N SILVER SPRINGS AVE/ PR 30	Water			Sewer	Penalty			Garbage Service	Garbage Fuel Charge		Storm Drain	Deployed Abatement	Deposit	Miscellaneous							27.66			45.75				14.50			8.25									0	96.16	96.16CR			96.16	96.16	08/08/2022	08/31/2022	07/01/2022	07/31/2022	72						00N/A						87151563						1						07/20/2022						71						06/20/2022						73						2						GAL							Past Due balances must be paid by 08/15/2022  in order to avoid a $50 fee and disconnection of water service.	If you would like to enroll in paperless billing or pay your bills online please visit www.eaglemountaincity.com	118207	08/14/2019		Single Graph				GAL To	31	7																		84005	0	JUL	JUN	MAY	APR	MAR	FEB	JAN	DEC	NOV	OCT	SEP	AUG		7	6	5	4	3	2	1	12	11	10	9	8	0	2	2	2	2	3	2	2	2	2	3	2	2	0	2	3	2	2	2	1	3	2	2	2	2	3	
118207	012	PORTER RANCH TOWNHOMES LLC*		 PORTER RANCH TOWNHOMES LLC*		3931 E CARDON LN				EAGLE MOUNTAIN UT 84005-4957	UT	84005-4957	31	8265 N ASTORIA AVE/ PR 23	Water			Sewer	Penalty			Garbage Service	Garbage Fuel Charge		Storm Drain	Deployed Abatement	Deposit	Miscellaneous							26.58			45.75				9.50			8.25									0	90.08	90.08CR			90.08	90.08	08/08/2022	08/31/2022	07/01/2022	07/31/2022	02						00N/A						87151543						1						07/20/2022						104						06/20/2022						105						1						GAL							Past Due balances must be paid by 08/15/2022  in order to avoid a $50 fee and disconnection of water service.	If you would like to enroll in paperless billing or pay your bills online please visit www.eaglemountaincity.com	118207	09/06/2019		Single Graph				GAL To	31	7																		84005	0	JUL	JUN	MAY	APR	MAR	FEB	JAN	DEC	NOV	OCT	SEP	AUG		7	6	5	4	3	2	1	12	11	10	9	8	0	1	1	2	0	1	0	0	0	5	4	5	4	0	4	4	4	4	4	4	3	4	5	5	5	6	
118207	013	PORTER RANCH TOWNHOMES LLC*		 PORTER RANCH TOWNHOMES LLC*		3931 E CARDON LN				EAGLE MOUNTAIN UT 84005-4957	UT	84005-4957	31	8255 N ASTORIA AVE/ PR 20	Water			Sewer	Penalty			Garbage Service	Garbage Fuel Charge		Storm Drain	Deployed Abatement	Deposit	Miscellaneous							35.22			45.75				9.50			8.25									0	99.80	99.80CR			98.72	98.72	08/08/2022	08/31/2022	07/01/2022	07/31/2022	72						00N/A						87151542						1						07/20/2022						104						06/20/2022						113						9						GAL							Past Due balances must be paid by 08/15/2022  in order to avoid a $50 fee and disconnection of water service.	If you would like to enroll in paperless billing or pay your bills online please visit www.eaglemountaincity.com	118207	09/06/2019		Single Graph				GAL To	31	7																		84005	0	JUL	JUN	MAY	APR	MAR	FEB	JAN	DEC	NOV	OCT	SEP	AUG		7	6	5	4	3	2	1	12	11	10	9	8	0	9	10	8	4	2	3	2	3	2	2	3	2	0	2	2	3	4	3	4	3	4	3	4	3	4	
118207	021	PORTER RANCH TOWNHOMES LLC*		 PORTER RANCH TOWNHOMES LLC*		3931 E CARDON LN				EAGLE MOUNTAIN UT 84005-4957	UT	84005-4957	31	8259 N ASTORIA AVE/ PR 21	Water			Sewer	Penalty			Garbage Service	Garbage Fuel Charge		Storm Drain	Deployed Abatement	Deposit	Miscellaneous							27.66			45.75				9.50			8.25									0	92.24	92.24CR			91.16	91.16	08/08/2022	08/31/2022	07/01/2022	07/31/2022	72						00N/A						87151483						1						07/20/2022						100						06/20/2022						102						2						GAL							Past Due balances must be paid by 08/15/2022  in order to avoid a $50 fee and disconnection of water service.	If you would like to enroll in paperless billing or pay your bills online please visit www.eaglemountaincity.com	118207	08/14/2019		Single Graph				GAL To	31	7																		84005	0	JUL	JUN	MAY	APR	MAR	FEB	JAN	DEC	NOV	OCT	SEP	AUG		7	6	5	4	3	2	1	12	11	10	9	8	0	2	3	2	4	2	1	0	0	1	5	8	5	0	5	4	5	4	0	0	2	4	5	5	4	6	
118207	017	PORTER RANCH TOWNHOMES LLC*		 PORTER RANCH TOWNHOMES LLC*		3931 E CARDON LN				EAGLE MOUNTAIN UT 84005-4957	UT	84005-4957	31	8254 N ASTORIA AVE/ PR 16	Water			Sewer	Penalty			Garbage Service	Garbage Fuel Charge		Storm Drain	Deployed Abatement	Deposit	Miscellaneous							27.66			45.75				9.50			8.25									0	90.08	90.08CR			91.16	91.16	08/08/2022	08/31/2022	07/01/2022	07/31/2022	72						00N/A						87151598						1						07/20/2022						50						06/20/2022						52						2						GAL							Past Due balances must be paid by 08/15/2022  in order to avoid a $50 fee and disconnection of water service.	If you would like to enroll in paperless billing or pay your bills online please visit www.eaglemountaincity.com	118207	08/13/2019		Single Graph				GAL To	31	7																		84005	0	JUL	JUN	MAY	APR	MAR	FEB	JAN	DEC	NOV	OCT	SEP	AUG		7	6	5	4	3	2	1	12	11	10	9	8	0	2	1	1	2	1	1	3	1	2	1	2	1	0	2	1	2	2	1	2	2	1	3	2	2	2	
127439	000	UKOREBI	KATIE	KATIE UKOREBI		7528 N EVANS RANCH DR				EAGLE MOUNTAIN UT 84005-5035	UT	84005-5035	28	5029 E SAGEBRUSH LN/ SL 1001	Water			Sewer	Penalty			Garbage Service	Garbage Fuel Charge		Storm Drain	Deployed Abatement	Deposit	Miscellaneous							35.22			45.75				14.50			8.25									0	110.20	110.20CR			103.72	103.72	08/08/2022	08/31/2022	07/01/2022	07/31/2022	53						01001						79795232						1						07/18/2022						751						06/16/2022						760						9						GAL							Past Due balances must be paid by 08/15/2022  in order to avoid a $50 fee and disconnection of water service.	If you would like to enroll in paperless billing or pay your bills online please visit www.eaglemountaincity.com	127439	06/04/2021		Single Graph				GAL To	31	7																		84005	0	JUL	JUN	MAY	APR	MAR	FEB	JAN	DEC	NOV	OCT	SEP	AUG		7	6	5	4	3	2	1	12	11	10	9	8	0	9	15	7	7	5	6	8	6	6	8	18	17	0	33	0	0	0	0	0	0	0	0	0	0	0	
130884	000	UKOREBI	KATIE	KATIE UKOREBI		7528 N EVANS RANCH DR				EAGLE MOUNTAIN UT 84005-5035	UT	84005-5035	28	7528 N EVANS RANCH DR/ ER B2 20	Water			Sewer	Penalty			Garbage Service	Garbage Fuel Charge		Storm Drain	Deployed Abatement	Deposit	Miscellaneous							55.74			45.75				14.50			8.25									0	70.32	70.32CR			124.24	124.24	08/08/2022	08/31/2022	07/01/2022	07/31/2022	70						00020						77340445						1						07/19/2022						1379						06/21/2022						1407						28						GAL							Past Due balances must be paid by 08/15/2022  in order to avoid a $50 fee and disconnection of water service.	If you would like to enroll in paperless billing or pay your bills online please visit www.eaglemountaincity.com	130884	06/21/2022		Single Graph				GAL To	31	7																		84005	0	JUL	JUN	MAY	APR	MAR	FEB	JAN	DEC	NOV	OCT	SEP	AUG		7	6	5	4	3	2	1	12	11	10	9	8	0	28	0	0	0	0	0	0	0	0	0	0	0	0	0	0	0	0	0	0	0	0	0	0	0	0	
123254	000	JAAR	JOSE	JOSE JAAR		4942 N MT NEBO DR				EAGLE MOUNTAIN UT 84005-5156	UT	84005-5156	42	4942 N MT NEBO DR/ BP A1 149	Water			Sewer	Penalty			Garbage Service	Garbage Fuel Charge		Storm Drain	Deployed Abatement	Deposit	Miscellaneous							77.34			45.75				20.75			8.25									0	134.81	134.81CR			152.09	152.09	08/08/2022	08/31/2022	07/01/2022	07/31/2022	24						00149						87151607						1						07/20/2022						663						06/20/2022						711						48						GAL							Past Due balances must be paid by 08/15/2022  in order to avoid a $50 fee and disconnection of water service.	If you would like to enroll in paperless billing or pay your bills online please visit www.eaglemountaincity.com	123254	09/04/2019		Single Graph				GAL To	31	7																		84005	0	JUL	JUN	MAY	APR	MAR	FEB	JAN	DEC	NOV	OCT	SEP	AUG		7	6	5	4	3	2	1	12	11	10	9	8	0	48	32	30	4	2	4	7	3	3	28	63	49	0	62	49	27	9	2	4	4	5	12	36	38	50	
123254	001	JAAR	JOSE	JOSE JAAR		4942 N MT NEBO DR				EAGLE MOUNTAIN UT 84005-5156	UT	84005-5156	42	430 E ABAJO PEAK DR/ BP A 1031	Water			Sewer	Penalty			Garbage Service	Garbage Fuel Charge		Storm Drain	Deployed Abatement	Deposit	Miscellaneous							58.98			45.75				9.50			8.25									0	184.28	184.28CR			122.48	122.48	08/08/2022	08/31/2022	07/01/2022	07/31/2022	24						01031						90315995						1						07/20/2022						202						06/20/2022						233						31						GAL							Past Due balances must be paid by 08/15/2022  in order to avoid a $50 fee and disconnection of water service.	If you would like to enroll in paperless billing or pay your bills online please visit www.eaglemountaincity.com	123254	09/21/2021		Single Graph				GAL To	31	7																		84005	0	JUL	JUN	MAY	APR	MAR	FEB	JAN	DEC	NOV	OCT	SEP	AUG		7	6	5	4	3	2	1	12	11	10	9	8	0	31	87	42	1	1	1	1	0	0	34	0	0	0	0	0	0	0	0	0	0	0	0	0	0	0	
122570	001	PEDRONI	ALEXANDRIA	ALEXANDRIA PEDRONI		1436 E SHEPS RIDGE RD				EAGLE MOUNTAIN UT 84005-5174	UT	84005-5174	36	1436 E SHEPS RIDGE RD/ OL A3 302	Water			Sewer	Penalty			Garbage Service	Garbage Fuel Charge		Storm Drain	Deployed Abatement	Deposit	Miscellaneous							103.68			45.75				27.00			8.25									0	140.82	140.82CR			184.68	184.68	08/08/2022	08/31/2022	07/01/2022	07/31/2022	18						00302						87790858						1						07/20/2022						580						06/17/2022						652						72						GAL							Past Due balances must be paid by 08/15/2022  in order to avoid a $50 fee and disconnection of water service.	If you would like to enroll in paperless billing or pay your bills online please visit www.eaglemountaincity.com	122570	05/31/2022		Single Graph				GAL To	31	7																		84005	0	JUL	JUN	MAY	APR	MAR	FEB	JAN	DEC	NOV	OCT	SEP	AUG		7	6	5	4	3	2	1	12	11	10	9	8	0	72	37	0	0	0	0	0	0	0	0	0	0	0	0	0	0	0	0	0	0	0	0	0	0	0	
122570	000	PEDRONI	ALEXANDRIA	ALEXANDRIA PEDRONI		1436 E SHEPS RIDGE RD				EAGLE MOUNTAIN UT 84005-5174	UT	84005-5174	36	2885 E LOOKOUT DR/ HC 65	Water			Sewer	Penalty			Garbage Service	Garbage Fuel Charge		Storm Drain	Deployed Abatement	Deposit	Miscellaneous							60.06			45.75				20.75			8.25									0	111.05	111.05CR			134.81	134.81	08/08/2022	08/31/2022	07/01/2022	07/31/2022	56						00065						89218363						1						07/20/2022						169						06/20/2022						201						32						GAL							Past Due balances must be paid by 08/15/2022  in order to avoid a $50 fee and disconnection of water service.	If you would like to enroll in paperless billing or pay your bills online please visit www.eaglemountaincity.com	122570	05/31/2019		Single Graph				GAL To	31	7																		84005	0	JUL	JUN	MAY	APR	MAR	FEB	JAN	DEC	NOV	OCT	SEP	AUG		7	6	5	4	3	2	1	12	11	10	9	8	0	32	10	8	8	6	7	8	7	7	15	19	28	0	19	8	6	13	3	8	8	4	9	8	10	22	
106868	002	PETERSON	MATT	MATT PETERSON		9307 N SCENIC MOUNTAIN DR				EAGLE MOUNTAIN UT 84005-5318	UT	84005-5318	07	3763 E TURNBERRY RD/ SHD 245	Water			Sewer	Penalty			Garbage Service	Garbage Fuel Charge		Storm Drain	Deployed Abatement	Deposit	Miscellaneous																										0	76.98	0.00CR				76.98	08/08/2022	08/31/2022	07/01/2022	07/31/2022																			0												0												0						0													Past Due balances must be paid by 08/15/2022  in order to avoid a $50 fee and disconnection of water service.	If you would like to enroll in paperless billing or pay your bills online please visit www.eaglemountaincity.com	106868	11/02/2012	76.98	Single Graph				GAL To	31	7																		84005	0	JUL	JUN	MAY	APR	MAR	FEB	JAN	DEC	NOV	OCT	SEP	AUG		7	6	5	4	3	2	1	12	11	10	9	8	0	0	0	0	0	0	0	0	0	0	0	0	0	0	0	0	0	0	0	0	0	2	9	26	45	56	
106868	003	PETERSON	MATT	MATT PETERSON		9307 N SCENIC MOUNTAIN DR				EAGLE MOUNTAIN UT 84005-5318	UT	84005-5318	07	9307 N SCENIC MOUNTAIN DR/ SCM A3 145	Water			Sewer	Penalty			Garbage Service	Garbage Fuel Charge		Storm Drain	Deployed Abatement	Deposit	Miscellaneous							39.54			45.75				14.50			8.25									0	100.48	100.48CR			108.04	108.04	08/08/2022	08/31/2022	07/01/2022	07/31/2022	61						00145						88979461						1						07/20/2022						94						06/20/2022						107						13						GAL							Past Due balances must be paid by 08/15/2022  in order to avoid a $50 fee and disconnection of water service.	If you would like to enroll in paperless billing or pay your bills online please visit www.eaglemountaincity.com	106868	11/19/2020		Single Graph				GAL To	31	7																		84005	0	JUL	JUN	MAY	APR	MAR	FEB	JAN	DEC	NOV	OCT	SEP	AUG		7	6	5	4	3	2	1	12	11	10	9	8	0	13	6	3	3	2	3	3	2	3	4	7	7	0	6	10	11	10	3	3	4	3	0	0	0	0	
127865	001	TAPIA	GLORIA	GLORIA TAPIA		373 E GILBERT PEAK WAY				EAGLE MOUNTAIN UT 84005-5326	UT	84005-5326	73	513 E MT DUTTON WAY/ BP A 1002	Water			Sewer	Penalty			Garbage Service	Garbage Fuel Charge		Storm Drain	Deployed Abatement	Deposit	Miscellaneous							96.84			45.75				14.50			8.25									0	163.12	162.12CR			165.34	166.34	08/08/2022	08/31/2022	07/01/2022	07/31/2022	24						01002						90286568						1						07/20/2022						208						06/20/2022						274						66						GAL							Past Due balances must be paid by 08/15/2022  in order to avoid a $50 fee and disconnection of water service.	If you would like to enroll in paperless billing or pay your bills online please visit www.eaglemountaincity.com	127865	08/13/2021	1.00	Single Graph				GAL To	31	7																		84005	0	JUL	JUN	MAY	APR	MAR	FEB	JAN	DEC	NOV	OCT	SEP	AUG		7	6	5	4	3	2	1	12	11	10	9	8	0	66	64	2	3	2	1	1	2	2	30	46	13	0	0	0	0	0	0	0	0	0	0	0	0	0	
127865	000	TAPIA	GLORIA	GLORIA TAPIA		373 E GILBERT PEAK WAY				EAGLE MOUNTAIN UT 84005-5326	UT	84005-5326	73	373 E GILBERT PEAK WAY/ BP A8 802	Water			Sewer	Penalty			Garbage Service	Garbage Fuel Charge		Storm Drain	Deployed Abatement	Deposit	Miscellaneous							189.59			45.75				14.50			8.25									0	164.20	164.20CR			258.09	258.09	08/08/2022	08/31/2022	07/01/2022	07/31/2022	24						00802						88812607						1						07/20/2022						119						06/20/2022						265						146						GAL							Past Due balances must be paid by 08/15/2022  in order to avoid a $50 fee and disconnection of water service.	If you would like to enroll in paperless billing or pay your bills online please visit www.eaglemountaincity.com	127865	07/19/2021		Single Graph				GAL To	31	7																		84005	0	JUL	JUN	MAY	APR	MAR	FEB	JAN	DEC	NOV	OCT	SEP	AUG		7	6	5	4	3	2	1	12	11	10	9	8	0	146	65	0	1	0	1	0	0	1	50	1	0	0	0	0	0	0	0	0	0	0	0	0	0	0	
128110	000	CORTES	EDUWIGES	EDUWIGES CORTES		4254 E CENTER POINT ST				EAGLE MTN UT 84005-5337	UT	84005-5337	54	4197 N LAKE MOUNTAIN RD/ EPT 20	Water			Sewer	Penalty			Garbage Service	Garbage Fuel Charge		Storm Drain	Deployed Abatement	Deposit	Miscellaneous							37.38			45.75				14.50			8.25									0	103.72	0.00CR	15.00		105.88	224.60	08/08/2022	08/31/2022	07/01/2022	07/31/2022	27						00020						83790004						1						07/20/2022						441						06/20/2022						452						11						GAL							Past Due balances must be paid by 08/15/2022  in order to avoid a $50 fee and disconnection of water service.	If you would like to enroll in paperless billing or pay your bills online please visit www.eaglemountaincity.com	128110	08/11/2021	118.72	Single Graph				GAL To	31	7																		84005	0	JUL	JUN	MAY	APR	MAR	FEB	JAN	DEC	NOV	OCT	SEP	AUG		7	6	5	4	3	2	1	12	11	10	9	8	0	11	9	5	7	3	5	5	6	7	15	20	6	0	0	0	0	0	0	0	0	0	0	0	0	0	
128110	001	CORTES	EDUWIGES	EDUWIGES CORTES		4254 E CENTER POINT ST				EAGLE MTN UT 84005-5337	UT	84005-5337	54	4254 E CENTER POINT ST/ NP 157	Water			Sewer	Penalty			Garbage Service	Garbage Fuel Charge		Storm Drain	Deployed Abatement	Deposit	Miscellaneous							71.94			45.75				9.50			8.25									0	39.17	0.00CR			135.44	174.61	08/08/2022	08/31/2022	07/01/2022	07/31/2022	80						00157						92075795						1						07/19/2022						15						06/20/2022						58						43						GAL							Past Due balances must be paid by 08/15/2022  in order to avoid a $50 fee and disconnection of water service.	If you would like to enroll in paperless billing or pay your bills online please visit www.eaglemountaincity.com	128110	06/23/2022	39.17	Single Graph				GAL To	31	7																		84005	0	JUL	JUN	MAY	APR	MAR	FEB	JAN	DEC	NOV	OCT	SEP	AUG		7	6	5	4	3	2	1	12	11	10	9	8	0	43	15	0	0	0	0	0	0	0	0	0	0	0	0	0	0	0	0	0	0	0	0	0	0	0	
131260	000	OCCUPANT		 OCCUPANT		4882 E LAKE CORNER DR				EAGLE MOUNTAIN UT 84005-5357	UT	84005-5357	82	4882 E LAKE CORNER DR/ SL 2419	Water			Sewer	Penalty			Garbage Service	Garbage Fuel Charge		Storm Drain	Deployed Abatement	Deposit	Miscellaneous							8.23			14.76				3.06			2.66		40.00							0		0.00CR		40.00	28.71	68.71	08/08/2022	08/31/2022	07/22/2022	07/31/2022																			0												0												0						0													Past Due balances must be paid by 08/15/2022  in order to avoid a $50 fee and disconnection of water service.	If you would like to enroll in paperless billing or pay your bills online please visit www.eaglemountaincity.com	131261	07/22/2022	40.00	Single Graph				GAL To	31	7																		84005	0	JUL	JUN	MAY	APR	MAR	FEB	JAN	DEC	NOV	OCT	SEP	AUG		7	6	5	4	3	2	1	12	11	10	9	8	0	0	0	0	0	0	0	0	0	0	0	0	0	0	0	0	0	0	0	0	0	0	0	0	0	0	
130201	000	OCCUPANT		 OCCUPANT		4882 E LAKE CORNER DR				EAGLE MOUNTAIN UT 84005-5357	UT	84005-5357	82	4882 E LAKE CORNER DR/ SL 2419	Water			Sewer	Penalty			Garbage Service	Garbage Fuel Charge		Storm Drain	Deployed Abatement	Deposit	Miscellaneous																										0	227.93	0.00CR				227.93	08/08/2022	08/31/2022	07/01/2022	07/31/2022																			0												0												0						0													Past Due balances must be paid by 08/15/2022  in order to avoid a $50 fee and disconnection of water service.	If you would like to enroll in paperless billing or pay your bills online please visit www.eaglemountaincity.com	131256	04/08/2022	227.93	Single Graph				GAL To	31	7																		84005	0	JUL	JUN	MAY	APR	MAR	FEB	JAN	DEC	NOV	OCT	SEP	AUG		7	6	5	4	3	2	1	12	11	10	9	8	0	23	24	18	1	0	0	0	0	0	0	0	0	0	0	0	0	0	0	0	0	0	0	0	0	0	
122451	001	BEHLE	MICHAEL	MICHAEL BEHLE		4852 N EMERALD AVE				EAGLE MOUNTAIN UT 84005-5369	UT	84005-5369	52	4852 N EMERALD AVE/ SF A1 134	Water			Sewer	Penalty			Garbage Service	Garbage Fuel Charge		Storm Drain	Deployed Abatement	Deposit	Miscellaneous							69.78			45.75				14.50			8.25									0	264.69	200.69CR	-15.00		138.28	187.28	08/08/2022	08/31/2022	07/01/2022	07/31/2022	17						00134						90315961						1						07/20/2022						191						06/20/2022						232						41						GAL							Past Due balances must be paid by 08/15/2022  in order to avoid a $50 fee and disconnection of water service.	If you would like to enroll in paperless billing or pay your bills online please visit www.eaglemountaincity.com	122451	09/21/2021	49.00	Single Graph				GAL To	31	7																		84005	0	JUL	JUN	MAY	APR	MAR	FEB	JAN	DEC	NOV	OCT	SEP	AUG		7	6	5	4	3	2	1	12	11	10	9	8	0	41	18	34	9	5	5	6	6	5	58	0	0	0	0	0	0	0	0	0	0	0	0	0	0	0	
122451	000	BEHLE	MICHAEL	MICHAEL BEHLE		4852 N EMERALD AVE				EAGLE MOUNTAIN UT 84005-5369	UT	84005-5369	52	7857 N BUR OAK DR/ OH A3 318	Water			Sewer	Penalty			Garbage Service	Garbage Fuel Charge		Storm Drain	Deployed Abatement	Deposit	Miscellaneous																										0	128.66	0.00CR				128.66	08/08/2022	08/31/2022	07/01/2022	07/31/2022																			0												0												0						0													Past Due balances must be paid by 08/15/2022  in order to avoid a $50 fee and disconnection of water service.	If you would like to enroll in paperless billing or pay your bills online please visit www.eaglemountaincity.com	122451	05/10/2019	128.66	Single Graph				GAL To	31	7																		84005	0	JUL	JUN	MAY	APR	MAR	FEB	JAN	DEC	NOV	OCT	SEP	AUG		7	6	5	4	3	2	1	12	11	10	9	8	0	0	0	0	0	0	0	0	0	0	0	6	26	0	39	22	22	7	4	6	6	7	8	31	34	42	
126873	002	ORGILL	JOSEPH	JOSEPH ORGILL		4441 E GOLDEN AUTUMN VW				EAGLE MOUNTAIN UT 84005-5389	UT	84005-5389	41	7081 N SILVER SPRING WAY/ SLM 2159	Water			Sewer	Penalty			Garbage Service	Garbage Fuel Charge		Storm Drain	Deployed Abatement	Deposit	Miscellaneous							33.06			45.75				14.50			8.25									0	100.48	100.48CR			101.56	101.56	08/08/2022	08/31/2022	07/01/2022	07/31/2022	53						02159						89459698						1						07/18/2022						96						06/20/2022						103						7						GAL							Past Due balances must be paid by 08/15/2022  in order to avoid a $50 fee and disconnection of water service.	If you would like to enroll in paperless billing or pay your bills online please visit www.eaglemountaincity.com	126873	03/03/2022		Single Graph				GAL To	31	7																		84005	0	JUL	JUN	MAY	APR	MAR	FEB	JAN	DEC	NOV	OCT	SEP	AUG		7	6	5	4	3	2	1	12	11	10	9	8	0	7	6	5	6	2	1	0	0	0	0	0	0	0	0	0	0	0	0	0	0	0	0	0	0	0	
126873	001	ORGILL	JOSEPH	JOSEPH ORGILL		4441 E GOLDEN AUTUMN VW				EAGLE MOUNTAIN UT 84005-5389	UT	84005-5389	41	4441 E GOLDEN AUTUMN VIEW/ SL 2638	Water			Sewer	Penalty			Garbage Service	Garbage Fuel Charge		Storm Drain	Deployed Abatement	Deposit	Miscellaneous							33.49			45.75				15.75			8.25									0	95.25	95.25CR			103.24	103.24	08/08/2022	08/31/2022	07/01/2022	07/31/2022	53						02638						21180960						1						07/19/2022						0						06/20/2022						7						7						GAL							Past Due balances must be paid by 08/15/2022  in order to avoid a $50 fee and disconnection of water service.	If you would like to enroll in paperless billing or pay your bills online please visit www.eaglemountaincity.com	126873	02/25/2022		Single Graph				GAL To	31	7																		84005	0	JUL	JUN	MAY	APR	MAR	FEB	JAN	DEC	NOV	OCT	SEP	AUG		7	6	5	4	3	2	1	12	11	10	9	8	0	7	0	0	0	0	0	0	0	0	0	0	0	0	0	0	0	0	0	0	0	0	0	0	0	0	
126873	003	ORGILL	JOSEPH	JOSEPH ORGILL		4441 E GOLDEN AUTUMN VW				EAGLE MOUNTAIN UT 84005-5389	UT	84005-5389	41	4848 E LAKE CORNER DR/ SL 2425	Water			Sewer	Penalty			Garbage Service	Garbage Fuel Charge		Storm Drain	Deployed Abatement	Deposit	Miscellaneous							29.82			45.75				20.75			8.25									0	102.41	102.41CR			104.57	104.57	08/08/2022	08/31/2022	07/01/2022	07/31/2022	53						02425						92076007						1						07/19/2022						7						06/20/2022						11						4						GAL							Past Due balances must be paid by 08/15/2022  in order to avoid a $50 fee and disconnection of water service.	If you would like to enroll in paperless billing or pay your bills online please visit www.eaglemountaincity.com	126873	03/21/2022		Single Graph				GAL To	31	7																		84005	0	JUL	JUN	MAY	APR	MAR	FEB	JAN	DEC	NOV	OCT	SEP	AUG		7	6	5	4	3	2	1	12	11	10	9	8	0	4	2	1	4	0	0	0	0	0	0	0	0	0	0	0	0	0	0	0	0	0	0	0	0	0	
127418	000	GOSLING	COURTNEY	COURTNEY GOSLING		2291 E UNITY WAY				EAGLE MOUNTAIN UT 84005-5396	UT	84005-5396	91	2291 E UNITY WAY/ GMR B4 403	Water			Sewer	Penalty			Garbage Service	Garbage Fuel Charge		Storm Drain	Deployed Abatement	Deposit	Miscellaneous							37.38							14.50			8.25									0	57.97	57.97CR			60.13	60.13	08/08/2022	08/31/2022	07/01/2022	07/31/2022	92						00403						88812655						1						07/20/2022						47						06/20/2022						58						11						GAL							Past Due balances must be paid by 08/15/2022  in order to avoid a $50 fee and disconnection of water service.	If you would like to enroll in paperless billing or pay your bills online please visit www.eaglemountaincity.com	127418	06/03/2021		Single Graph				GAL To	31	7																		84005	0	JUL	JUN	MAY	APR	MAR	FEB	JAN	DEC	NOV	OCT	SEP	AUG		7	6	5	4	3	2	1	12	11	10	9	8	0	11	9	5	3	1	1	2	1	6	3	11	3	0	2	0	0	0	0	0	0	0	0	0	0	0	
127418	000	GOSLING	COURTNEY	COURTNEY GOSLING		2291 E UNITY WAY				EAGLE MOUNTAIN UT 84005-5396	UT	84005-5396	91	2291 E UNITY WAY/ GMR B4 403	Water			Sewer	Penalty			Garbage Service	Garbage Fuel Charge		Storm Drain	Deployed Abatement	Deposit	Miscellaneous							37.38							14.50			8.25									0	57.97	57.97CR			60.13	60.13	08/08/2022	08/31/2022	07/01/2022	07/31/2022	92						00403						88812655						1						07/20/2022						47						06/20/2022						58						11						GAL							Past Due balances must be paid by 08/15/2022  in order to avoid a $50 fee and disconnection of water service.	If you would like to enroll in paperless billing or pay your bills online please visit www.eaglemountaincity.com	127418	06/03/2021		Single Graph				GAL To	31	7																		84005	0	JUL	JUN	MAY	APR	MAR	FEB	JAN	DEC	NOV	OCT	SEP	AUG		7	6	5	4	3	2	1	12	11	10	9	8	0	11	9	5	3	1	1	2	1	6	3	11	3	0	2	0	0	0	0	0	0	0	0	0	0	0	
124814	001	PARR	GREGORY	GREGORY PARR		6623 N UNITY WAY				EAGLE MOUNTAIN UT 84005-5426	UT	84005-5426	23	6623 N UNITY WAY/ GMR B3 311	Water			Sewer	Penalty			Garbage Service	Garbage Fuel Charge		Storm Drain	Deployed Abatement	Deposit	Miscellaneous							37.38			45.75				20.75			8.25									0	124.12	0.00CR			112.13	236.25	08/08/2022	08/31/2022	07/01/2022	07/31/2022	92						00311						92076153						1						07/20/2022						0						04/21/2022						11						11						GAL							Past Due balances must be paid by 08/15/2022  in order to avoid a $50 fee and disconnection of water service.	If you would like to enroll in paperless billing or pay your bills online please visit www.eaglemountaincity.com	124814	05/24/2022	124.12	Single Graph				GAL To	31	7																		84005	0	JUL	JUN	MAY	APR	MAR	FEB	JAN	DEC	NOV	OCT	SEP	AUG		7	6	5	4	3	2	1	12	11	10	9	8	0	11	0	0	0	0	0	0	0	0	0	0	0	0	0	0	0	0	0	0	0	0	0	0	0	0	
124814	000	PARR	GREGORY	GREGORY PARR		6623 N UNITY WAY				EAGLE MOUNTAIN UT 84005-5426	UT	84005-5426	23	4311 E HALF TIMBER WAY/ ERM K3 I1	Water			Sewer	Penalty			Garbage Service	Garbage Fuel Charge		Storm Drain	Deployed Abatement	Deposit	Miscellaneous																										0	192.96	0.00CR				192.96	08/08/2022	08/31/2022	07/01/2022	07/31/2022																			0												0												0						0													Past Due balances must be paid by 08/15/2022  in order to avoid a $50 fee and disconnection of water service.	If you would like to enroll in paperless billing or pay your bills online please visit www.eaglemountaincity.com	124814	06/19/2020	192.96	Single Graph				GAL To	31	7																		84005	0	JUL	JUN	MAY	APR	MAR	FEB	JAN	DEC	NOV	OCT	SEP	AUG		7	6	5	4	3	2	1	12	11	10	9	8	0	0	2	4	7	6	6	6	5	6	5	6	6	0	6	6	5	5	5	5	8	5	6	5	5	5	
112572	000	PETERSON	JUSTIN	JUSTIN PETERSON		6700 N UNITY WAY				EAGLE MOUNTAIN UT 84005-5426	UT	84005-5426	00	7692 N RED OAK RD/ LT 425	Water			Sewer	Penalty			Garbage Service	Garbage Fuel Charge		Storm Drain	Deployed Abatement	Deposit	Miscellaneous							54.65			45.75				14.50			8.25									0	120.42	120.42CR			123.15	123.15	08/08/2022	08/31/2022	07/01/2022	07/31/2022	12						00425						35930538						2						07/18/2022						2093						06/20/2022						2120						26						Kilowatt							Past Due balances must be paid by 08/15/2022  in order to avoid a $50 fee and disconnection of water service.	If you would like to enroll in paperless billing or pay your bills online please visit www.eaglemountaincity.com	112572	06/12/2013		Single Graph				GAL To	31	7																		84005	0	JUL	JUN	MAY	APR	MAR	FEB	JAN	DEC	NOV	OCT	SEP	AUG		7	6	5	4	3	2	1	12	11	10	9	8	0	26	24	14	10	4	4	5	4	5	10	18	21	0	36	27	17	7	4	4	7	6	11	15	32	42	
112572	001	PETERSON	JUSTIN	JUSTIN PETERSON		6700 N UNITY WAY				EAGLE MOUNTAIN UT 84005-5426	UT	84005-5426	00	6700 N UNITY WAY/ GMR B 401	Water			Sewer	Penalty			Garbage Service	Garbage Fuel Charge		Storm Drain	Deployed Abatement	Deposit	Miscellaneous							2.47			4.43				1.40			0.80									0		0.00CR			9.10	9.10	08/08/2022	08/31/2022	07/29/2022	07/31/2022																			0												0												0						0													Past Due balances must be paid by 08/15/2022  in order to avoid a $50 fee and disconnection of water service.	If you would like to enroll in paperless billing or pay your bills online please visit www.eaglemountaincity.com	112572	07/29/2022		Single Graph				GAL To	31	7																		84005	0	JUL	JUN	MAY	APR	MAR	FEB	JAN	DEC	NOV	OCT	SEP	AUG		7	6	5	4	3	2	1	12	11	10	9	8	0	0	0	0	0	0	0	0	0	0	0	0	0	0	0	0	0	0	0	0	0	0	0	0	0	0	
107541	001	ELLINGER	DANIEL & CALLI	DANIEL & CALLI ELLINGER		1474 E WEBB CV				EAGLE MOUNTAIN UT 84005-5462	UT	84005-5462	74	1474 E WEBB CV/ AV B5 522	Water			Sewer	Penalty			Garbage Service	Garbage Fuel Charge		Storm Drain	Deployed Abatement	Deposit	Miscellaneous							36.30							15.75			8.25									0	127.49	121.31CR			60.30	66.48	08/08/2022	08/31/2022	07/01/2022	07/31/2022	71						00522						92076158						1						07/20/2022						17						06/20/2022						27						10						GAL							Past Due balances must be paid by 08/15/2022  in order to avoid a $50 fee and disconnection of water service.	If you would like to enroll in paperless billing or pay your bills online please visit www.eaglemountaincity.com	107541	04/19/2022	6.18	Single Graph				GAL To	31	7																		84005	0	JUL	JUN	MAY	APR	MAR	FEB	JAN	DEC	NOV	OCT	SEP	AUG		7	6	5	4	3	2	1	12	11	10	9	8	0	10	17	0	0	0	0	0	0	0	0	0	0	0	0	0	0	0	0	0	0	0	0	0	0	0	
107541	000	ELLINGER	DANIEL & CALLI	DANIEL & CALLI ELLINGER		1474 E WEBB CV				EAGLE MOUNTAIN UT 84005-5462	UT	84005-5462	74	7743 N MEADOW CREEK RD/ SL 127	Water			Sewer	Penalty			Garbage Service	Garbage Fuel Charge		Storm Drain	Deployed Abatement	Deposit	Miscellaneous																										0	117.70	0.00CR	-328.45			-210.75	08/08/2022	08/31/2022	07/01/2022	07/31/2022																			0												0												0						0													Past Due balances must be paid by 08/15/2022  in order to avoid a $50 fee and disconnection of water service.	If you would like to enroll in paperless billing or pay your bills online please visit www.eaglemountaincity.com	107541	10/05/2009		Single Graph				GAL To	31	7																		84005	0	JUL	JUN	MAY	APR	MAR	FEB	JAN	DEC	NOV	OCT	SEP	AUG		7	6	5	4	3	2	1	12	11	10	9	8	0	26	17	13	7	7	7	9	6	7	8	18	24	0	32	24	17	8	6	7	9	7	8	11	20	32	
102614	004	LAI	TAK MING	TAK MING LAI		3821 E CLUBHOUSE LN				EAGLE MOUNTAIN UT 84005-6023	UT	84005-6023	21	3899 E CLUBHOUSE LN/ HLG 222	Water			Sewer	Penalty			Garbage Service	Garbage Fuel Charge		Storm Drain	Deployed Abatement	Deposit	Miscellaneous							52.50			45.75				14.50			8.25									0	118.96	118.96CR			121.00	121.00	08/08/2022	08/31/2022	07/01/2022	07/31/2022	55						00222						85533506						1						07/20/2022						871						06/20/2022						896						25						GAL							Past Due balances must be paid by 08/15/2022  in order to avoid a $50 fee and disconnection of water service.	If you would like to enroll in paperless billing or pay your bills online please visit www.eaglemountaincity.com	102614	07/06/2016		Single Graph				GAL To	31	7																		84005	0	JUL	JUN	MAY	APR	MAR	FEB	JAN	DEC	NOV	OCT	SEP	AUG		7	6	5	4	3	2	1	12	11	10	9	8	0	25	37	10	9	7	8	9	8	8	10	27	32	0	52	33	33	10	8	9	11	8	8	35	79	63	
102614	008	LAI	TAK MING	TAK MING LAI		3821 E CLUBHOUSE LN				EAGLE MOUNTAIN UT 84005-6023	UT	84005-6023	21	2926 E SADDLE ROCK RD/ AP 31	Water			Sewer	Penalty			Garbage Service	Garbage Fuel Charge		Storm Drain	Deployed Abatement	Deposit	Miscellaneous																										0	142.15	0.00CR		25.00		167.15	08/08/2022	08/31/2022	07/01/2022	07/31/2022																			0												0												0						0													Past Due balances must be paid by 08/15/2022  in order to avoid a $50 fee and disconnection of water service.	If you would like to enroll in paperless billing or pay your bills online please visit www.eaglemountaincity.com	102614	10/12/2021	167.15	Single Graph				GAL To	31	7																		84005	0	JUL	JUN	MAY	APR	MAR	FEB	JAN	DEC	NOV	OCT	SEP	AUG		7	6	5	4	3	2	1	12	11	10	9	8	0	0	0	0	0	0	0	0	0	0	0	0	0	0	0	0	0	0	0	0	0	0	0	0	0	0	
126071	001	LINDSAY	SHERRY	SHERRY LINDSAY		7755 N BROOKWOOD DR				EAGLE MOUNTAIN UT 84005-6139	UT	84005-6139	55	3979 E DODGE ST/ TC 140	Water			Sewer	Penalty			Garbage Service	Garbage Fuel Charge		Storm Drain	Deployed Abatement	Deposit	Miscellaneous							61.14			45.75				17.12			8.25									0	270.16	159.00CR	65.00		132.26	308.42	08/08/2022	08/31/2022	07/01/2022	07/31/2022	37						00140						82824678						1						07/19/2022						634						06/20/2022						667						33						GAL							Past Due balances must be paid by 08/15/2022  in order to avoid a $50 fee and disconnection of water service.	If you would like to enroll in paperless billing or pay your bills online please visit www.eaglemountaincity.com	126071	03/14/2022	176.16	Single Graph				GAL To	31	7																		84005	0	JUL	JUN	MAY	APR	MAR	FEB	JAN	DEC	NOV	OCT	SEP	AUG		7	6	5	4	3	2	1	12	11	10	9	8	0	33	2	0	0	0	0	0	0	0	0	0	0	0	0	0	0	0	0	0	0	0	0	0	0	0	
126071	000	LINDSAY	SHERRY	SHERRY LINDSAY		7755 N BROOKWOOD DR				EAGLE MOUNTAIN UT 84005-6139	UT	84005-6139	55	3979 E DODGE ST/ TC 140	Water			Sewer	Penalty			Garbage Service	Garbage Fuel Charge		Storm Drain	Deployed Abatement	Deposit	Miscellaneous																										0	75.45	0.00CR				75.45	08/08/2022	08/31/2022	07/01/2022	07/31/2022																			0												0												0						0													Past Due balances must be paid by 08/15/2022  in order to avoid a $50 fee and disconnection of water service.	If you would like to enroll in paperless billing or pay your bills online please visit www.eaglemountaincity.com	126071	11/02/2020	75.45	Single Graph				GAL To	31	7																		84005	0	JUL	JUN	MAY	APR	MAR	FEB	JAN	DEC	NOV	OCT	SEP	AUG		7	6	5	4	3	2	1	12	11	10	9	8	0	0	0	0	0	0	0	0	0	0	0	0	0	0	0	0	0	0	0	0	0	0	3	0	0	0	
105534	001	BAKER	JACOB	JACOB BAKER		7721 N BRISTLECONE RD				EAGLE MOUNTAIN UT 84005-6158	UT	84005-6158	21	9803 N SHILOH WAY/ MR 406	Water			Sewer	Penalty			Garbage Service	Garbage Fuel Charge		Storm Drain	Deployed Abatement	Deposit	Miscellaneous							183.64			45.75				20.75			8.25									0	250.06	250.06CR			258.39	258.39	08/08/2022	08/31/2022	07/01/2022	07/31/2022	03						00406						85944428						1						07/20/2022						1448						06/20/2022						1589						141						GAL							Past Due balances must be paid by 08/15/2022  in order to avoid a $50 fee and disconnection of water service.	If you would like to enroll in paperless billing or pay your bills online please visit www.eaglemountaincity.com	105534	01/28/2008		Single Graph				GAL To	31	7																		84005	0	JUL	JUN	MAY	APR	MAR	FEB	JAN	DEC	NOV	OCT	SEP	AUG		7	6	5	4	3	2	1	12	11	10	9	8	0	141	134	38	7	6	6	8	6	5	98	144	125	0	109	90	42	1	1	1	4	7	30	121	102	113	
105534	003	BAKER	JACOB	JACOB BAKER		7721 N BRISTLECONE RD				EAGLE MOUNTAIN UT 84005-6158	UT	84005-6158	21	7721 N BRISTLECONE RD/ LT 409	Water			Sewer	Penalty			Garbage Service	Garbage Fuel Charge		Storm Drain	Deployed Abatement	Deposit	Miscellaneous							95.10			45.75				14.50			8.25									0	129.48	0.00CR	15.00		163.60	308.08	08/08/2022	08/31/2022	07/01/2022	07/31/2022	12						00409						34477572						1						07/18/2022						2198						06/16/2022						2262						64						GAL							Past Due balances must be paid by 08/15/2022  in order to avoid a $50 fee and disconnection of water service.	If you would like to enroll in paperless billing or pay your bills online please visit www.eaglemountaincity.com	105534	05/31/2022	144.48	Single Graph				GAL To	31	7																		84005	0	JUL	JUN	MAY	APR	MAR	FEB	JAN	DEC	NOV	OCT	SEP	AUG		7	6	5	4	3	2	1	12	11	10	9	8	0	64	30	0	0	0	0	0	0	0	0	0	0	0	0	0	0	0	0	0	0	0	0	0	0	0	
120500	001	SOLOMON	NICOLE	NICOLE SOLOMON		4309 N ROBBINS CIR				EAGLE MOUNTAIN UT 84005-6160	UT	84005-6160	09	1425 E RAPTOR RD/ EPK 38	Water			Sewer	Penalty			Garbage Service	Garbage Fuel Charge		Storm Drain	Deployed Abatement	Deposit	Miscellaneous																										0	203.31	0.00CR				203.31	08/08/2022	08/31/2022	07/01/2022	07/31/2022																			0												0												0						0													Past Due balances must be paid by 08/15/2022  in order to avoid a $50 fee and disconnection of water service.	If you would like to enroll in paperless billing or pay your bills online please visit www.eaglemountaincity.com	120500	06/07/2019	203.31	Single Graph				GAL To	31	7																		84005	0	JUL	JUN	MAY	APR	MAR	FEB	JAN	DEC	NOV	OCT	SEP	AUG		7	6	5	4	3	2	1	12	11	10	9	8	0	0	0	0	0	0	0	0	0	0	0	0	0	0	0	0	0	0	0	0	0	0	0	0	0	0	
120500	000	SOLOMON	NICOLE	NICOLE SOLOMON		4309 N ROBBINS CIR				EAGLE MOUNTAIN UT 84005-6160	UT	84005-6160	09	4309 N ROBBINS CIR/ AR 25	Water			Sewer	Penalty			Garbage Service	Garbage Fuel Charge		Storm Drain	Deployed Abatement	Deposit	Miscellaneous							63.16			45.75				9.50			8.25									0	131.23	131.23CR			126.66	126.66	08/08/2022	08/31/2022	07/01/2022	07/31/2022	15						00025						35311015						1						07/19/2022						3085						06/20/2022						3119						34						GAL							Past Due balances must be paid by 08/15/2022  in order to avoid a $50 fee and disconnection of water service.	If you would like to enroll in paperless billing or pay your bills online please visit www.eaglemountaincity.com	120500	04/23/2018		Single Graph				GAL To	31	7																		84005	0	JUL	JUN	MAY	APR	MAR	FEB	JAN	DEC	NOV	OCT	SEP	AUG		7	6	5	4	3	2	1	12	11	10	9	8	0	34	39	27	13	8	9	14	8	15	19	25	42	0	69	34	30	11	7	11	11	10	15	41	40	59	
119377	001	JOHNSON	PRESTON	PRESTON JOHNSON		2507 E PATRIOT DR				EAGLE MOUNTAIN UT 84005-6222	UT	84005-6222	07	2507 E PATRIOT DR/ VV A 1003	Water			Sewer	Penalty			Garbage Service	Garbage Fuel Charge		Storm Drain	Deployed Abatement	Deposit	Miscellaneous							81.66			45.75				14.50			8.25									0	115.60	115.60CR			150.16	150.16	08/08/2022	08/31/2022	07/01/2022	07/31/2022	06						01003						81302489						1						07/20/2022						1951						06/20/2022						2003						52						GAL							Past Due balances must be paid by 08/15/2022  in order to avoid a $50 fee and disconnection of water service.	If you would like to enroll in paperless billing or pay your bills online please visit www.eaglemountaincity.com	119377	05/31/2022		Single Graph				GAL To	31	7																		84005	0	JUL	JUN	MAY	APR	MAR	FEB	JAN	DEC	NOV	OCT	SEP	AUG		7	6	5	4	3	2	1	12	11	10	9	8	0	52	20	0	0	0	0	0	0	0	0	0	0	0	0	0	0	0	0	0	0	0	0	0	0	0	
119377	000	JOHNSON	PRESTON	PRESTON JOHNSON		2507 E PATRIOT DR				EAGLE MOUNTAIN UT 84005-6222	UT	84005-6222	07	8966 N JEFFERSON CT/ HL 119	Water			Sewer	Penalty			Garbage Service	Garbage Fuel Charge		Storm Drain	Deployed Abatement	Deposit	Miscellaneous							123.77			45.75				27.00			8.25									0	205.53	205.53CR			204.77	204.77	08/08/2022	08/31/2022	07/01/2022	07/31/2022	50						00119						32968983						1						07/20/2022						6009						06/20/2022						6099						89						GAL							Past Due balances must be paid by 08/15/2022  in order to avoid a $50 fee and disconnection of water service.	If you would like to enroll in paperless billing or pay your bills online please visit www.eaglemountaincity.com	119377	09/21/2017		Single Graph				GAL To	31	7																		84005	0	JUL	JUN	MAY	APR	MAR	FEB	JAN	DEC	NOV	OCT	SEP	AUG		7	6	5	4	3	2	1	12	11	10	9	8	0	89	104	22	14	4	3	4	3	2	23	126	140	0	154	101	53	30	15	13	14	14	14	164	135	207	
117519	000	HOOGE	DEBBIE	DEBBIE HOOGE		3807 E PAWNEE RD				EAGLE MOUNTAIN UT 84005-6235	UT	84005-6235	07	7909 N WEEPING ASH WAY/ AP 2	Water			Sewer	Penalty			Garbage Service	Garbage Fuel Charge		Storm Drain	Deployed Abatement	Deposit	Miscellaneous							57.90			45.75				14.50			8.25									0	94.00	94.00CR			126.40	126.40	08/08/2022	08/31/2022	07/01/2022	07/31/2022	26						00002						90977247						1						07/26/2022						0						06/02/2022						9970						30						GAL							Past Due balances must be paid by 08/15/2022  in order to avoid a $50 fee and disconnection of water service.	If you would like to enroll in paperless billing or pay your bills online please visit www.eaglemountaincity.com	117519	08/31/2016		Single Graph				GAL To	31	7																		84005	0	JUL	JUN	MAY	APR	MAR	FEB	JAN	DEC	NOV	OCT	SEP	AUG		7	6	5	4	3	2	1	12	11	10	9	8	0	30	0	0	0	0	0	0	0	0	0	0	0	0	0	4	0	2	0	0	1	2	2	8	13	18	
117519	001	HOOGE	DEBBIE	DEBBIE HOOGE		3807 E PAWNEE RD				EAGLE MOUNTAIN UT 84005-6235	UT	84005-6235	07	3807 E PAWNEE RD/ SKR 1B 41	Water			Sewer	Penalty			Garbage Service	Garbage Fuel Charge		Storm Drain	Deployed Abatement	Deposit	Miscellaneous							33.06			45.75				14.50			8.25									0	187.63	187.63CR			101.56	101.56	08/08/2022	08/31/2022	07/01/2022	07/31/2022	64						00041						78534667						1						07/18/2022						2628						06/17/2022						2635						7						GAL							Past Due balances must be paid by 08/15/2022  in order to avoid a $50 fee and disconnection of water service.	If you would like to enroll in paperless billing or pay your bills online please visit www.eaglemountaincity.com	117519	05/20/2022		Single Graph				GAL To	31	7																		84005	0	JUL	JUN	MAY	APR	MAR	FEB	JAN	DEC	NOV	OCT	SEP	AUG		7	6	5	4	3	2	1	12	11	10	9	8	0	7	53	0	0	0	0	0	0	0	0	0	0	0	0	0	0	0	0	0	0	0	0	0	0	0	
122143	002	PETERSON	JESSICA	JESSICA PETERSON		2995 E LAKESIDE DR				EAGLE MOUNTAIN UT 84005-6322	UT	84005-6322	95	8851 N CEDAR PASS RD/ CPR 11	Water			Sewer	Penalty			Garbage Service	Garbage Fuel Charge		Storm Drain	Deployed Abatement	Deposit	Miscellaneous														22.00			8.25									0	30.25	30.25CR			30.25	30.25	08/08/2022	08/31/2022	07/01/2022	07/31/2022																			0												0												0						0													Past Due balances must be paid by 08/15/2022  in order to avoid a $50 fee and disconnection of water service.	If you would like to enroll in paperless billing or pay your bills online please visit www.eaglemountaincity.com	122143	12/27/2021		Single Graph					31	7																		84005	0														0	0	0	0	0	0	0	0	0	0	0	0	0	0	0	0	0	0	0	0	0	0	0	0	0	0	0	0	0	0	0	0	0	0	0	0	0	0	
122143	001	PETERSON	JESSICA	JESSICA PETERSON		2995 E LAKESIDE DR				EAGLE MOUNTAIN UT 84005-6322	UT	84005-6322	95	2995 E LAKESIDE DR/ LVE A 118	Water			Sewer	Penalty			Garbage Service	Garbage Fuel Charge		Storm Drain	Deployed Abatement	Deposit	Miscellaneous							139.02			45.75				20.75			8.25									0	171.59	171.59CR			213.77	213.77	08/08/2022	08/31/2022	07/01/2022	07/31/2022	04						00118						88979489						1						07/20/2022						541						06/20/2022						644						103						GAL							Past Due balances must be paid by 08/15/2022  in order to avoid a $50 fee and disconnection of water service.	If you would like to enroll in paperless billing or pay your bills online please visit www.eaglemountaincity.com	122143	12/03/2020		Single Graph				GAL To	31	7																		84005	0	JUL	JUN	MAY	APR	MAR	FEB	JAN	DEC	NOV	OCT	SEP	AUG		7	6	5	4	3	2	1	12	11	10	9	8	0	103	66	22	16	3	12	5	4	5	36	72	73	0	104	68	20	10	4	3	5	3	0	0	0	0	
120582	001	MILLBURN	CASSI	CASSI MILLBURN		3066 E LAKE VISTA DR				EAGLE MOUNTAIN UT 84005-6328	UT	84005-6328	66	3066 E LAKE VISTA DR/ LVE A2 219	Water			Sewer	Penalty			Garbage Service	Garbage Fuel Charge		Storm Drain	Deployed Abatement	Deposit	Miscellaneous							29.82			45.75				20.75			8.25									0	104.57	104.57CR			104.57	104.57	08/08/2022	08/31/2022	07/01/2022	07/31/2022	04						00219						90315955						1						07/20/2022						32						06/20/2022						36						4						GAL							Past Due balances must be paid by 08/15/2022  in order to avoid a $50 fee and disconnection of water service.	If you would like to enroll in paperless billing or pay your bills online please visit www.eaglemountaincity.com	120582	10/11/2021		Single Graph				GAL To	31	7																		84005	0	JUL	JUN	MAY	APR	MAR	FEB	JAN	DEC	NOV	OCT	SEP	AUG		7	6	5	4	3	2	1	12	11	10	9	8	0	4	4	3	4	4	3	4	3	4	1	0	0	0	0	0	0	0	0	0	0	0	0	0	0	0	
120582	000	MILLBURN	CASSI	CASSI MILLBURN		3066 E LAKE VISTA DR				EAGLE MOUNTAIN UT 84005-6328	UT	84005-6328	66	9332 N OAKLAND HILLS DR/ SPV 2	Water			Sewer	Penalty			Garbage Service	Garbage Fuel Charge		Storm Drain	Deployed Abatement	Deposit	Miscellaneous																										0		104.57CR				-104.57	08/08/2022	08/31/2022	07/01/2022	07/31/2022																			0												0												0						0													Past Due balances must be paid by 08/15/2022  in order to avoid a $50 fee and disconnection of water service.	If you would like to enroll in paperless billing or pay your bills online please visit www.eaglemountaincity.com	120582	05/03/2018		Single Graph				GAL To	31	7																		84005	0	JUL	JUN	MAY	APR	MAR	FEB	JAN	DEC	NOV	OCT	SEP	AUG		7	6	5	4	3	2	1	12	11	10	9	8	0	0	0	0	0	0	0	0	0	0	0	4	3	0	3	3	3	4	3	3	5	4	5	3	4	4	
123802	001	BARBOSA	REYNALDO	REYNALDO BARBOSA		1373 REICHERT ST				EAGLE MOUNTAIN UT 84005-6387	UT	84005-6387	73	1373 E REICHERT ST/ HMY A2 258	Water			Sewer	Penalty			Garbage Service	Garbage Fuel Charge		Storm Drain	Deployed Abatement	Deposit	Miscellaneous							46.02			45.75				9.50			8.25									0	104.12	104.12CR			109.52	109.52	08/08/2022	08/31/2022	07/01/2022	07/31/2022	87						00258						92076011						1						07/20/2022						36						06/20/2022						55						19						GAL							Past Due balances must be paid by 08/15/2022  in order to avoid a $50 fee and disconnection of water service.	If you would like to enroll in paperless billing or pay your bills online please visit www.eaglemountaincity.com	123802	03/15/2022		Single Graph				GAL To	31	7																		84005	0	JUL	JUN	MAY	APR	MAR	FEB	JAN	DEC	NOV	OCT	SEP	AUG		7	6	5	4	3	2	1	12	11	10	9	8	0	19	14	13	9	0	0	0	0	0	0	0	0	0	0	0	0	0	0	0	0	0	0	0	0	0	
123802	000	BARBOSA	REYNALDO	REYNALDO BARBOSA		1373 REICHERT ST				EAGLE MOUNTAIN UT 84005-6387	UT	84005-6387	73	1375 E RACHEL WAY/ HMY A1 137	Water			Sewer	Penalty			Garbage Service	Garbage Fuel Charge		Storm Drain	Deployed Abatement	Deposit	Miscellaneous							39.54			45.75				14.50			8.25									0	110.20	110.20CR			108.04	108.04	08/08/2022	08/31/2022	07/01/2022	07/31/2022	62						00137						85944409						1						07/20/2022						430						06/20/2022						443						13						GAL							Past Due balances must be paid by 08/15/2022  in order to avoid a $50 fee and disconnection of water service.	If you would like to enroll in paperless billing or pay your bills online please visit www.eaglemountaincity.com	123802	12/26/2019		Single Graph				GAL To	31	7																		84005	0	JUL	JUN	MAY	APR	MAR	FEB	JAN	DEC	NOV	OCT	SEP	AUG		7	6	5	4	3	2	1	12	11	10	9	8	0	13	15	16	20	4	3	5	4	4	23	32	31	0	47	46	27	19	5	5	7	5	10	45	11	8	
130946	000	OCCUPANT		 OCCUPANT		2421 E COBBLE CREEK LANE				EAGLE MOUNTAIN UT 84005	UT	84005		2421 E COBBLE CREEK LN/ EPT E 570	Water			Sewer	Penalty			Garbage Service	Garbage Fuel Charge		Storm Drain	Deployed Abatement	Deposit	Miscellaneous																										0	110.35	0.00CR				110.35	08/08/2022	08/31/2022	07/01/2022	07/31/2022																			0												0												0						0													Past Due balances must be paid by 08/15/2022  in order to avoid a $50 fee and disconnection of water service.	If you would like to enroll in paperless billing or pay your bills online please visit www.eaglemountaincity.com	130947	06/22/2022	110.35	Single Graph				GAL To	31	7																		84005	0	JUL	JUN	MAY	APR	MAR	FEB	JAN	DEC	NOV	OCT	SEP	AUG		7	6	5	4	3	2	1	12	11	10	9	8	0	4	0	0	0	0	0	0	0	0	0	0	0	0	0	0	0	0	0	0	0	0	0	0	0	0	
129415	004	OCCUPANT		 OCCUPANT		2421 E COBBLE CREEK LANE				EAGLE MOUNTAIN UT 84005	UT	84005		2421 E COBBLE CREEK LN/ EPT E 570	Water			Sewer	Penalty			Garbage Service	Garbage Fuel Charge		Storm Drain	Deployed Abatement	Deposit	Miscellaneous							27.77			26.56				5.52			4.79									0		0.00CR			64.64	64.64	08/08/2022	08/31/2022	07/14/2022	07/31/2022	27						00570						92075725						1						07/20/2022						4						07/14/2022						16						12						GAL							Past Due balances must be paid by 08/15/2022  in order to avoid a $50 fee and disconnection of water service.	If you would like to enroll in paperless billing or pay your bills online please visit www.eaglemountaincity.com	131170	07/14/2022		Single Graph				GAL To	31	7																		84005	0	JUL	JUN	MAY	APR	MAR	FEB	JAN	DEC	NOV	OCT	SEP	AUG		7	6	5	4	3	2	1	12	11	10	9	8	0	12	0	0	0	0	0	0	0	0	0	0	0	0	0	0	0	0	0	0	0	0	0	0	0	0	
127593	000	SMITH	TIAURA	TIAURA SMITH		4149 N MAPLE DR				EAGLE MOUNTAIN UT 84005	UT	84005		2419 E WEEPING WILLOW WAY/ EPT G2 216	Water			Sewer	Penalty			Garbage Service	Garbage Fuel Charge		Storm Drain	Deployed Abatement	Deposit	Miscellaneous							29.82			45.75				14.50			8.25									0	100.48	100.48CR			98.32	98.32	08/08/2022	08/31/2022	07/01/2022	07/31/2022	27						00216						88844471						1						07/20/2022						63						06/20/2022						67						4						GAL							Past Due balances must be paid by 08/15/2022  in order to avoid a $50 fee and disconnection of water service.	If you would like to enroll in paperless billing or pay your bills online please visit www.eaglemountaincity.com	127593	06/17/2021		Single Graph				GAL To	31	7																		84005	0	JUL	JUN	MAY	APR	MAR	FEB	JAN	DEC	NOV	OCT	SEP	AUG		7	6	5	4	3	2	1	12	11	10	9	8	0	4	6	3	2	4	2	4	3	3	5	8	6	0	11	0	0	0	0	0	0	0	0	0	0	0	
127593	001	SMITH	TIAURA	TIAURA SMITH		4149 N MAPLE DR				EAGLE MOUNTAIN UT 84005	UT	84005		4149 N MAPLE DR/ EPT G3 320	Water			Sewer	Penalty			Garbage Service	Garbage Fuel Charge		Storm Drain	Deployed Abatement	Deposit	Miscellaneous							34.31			45.75				9.50			8.25									0	8.62	8.62CR			97.81	97.81	08/08/2022	08/31/2022	07/01/2022	07/31/2022	27						00320						21180915						1						07/20/2022						0						06/07/2022						8						8						GAL							Past Due balances must be paid by 08/15/2022  in order to avoid a $50 fee and disconnection of water service.	If you would like to enroll in paperless billing or pay your bills online please visit www.eaglemountaincity.com	127593	06/28/2022		Single Graph				GAL To	31	7																		84005	0	JUL	JUN	MAY	APR	MAR	FEB	JAN	DEC	NOV	OCT	SEP	AUG		7	6	5	4	3	2	1	12	11	10	9	8	0	8	0	0	0	0	0	0	0	0	0	0	0	0	0	0	0	0	0	0	0	0	0	0	0	0	
121080	000	PETRICH	RUSSELL	RUSSELL PETRICH		4212 MERCUR DR				EAGLE MOUNTAIN UT 84005	UT	84005		2126 E FALL ST/ EPT 63	Water			Sewer	Penalty			Garbage Service	Garbage Fuel Charge		Storm Drain	Deployed Abatement	Deposit	Miscellaneous																										0	273.97	0.00CR				273.97	08/08/2022	08/31/2022	07/01/2022	07/31/2022																			0												0												0						0													Past Due balances must be paid by 08/15/2022  in order to avoid a $50 fee and disconnection of water service.	If you would like to enroll in paperless billing or pay your bills online please visit www.eaglemountaincity.com	121080	07/27/2018	273.97	Single Graph				GAL To	31	7																		84005	0	JUL	JUN	MAY	APR	MAR	FEB	JAN	DEC	NOV	OCT	SEP	AUG		7	6	5	4	3	2	1	12	11	10	9	8	0	34	49	58	26	11	14	14	14	15	16	18	43	0	65	38	15	15	11	13	16	13	28	35	57	39	
121080	001	PETRICH	RUSSELL	RUSSELL PETRICH		4212 MERCUR DR				EAGLE MOUNTAIN UT 84005	UT	84005		4212 N MERCUR DR/ EPT J3 325	Water			Sewer	Penalty			Garbage Service	Garbage Fuel Charge		Storm Drain	Deployed Abatement	Deposit	Miscellaneous							9.05			16.23				3.06			2.93									0		0.00CR			31.27	31.27	08/08/2022	08/31/2022	07/21/2022	07/31/2022																			0												0												0						0													Past Due balances must be paid by 08/15/2022  in order to avoid a $50 fee and disconnection of water service.	If you would like to enroll in paperless billing or pay your bills online please visit www.eaglemountaincity.com	121080	07/21/2022		Single Graph				GAL To	31	7																		84005	0	JUL	JUN	MAY	APR	MAR	FEB	JAN	DEC	NOV	OCT	SEP	AUG		7	6	5	4	3	2	1	12	11	10	9	8	0	0	0	0	0	0	0	0	0	0	0	0	0	0	0	0	0	0	0	0	0	0	0	0	0	0	
129504	001	OTANEZ	ANNEMARIE	ANNEMARIE OTANEZ		4627 N HANSEN PEAK DR				EAGLE MOUNTAIN UT 84005	UT	84005		4627 N HANSEN PEAK DR/ BP A 1217	Water			Sewer	Penalty			Garbage Service	Garbage Fuel Charge		Storm Drain	Deployed Abatement	Deposit	Miscellaneous							96.84			45.75				14.50			8.25									0	85.64	85.64CR			165.34	165.34	08/08/2022	08/31/2022	07/01/2022	07/31/2022	78						01217						92075943						1						07/20/2022						62						06/20/2022						128						66						GAL							Past Due balances must be paid by 08/15/2022  in order to avoid a $50 fee and disconnection of water service.	If you would like to enroll in paperless billing or pay your bills online please visit www.eaglemountaincity.com	129504	03/11/2022		Single Graph				GAL To	31	7																		84005	0	JUL	JUN	MAY	APR	MAR	FEB	JAN	DEC	NOV	OCT	SEP	AUG		7	6	5	4	3	2	1	12	11	10	9	8	0	66	55	3	4	0	0	0	0	0	0	0	0	0	0	0	0	0	0	0	0	0	0	0	0	0	
129504	000	OTANEZ	ANNEMARIE	ANNEMARIE OTANEZ		4627 N HANSEN PEAK DR				EAGLE MOUNTAIN UT 84005	UT	84005		119 E SWASEY PEAK WAY/ BP A 1201	Water			Sewer	Penalty			Garbage Service	Garbage Fuel Charge		Storm Drain	Deployed Abatement	Deposit	Miscellaneous							90.30			45.75				14.50			8.25									0	321.92	321.92CR	50.00		158.80	208.80	08/08/2022	08/31/2022	07/01/2022	07/31/2022	24						01201						91727801						1						07/20/2022						131						06/20/2022						191						60						GAL							Past Due balances must be paid by 08/15/2022  in order to avoid a $50 fee and disconnection of water service.	If you would like to enroll in paperless billing or pay your bills online please visit www.eaglemountaincity.com	129504	01/24/2022	50.00	Single Graph				GAL To	31	7																		84005	0	JUL	JUN	MAY	APR	MAR	FEB	JAN	DEC	NOV	OCT	SEP	AUG		7	6	5	4	3	2	1	12	11	10	9	8	0	60	59	65	3	2	2	0	0	0	0	0	0	0	0	0	0	0	0	0	0	0	0	0	0	0	
130991	000	ENSIGN	MEGAN	MEGAN ENSIGN		4755 E GOLDEN MEADOW CROSSING				EAGLE MOUNTAIN UT 84005	UT	84005		4717 E GOLDEN MEADOW CROSSING/ SL 2940	Water			Sewer	Penalty			Garbage Service	Garbage Fuel Charge		Storm Drain	Deployed Abatement	Deposit	Miscellaneous																										0	133.08	0.00CR				133.08	08/08/2022	08/31/2022	07/15/2022	07/31/2022																			0												0												0						0													Past Due balances must be paid by 08/15/2022  in order to avoid a $50 fee and disconnection of water service.	If you would like to enroll in paperless billing or pay your bills online please visit www.eaglemountaincity.com	130991	07/15/2022	133.08	Single Graph				GAL To	31	7																		84005	0	JUL	JUN	MAY	APR	MAR	FEB	JAN	DEC	NOV	OCT	SEP	AUG		7	6	5	4	3	2	1	12	11	10	9	8	0	99	0	0	0	0	0	0	0	0	0	0	0	0	0	0	0	0	0	0	0	0	0	0	0	0	
131240	000	ENSIGN	MEGAN	MEGAN ENSIGN		4755 E GOLDEN MEADOW CROSSING				EAGLE MOUNTAIN UT 84005	UT	84005		4755 E GOLDEN MEADOW CROSSING/ SL 2936	Water			Sewer	Penalty			Garbage Service	Garbage Fuel Charge		Storm Drain	Deployed Abatement	Deposit	Miscellaneous							9.87			17.71				3.06			3.19		40.00							0		0.00CR		40.00	33.83	73.83	08/08/2022	08/31/2022	07/20/2022	07/31/2022																			0												0												0						0													Past Due balances must be paid by 08/15/2022  in order to avoid a $50 fee and disconnection of water service.	If you would like to enroll in paperless billing or pay your bills online please visit www.eaglemountaincity.com	131240	07/20/2022	40.00	Single Graph				GAL To	31	7																		84005	0	JUL	JUN	MAY	APR	MAR	FEB	JAN	DEC	NOV	OCT	SEP	AUG		7	6	5	4	3	2	1	12	11	10	9	8	0	0	0	0	0	0	0	0	0	0	0	0	0	0	0	0	0	0	0	0	0	0	0	0	0	0	
129665	002	HAZARD	GREGORY	GREGORY HAZARD		11207 S KESTREL RISE RD				SOUTH JORDAN UT 84009-5145	UT	84009-5145	07	1778 E SUNSET VIEW LN/ NR 34	Water			Sewer	Penalty			Garbage Service	Garbage Fuel Charge		Storm Drain	Deployed Abatement	Deposit	Miscellaneous							155.08							20.75			8.25									0	289.90	125.00CR	65.00		184.08	413.98	08/08/2022	08/31/2022	07/01/2022	07/31/2022	01						00034						77776778						1						07/20/2022						4815						06/20/2022						4932						117						GAL							Past Due balances must be paid by 08/15/2022  in order to avoid a $50 fee and disconnection of water service.	If you would like to enroll in paperless billing or pay your bills online please visit www.eaglemountaincity.com	129665	03/01/2022	229.90	Single Graph				GAL To	31	7																		84009	0	JUL	JUN	MAY	APR	MAR	FEB	JAN	DEC	NOV	OCT	SEP	AUG		7	6	5	4	3	2	1	12	11	10	9	8	0	117	94	58	37	15	0	0	0	0	0	0	0	0	0	0	0	0	0	0	0	0	0	0	0	0	
129665	001	HAZARD	GREGORY	GREGORY HAZARD		11207 S KESTREL RISE RD				SOUTH JORDAN UT 84009-5145	UT	84009-5145	07	7641 N POWELL ST/ TC 97	Water			Sewer	Penalty			Garbage Service	Garbage Fuel Charge		Storm Drain	Deployed Abatement	Deposit	Miscellaneous							44.94			45.75				9.50			8.25									0	111.68	100.00CR			108.44	120.12	08/08/2022	08/31/2022	07/01/2022	07/31/2022	37						00097						79317571						1						07/19/2022						1401						06/20/2022						1419						18						GAL							Past Due balances must be paid by 08/15/2022  in order to avoid a $50 fee and disconnection of water service.	If you would like to enroll in paperless billing or pay your bills online please visit www.eaglemountaincity.com	129665	03/01/2022	11.68	Single Graph				GAL To	31	7																		84009	0	JUL	JUN	MAY	APR	MAR	FEB	JAN	DEC	NOV	OCT	SEP	AUG		7	6	5	4	3	2	1	12	11	10	9	8	0	18	21	14	11	4	0	0	0	0	0	0	0	0	0	0	0	0	0	0	0	0	0	0	0	0	
129665	000	HAZARD	GREGORY	GREGORY HAZARD		11207 S KESTREL RISE RD				SOUTH JORDAN UT 84009-5145	UT	84009-5145	07	1301 E HINDLEY LN/ AV B6 604	Water			Sewer	Penalty			Garbage Service	Garbage Fuel Charge		Storm Drain	Deployed Abatement	Deposit	Miscellaneous							113.94			45.75				9.50			8.25									0	174.02	0.00CR	15.00		177.44	366.46	08/08/2022	08/31/2022	07/01/2022	07/31/2022	71						00604						8844453						1						07/20/2022						1401						06/20/2022						1482						81						GAL							Past Due balances must be paid by 08/15/2022  in order to avoid a $50 fee and disconnection of water service.	If you would like to enroll in paperless billing or pay your bills online please visit www.eaglemountaincity.com	129665	02/08/2022	189.02	Single Graph				GAL To	31	7																		84009	0	JUL	JUN	MAY	APR	MAR	FEB	JAN	DEC	NOV	OCT	SEP	AUG		7	6	5	4	3	2	1	12	11	10	9	8	0	81	78	78	1	1	1	0	0	0	0	0	0	0	0	0	0	0	0	0	0	0	0	0	0	0	
117155	083	FIELDSTONE OAK HOLLOW LLC*		 FIELDSTONE OAK HOLLOW LLC*		12896 S PONY EXPRESS RD STE 400				DRAPER UT 84020-8335	UT	84020-8335	00	7872 N WILLOW OAK WAY/ OH A4 407	Water			Sewer	Penalty			Garbage Service	Garbage Fuel Charge		Storm Drain	Deployed Abatement	Deposit	Miscellaneous																										0	80.27	0.00CR				80.27	08/08/2022	08/31/2022	07/01/2022	07/31/2022																			0												0												0						0													Past Due balances must be paid by 08/15/2022  in order to avoid a $50 fee and disconnection of water service.	If you would like to enroll in paperless billing or pay your bills online please visit www.eaglemountaincity.com	117155	03/27/2019	80.27	Single Graph				GAL To	31	7																		84020	0	JUL	JUN	MAY	APR	MAR	FEB	JAN	DEC	NOV	OCT	SEP	AUG		7	6	5	4	3	2	1	12	11	10	9	8	0	0	0	0	0	0	0	0	0	0	0	0	0	0	0	0	0	0	0	0	0	0	0	0	0	0	
117155	091	FIELDSTONE OAK HOLLOW LLC*		 FIELDSTONE OAK HOLLOW LLC*		12896 S PONY EXPRESS RD STE 400				DRAPER UT 84020-8335	UT	84020-8335	00	4337 E WILLOW OAK WAY/ OH A5 512	Water			Sewer	Penalty			Garbage Service	Garbage Fuel Charge		Storm Drain	Deployed Abatement	Deposit	Miscellaneous																										0	66.14	0.00CR				66.14	08/08/2022	08/31/2022	07/01/2022	07/31/2022																			0												0												0						0													Past Due balances must be paid by 08/15/2022  in order to avoid a $50 fee and disconnection of water service.	If you would like to enroll in paperless billing or pay your bills online please visit www.eaglemountaincity.com	117155	10/02/2019	66.14	Single Graph				GAL To	31	7																		84020	0	JUL	JUN	MAY	APR	MAR	FEB	JAN	DEC	NOV	OCT	SEP	AUG		7	6	5	4	3	2	1	12	11	10	9	8	0	0	0	0	0	0	0	0	0	0	0	0	0	0	0	0	0	0	0	0	0	0	0	0	0	0	
129061	000	EGBERT	MARK	MARK EGBERT		11926 S POND RIDGE DR				DRAPER UT 84020-8757	UT	84020-8757	26	4292 E HALF TIMBER WAY/ ERM K3 J11	Water			Sewer	Penalty			Garbage Service	Garbage Fuel Charge		Storm Drain	Deployed Abatement	Deposit	Miscellaneous							29.82			45.75				14.50			8.25									0	95.56	95.56CR			98.32	98.32	08/08/2022	08/31/2022	07/01/2022	07/31/2022	70						00011						86327199						1						07/19/2022						221						06/20/2022						225						4						GAL							Past Due balances must be paid by 08/15/2022  in order to avoid a $50 fee and disconnection of water service.	If you would like to enroll in paperless billing or pay your bills online please visit www.eaglemountaincity.com	129061	12/01/2021		Single Graph				GAL To	31	7																		84020	0	JUL	JUN	MAY	APR	MAR	FEB	JAN	DEC	NOV	OCT	SEP	AUG		7	6	5	4	3	2	1	12	11	10	9	8	0	4	3	4	4	4	3	5	0	0	0	0	0	0	0	0	0	0	0	0	0	0	0	0	0	0	
129061	001	EGBERT	MARK	MARK EGBERT		11926 S POND RIDGE DR				DRAPER UT 84020-8757	UT	84020-8757	26	4311 E GRASSLAND WAY/ ERM K3 M26	Water			Sewer	Penalty			Garbage Service	Garbage Fuel Charge		Storm Drain	Deployed Abatement	Deposit	Miscellaneous							39.54			45.75				14.50			8.25									0	241.45	134.49CR	15.00		108.04	230.00	08/08/2022	08/31/2022	07/01/2022	07/31/2022	70						00026						85383098						1						07/19/2022						175						06/20/2022						188						13						GAL							Past Due balances must be paid by 08/15/2022  in order to avoid a $50 fee and disconnection of water service.	If you would like to enroll in paperless billing or pay your bills online please visit www.eaglemountaincity.com	129061	04/20/2022	121.96	Single Graph				GAL To	31	7																		84020	0	JUL	JUN	MAY	APR	MAR	FEB	JAN	DEC	NOV	OCT	SEP	AUG		7	6	5	4	3	2	1	12	11	10	9	8	0	13	12	11	0	0	0	0	0	0	0	0	0	0	0	0	0	0	0	0	0	0	0	0	0	0	
124210	007	DUBLIN FARMS OWNERS ASSOCIATIO		 DUBLIN FARMS OWNERS ASSOCIATIO	c/o HOA WEST	1192 E DRAPER PKWY # 604				DRAPER UT 84020-9356	UT	84020-9356	92	4262-4274 E PARNELL LN/ DBF 17	Water			Sewer	Penalty			Garbage Service	Garbage Fuel Charge		Storm Drain	Deployed Abatement	Deposit	Miscellaneous							116.04			183.00							33.00									0	330.96	330.96CR			332.04	332.04	08/08/2022	08/31/2022	07/01/2022	07/31/2022	72						00017						87207373						1						07/19/2022						186						06/20/2022						199						13						GAL							Past Due balances must be paid by 08/15/2022  in order to avoid a $50 fee and disconnection of water service.	If you would like to enroll in paperless billing or pay your bills online please visit www.eaglemountaincity.com	124210	05/01/2020		Single Graph				GAL To	30	7																		84020	0	JUL	JUN	MAY	APR	MAR	FEB	JAN	DEC	NOV	OCT	SEP	AUG		7	6	5	4	3	2	1	12	11	10	9	8	0	13	12	6	10	5	7	12	9	11	7	11	9	0	11	10	8	12	8	10	10	7	7	4	0	0	
124210	030	DUBLIN FARMS OWNERS ASSOCIATIO		 DUBLIN FARMS OWNERS ASSOCIATIO	c/o HOA WEST	1192 E DRAPER PKWY # 604				DRAPER UT 84020-9356	UT	84020-9356	92	4275-4287 E OCONNELL LN/ DBF 3 29	Water			Sewer	Penalty			Garbage Service	Garbage Fuel Charge		Storm Drain	Deployed Abatement	Deposit	Miscellaneous							104.16			183.00							33.00									0	324.48	324.48CR			320.16	320.16	08/08/2022	08/31/2022	07/01/2022	07/31/2022	72						00029						87717843						1						07/19/2022						140						06/20/2022						142						2						GAL							Past Due balances must be paid by 08/15/2022  in order to avoid a $50 fee and disconnection of water service.	If you would like to enroll in paperless billing or pay your bills online please visit www.eaglemountaincity.com	124210	06/03/2020		Single Graph				GAL To	30	7																		84020	0	JUL	JUN	MAY	APR	MAR	FEB	JAN	DEC	NOV	OCT	SEP	AUG		7	6	5	4	3	2	1	12	11	10	9	8	0	2	6	13	4	5	6	10	13	7	7	8	5	0	7	7	6	8	5	6	6	7	3	1	0	0	
124210	028	DUBLIN FARMS OWNERS ASSOCIATIO		 DUBLIN FARMS OWNERS ASSOCIATIO	c/o HOA WEST	1192 E DRAPER PKWY # 604				DRAPER UT 84020-9356	UT	84020-9356	92	4345-4357 E PARNELL LN/ DBF 11	Water			Sewer	Penalty			Garbage Service	Garbage Fuel Charge		Storm Drain	Deployed Abatement	Deposit	Miscellaneous							116.04			183.00							33.00									0	330.96	330.96CR			332.04	332.04	08/08/2022	08/31/2022	07/01/2022	07/31/2022	72						00011						87717787						1						07/20/2022						258						06/20/2022						271						13						GAL							Past Due balances must be paid by 08/15/2022  in order to avoid a $50 fee and disconnection of water service.	If you would like to enroll in paperless billing or pay your bills online please visit www.eaglemountaincity.com	124210	06/03/2020		Single Graph				GAL To	30	7																		84020	0	JUL	JUN	MAY	APR	MAR	FEB	JAN	DEC	NOV	OCT	SEP	AUG		7	6	5	4	3	2	1	12	11	10	9	8	0	13	12	8	13	10	11	15	9	9	8	21	18	0	21	16	13	15	12	13	15	9	7	2	1	0	
124210	019	DUBLIN FARMS OWNERS ASSOCIATIO		 DUBLIN FARMS OWNERS ASSOCIATIO	c/o HOA WEST	1192 E DRAPER PKWY # 604				DRAPER UT 84020-9356	UT	84020-9356	92	4331-4343 E OCONNELL LN/ DBF 3 34	Water			Sewer	Penalty			Garbage Service	Garbage Fuel Charge		Storm Drain	Deployed Abatement	Deposit	Miscellaneous							108.48			183.00							33.00									0	323.40	323.40CR			324.48	324.48	08/08/2022	08/31/2022	07/01/2022	07/31/2022	72						00034						87717765						1						07/19/2022						93						06/20/2022						99						6						GAL							Past Due balances must be paid by 08/15/2022  in order to avoid a $50 fee and disconnection of water service.	If you would like to enroll in paperless billing or pay your bills online please visit www.eaglemountaincity.com	124210	05/01/2020		Single Graph				GAL To	30	7																		84020	0	JUL	JUN	MAY	APR	MAR	FEB	JAN	DEC	NOV	OCT	SEP	AUG		7	6	5	4	3	2	1	12	11	10	9	8	0	6	5	3	5	5	4	5	4	4	4	4	10	0	8	4	3	4	5	5	6	3	0	-108	36	16	
124210	025	DUBLIN FARMS OWNERS ASSOCIATIO		 DUBLIN FARMS OWNERS ASSOCIATIO	c/o HOA WEST	1192 E DRAPER PKWY # 604				DRAPER UT 84020-9356	UT	84020-9356	92	4312-4324 E PARNELL LN /DBF 19	Water			Sewer	Penalty			Garbage Service	Garbage Fuel Charge		Storm Drain	Deployed Abatement	Deposit	Miscellaneous							117.12			183.00							33.00									0	328.80	328.80CR			333.12	333.12	08/08/2022	08/31/2022	07/01/2022	07/31/2022	72						00019						87717785						1						07/20/2022						194						06/20/2022						208						14						GAL							Past Due balances must be paid by 08/15/2022  in order to avoid a $50 fee and disconnection of water service.	If you would like to enroll in paperless billing or pay your bills online please visit www.eaglemountaincity.com	124210	05/01/2020		Single Graph				GAL To	30	7																		84020	0	JUL	JUN	MAY	APR	MAR	FEB	JAN	DEC	NOV	OCT	SEP	AUG		7	6	5	4	3	2	1	12	11	10	9	8	0	14	10	8	10	8	9	10	6	9	10	11	8	0	10	10	9	11	9	11	15	7	7	5	1	0	
124210	013	DUBLIN FARMS OWNERS ASSOCIATIO		 DUBLIN FARMS OWNERS ASSOCIATIO	c/o HOA WEST	1192 E DRAPER PKWY # 604				DRAPER UT 84020-9356	UT	84020-9356	92	4217-4229 E PARNELL LN/ DBF 4	Water			Sewer	Penalty			Garbage Service	Garbage Fuel Charge		Storm Drain	Deployed Abatement	Deposit	Miscellaneous							102.00			183.00							33.00									0	338.52	338.52CR			318.00	318.00	08/08/2022	08/31/2022	07/01/2022	07/31/2022																			0												0												0						0													Past Due balances must be paid by 08/15/2022  in order to avoid a $50 fee and disconnection of water service.	If you would like to enroll in paperless billing or pay your bills online please visit www.eaglemountaincity.com	124210	05/01/2020		Single Graph				GAL To	30	7																		84020	0	JUL	JUN	MAY	APR	MAR	FEB	JAN	DEC	NOV	OCT	SEP	AUG		7	6	5	4	3	2	1	12	11	10	9	8	0	0	19	0	44	0	0	6	3	8	9	9	16	0	12	7	7	13	10	29	6	6	2	11	8	5	
124210	033	DUBLIN FARMS OWNERS ASSOCIATIO		 DUBLIN FARMS OWNERS ASSOCIATIO	c/o HOA WEST	1192 E DRAPER PKWY # 604				DRAPER UT 84020-9356	UT	84020-9356	92	4327 E OCONNELL LN/ DBF 3 33	Water			Sewer	Penalty			Garbage Service	Garbage Fuel Charge		Storm Drain	Deployed Abatement	Deposit	Miscellaneous							36.30			45.75							8.25									0	91.38	91.38CR			90.30	90.30	08/08/2022	08/31/2022	07/01/2022	07/31/2022	72						00033						88616108						1						07/19/2022						197						06/20/2022						207						10						GAL							Past Due balances must be paid by 08/15/2022  in order to avoid a $50 fee and disconnection of water service.	If you would like to enroll in paperless billing or pay your bills online please visit www.eaglemountaincity.com	124210	06/10/2020		Single Graph				GAL To	30	7																		84020	0	JUL	JUN	MAY	APR	MAR	FEB	JAN	DEC	NOV	OCT	SEP	AUG		7	6	5	4	3	2	1	12	11	10	9	8	0	10	11	12	15	14	13	15	16	12	7	8	7	0	8	14	5	9	7	7	9	5	1	2	0	0	
124210	029	DUBLIN FARMS OWNERS ASSOCIATIO		 DUBLIN FARMS OWNERS ASSOCIATIO	c/o HOA WEST	1192 E DRAPER PKWY # 604				DRAPER UT 84020-9356	UT	84020-9356	92	4255-4267 E OCONNELL LN/ DBF 3 27	Water			Sewer	Penalty			Garbage Service	Garbage Fuel Charge		Storm Drain	Deployed Abatement	Deposit	Miscellaneous							112.80			183.00							33.00									0	329.88	329.88CR			328.80	328.80	08/08/2022	08/31/2022	07/01/2022	07/31/2022	72						00027						87717784						1						07/19/2022						264						06/20/2022						274						10						GAL							Past Due balances must be paid by 08/15/2022  in order to avoid a $50 fee and disconnection of water service.	If you would like to enroll in paperless billing or pay your bills online please visit www.eaglemountaincity.com	124210	06/03/2020		Single Graph				GAL To	30	7																		84020	0	JUL	JUN	MAY	APR	MAR	FEB	JAN	DEC	NOV	OCT	SEP	AUG		7	6	5	4	3	2	1	12	11	10	9	8	0	10	11	11	9	8	9	8	8	10	17	18	15	0	15	15	20	33	14	10	12	11	5	3	1	1	
124210	014	DUBLIN FARMS OWNERS ASSOCIATIO		 DUBLIN FARMS OWNERS ASSOCIATIO	c/o HOA WEST	1192 E DRAPER PKWY # 604				DRAPER UT 84020-9356	UT	84020-9356	92	4167-4179 E PARNELL LN/ DBF 1	Water			Sewer	Penalty			Garbage Service	Garbage Fuel Charge		Storm Drain	Deployed Abatement	Deposit	Miscellaneous							102.00			183.00							33.00									0	339.60	339.60CR			318.00	318.00	08/08/2022	08/31/2022	07/01/2022	07/31/2022																			0												0												0						0													Past Due balances must be paid by 08/15/2022  in order to avoid a $50 fee and disconnection of water service.	If you would like to enroll in paperless billing or pay your bills online please visit www.eaglemountaincity.com	124210	05/01/2020		Single Graph				GAL To	30	7																		84020	0	JUL	JUN	MAY	APR	MAR	FEB	JAN	DEC	NOV	OCT	SEP	AUG		7	6	5	4	3	2	1	12	11	10	9	8	0	0	20	0	63	0	0	6	2	8	9	13	10	0	5	10	7	16	11	28	6	6	2	9	8	7	
124210	009	DUBLIN FARMS OWNERS ASSOCIATIO		 DUBLIN FARMS OWNERS ASSOCIATIO	c/o HOA WEST	1192 E DRAPER PKWY # 604				DRAPER UT 84020-9356	UT	84020-9356	92	8172-8184 N OCONNELL LN/ DBF 13	Water			Sewer	Penalty			Garbage Service	Garbage Fuel Charge		Storm Drain	Deployed Abatement	Deposit	Miscellaneous							102.00			183.00							33.00									0	538.18	538.18CR			318.00	318.00	08/08/2022	08/31/2022	07/01/2022	07/31/2022																			0												0												0						0													Past Due balances must be paid by 08/15/2022  in order to avoid a $50 fee and disconnection of water service.	If you would like to enroll in paperless billing or pay your bills online please visit www.eaglemountaincity.com	124210	05/01/2020		Single Graph				GAL To	30	7																		84020	0	JUL	JUN	MAY	APR	MAR	FEB	JAN	DEC	NOV	OCT	SEP	AUG		7	6	5	4	3	2	1	12	11	10	9	8	0	0	192	0	0	0	0	5	2	29	21	34	23	0	25	25	18	32	26	64	5	8	31	26	22	25	
124210	004	DUBLIN FARMS OWNERS ASSOCIATIO		 DUBLIN FARMS OWNERS ASSOCIATIO	c/o HOA WEST	1192 E DRAPER PKWY # 604				DRAPER UT 84020-9356	UT	84020-9356	92	4202-4214 E OCONNELL LN/ DBF 25	Water			Sewer	Penalty			Garbage Service	Garbage Fuel Charge		Storm Drain	Deployed Abatement	Deposit	Miscellaneous							102.00			183.00							33.00									0	352.56	352.56CR			318.00	318.00	08/08/2022	08/31/2022	07/01/2022	07/31/2022																			0												0												0						0													Past Due balances must be paid by 08/15/2022  in order to avoid a $50 fee and disconnection of water service.	If you would like to enroll in paperless billing or pay your bills online please visit www.eaglemountaincity.com	124210	03/11/2020		Single Graph				GAL To	30	7																		84020	0	JUL	JUN	MAY	APR	MAR	FEB	JAN	DEC	NOV	OCT	SEP	AUG		7	6	5	4	3	2	1	12	11	10	9	8	0	0	32	0	6	0	4	2	9	0	6	10	7	0	8	7	6	7	6	10	2	6	8	7	5	5	
124210	026	DUBLIN FARMS OWNERS ASSOCIATIO		 DUBLIN FARMS OWNERS ASSOCIATIO	c/o HOA WEST	1192 E DRAPER PKWY # 604				DRAPER UT 84020-9356	UT	84020-9356	92	4334-4346 E PARNELL LN /DBF 20	Water			Sewer	Penalty			Garbage Service	Garbage Fuel Charge		Storm Drain	Deployed Abatement	Deposit	Miscellaneous							111.72			183.00							33.00									0	328.80	328.80CR			327.72	327.72	08/08/2022	08/31/2022	07/01/2022	07/31/2022	72						00020						87717786						1						07/20/2022						246						06/20/2022						255						9						GAL							Past Due balances must be paid by 08/15/2022  in order to avoid a $50 fee and disconnection of water service.	If you would like to enroll in paperless billing or pay your bills online please visit www.eaglemountaincity.com	124210	05/01/2020		Single Graph				GAL To	30	7																		84020	0	JUL	JUN	MAY	APR	MAR	FEB	JAN	DEC	NOV	OCT	SEP	AUG		7	6	5	4	3	2	1	12	11	10	9	8	0	9	10	11	12	12	12	15	11	11	11	14	13	0	9	11	14	17	11	14	16	9	10	3	0	0	
124210	027	DUBLIN FARMS OWNERS ASSOCIATIO		 DUBLIN FARMS OWNERS ASSOCIATIO	c/o HOA WEST	1192 E DRAPER PKWY # 604				DRAPER UT 84020-9356	UT	84020-9356	92	4291 E OCONNELL LN/ DBF 3 30	Water			Sewer	Penalty			Garbage Service	Garbage Fuel Charge		Storm Drain	Deployed Abatement	Deposit	Miscellaneous							31.98			45.75							8.25									0	88.14	88.14CR			85.98	85.98	08/08/2022	08/31/2022	07/01/2022	07/31/2022	72						00030						87717842						1						07/19/2022						135						06/20/2022						141						6						GAL							Past Due balances must be paid by 08/15/2022  in order to avoid a $50 fee and disconnection of water service.	If you would like to enroll in paperless billing or pay your bills online please visit www.eaglemountaincity.com	124210	06/03/2020		Single Graph				GAL To	30	7																		84020	0	JUL	JUN	MAY	APR	MAR	FEB	JAN	DEC	NOV	OCT	SEP	AUG		7	6	5	4	3	2	1	12	11	10	9	8	0	6	8	6	8	6	6	8	5	5	5	5	4	0	4	6	5	9	4	4	5	4	4	4	2	1	
124210	017	DUBLIN FARMS OWNERS ASSOCIATIO		 DUBLIN FARMS OWNERS ASSOCIATIO	c/o HOA WEST	1192 E DRAPER PKWY # 604				DRAPER UT 84020-9356	UT	84020-9356	92	4245-4257 E PARNELL LN/ DBF 5	Water			Sewer	Penalty			Garbage Service	Garbage Fuel Charge		Storm Drain	Deployed Abatement	Deposit	Miscellaneous							112.80			183.00							33.00									0	335.28	335.28CR			328.80	328.80	08/08/2022	08/31/2022	07/01/2022	07/31/2022	72						00005						87207368						1						07/19/2022						261						06/20/2022						271						10						GAL							Past Due balances must be paid by 08/15/2022  in order to avoid a $50 fee and disconnection of water service.	If you would like to enroll in paperless billing or pay your bills online please visit www.eaglemountaincity.com	124210	05/01/2020		Single Graph				GAL To	30	7																		84020	0	JUL	JUN	MAY	APR	MAR	FEB	JAN	DEC	NOV	OCT	SEP	AUG		7	6	5	4	3	2	1	12	11	10	9	8	0	10	16	13	18	12	12	13	10	13	12	12	13	0	14	13	12	14	10	11	13	8	8	8	4	2	
124210	022	DUBLIN FARMS OWNERS ASSOCIATIO		 DUBLIN FARMS OWNERS ASSOCIATIO	c/o HOA WEST	1192 E DRAPER PKWY # 604				DRAPER UT 84020-9356	UT	84020-9356	92	4313-4325 E PARNELL LN/ DBF 9	Water			Sewer	Penalty			Garbage Service	Garbage Fuel Charge		Storm Drain	Deployed Abatement	Deposit	Miscellaneous							112.80			183.00							33.00									0	328.80	328.80CR			328.80	328.80	08/08/2022	08/31/2022	07/01/2022	07/31/2022	72						00009						87717762						1						07/20/2022						281						06/20/2022						291						10						GAL							Past Due balances must be paid by 08/15/2022  in order to avoid a $50 fee and disconnection of water service.	If you would like to enroll in paperless billing or pay your bills online please visit www.eaglemountaincity.com	124210	05/01/2020		Single Graph				GAL To	30	7																		84020	0	JUL	JUN	MAY	APR	MAR	FEB	JAN	DEC	NOV	OCT	SEP	AUG		7	6	5	4	3	2	1	12	11	10	9	8	0	10	10	13	17	14	14	16	13	15	11	16	14	0	17	12	12	17	13	13	17	12	10	2	0	-138	
124210	010	DUBLIN FARMS OWNERS ASSOCIATIO		 DUBLIN FARMS OWNERS ASSOCIATIO	c/o HOA WEST	1192 E DRAPER PKWY # 604				DRAPER UT 84020-9356	UT	84020-9356	92	4277-4289 E PARNELL LN/ DBF 7	Water			Sewer	Penalty			Garbage Service	Garbage Fuel Charge		Storm Drain	Deployed Abatement	Deposit	Miscellaneous							117.12			183.00							33.00									0	334.20	334.20CR			333.12	333.12	08/08/2022	08/31/2022	07/01/2022	07/31/2022	72						00007						87207370						1						07/19/2022						287						06/20/2022						301						14						GAL							Past Due balances must be paid by 08/15/2022  in order to avoid a $50 fee and disconnection of water service.	If you would like to enroll in paperless billing or pay your bills online please visit www.eaglemountaincity.com	124210	05/01/2020		Single Graph				GAL To	30	7																		84020	0	JUL	JUN	MAY	APR	MAR	FEB	JAN	DEC	NOV	OCT	SEP	AUG		7	6	5	4	3	2	1	12	11	10	9	8	0	14	15	13	17	14	14	15	12	14	11	15	12	0	18	14	13	16	12	13	16	13	11	8	1	0	
124210	001	DUBLIN FARMS OWNERS ASSOCIATIO		 DUBLIN FARMS OWNERS ASSOCIATIO	c/o HOA WEST	1192 E DRAPER PKWY # 604				DRAPER UT 84020-9356	UT	84020-9356	92	4186-4198 E OCONNELL LN/ DBF 24	Water			Sewer	Penalty			Garbage Service	Garbage Fuel Charge		Storm Drain	Deployed Abatement	Deposit	Miscellaneous							113.88			183.00							33.00									0	330.96	330.96CR			329.88	329.88	08/08/2022	08/31/2022	07/01/2022	07/31/2022	36						00024						85152347						1						07/20/2022						292						06/20/2022						303						11						GAL							Past Due balances must be paid by 08/15/2022  in order to avoid a $50 fee and disconnection of water service.	If you would like to enroll in paperless billing or pay your bills online please visit www.eaglemountaincity.com	124210	03/05/2020		Single Graph				GAL To	30	7																		84020	0	JUL	JUN	MAY	APR	MAR	FEB	JAN	DEC	NOV	OCT	SEP	AUG		7	6	5	4	3	2	1	12	11	10	9	8	0	11	12	10	12	11	10	13	9	12	14	14	12	0	15	17	15	17	12	10	12	11	12	12	11	9	
124210	016	DUBLIN FARMS OWNERS ASSOCIATIO		 DUBLIN FARMS OWNERS ASSOCIATIO	c/o HOA WEST	1192 E DRAPER PKWY # 604				DRAPER UT 84020-9356	UT	84020-9356	92	8167-8179 N OCONNELL LN/ DBF 12	Water			Sewer	Penalty			Garbage Service	Garbage Fuel Charge		Storm Drain	Deployed Abatement	Deposit	Miscellaneous							108.48			183.00							33.00									0	329.88	329.88CR			324.48	324.48	08/08/2022	08/31/2022	07/01/2022	07/31/2022	72						00012						85506835						1						07/19/2022						210						06/20/2022						216						6						GAL							Past Due balances must be paid by 08/15/2022  in order to avoid a $50 fee and disconnection of water service.	If you would like to enroll in paperless billing or pay your bills online please visit www.eaglemountaincity.com	124210	05/01/2020		Single Graph				GAL To	30	7																		84020	0	JUL	JUN	MAY	APR	MAR	FEB	JAN	DEC	NOV	OCT	SEP	AUG		7	6	5	4	3	2	1	12	11	10	9	8	0	6	11	7	10	9	8	10	8	9	8	13	12	0	12	13	9	11	7	6	10	8	8	8	7	6	
124210	005	DUBLIN FARMS OWNERS ASSOCIATIO		 DUBLIN FARMS OWNERS ASSOCIATIO	c/o HOA WEST	1192 E DRAPER PKWY # 604				DRAPER UT 84020-9356	UT	84020-9356	92	4202-4214 E PARNELL LN /DBF 14	Water			Sewer	Penalty			Garbage Service	Garbage Fuel Charge		Storm Drain	Deployed Abatement	Deposit	Miscellaneous							102.00			183.00							33.00									0	374.16	374.16CR			318.00	318.00	08/08/2022	08/31/2022	07/01/2022	07/31/2022																			0												0												0						0													Past Due balances must be paid by 08/15/2022  in order to avoid a $50 fee and disconnection of water service.	If you would like to enroll in paperless billing or pay your bills online please visit www.eaglemountaincity.com	124210	05/01/2020		Single Graph				GAL To	30	7																		84020	0	JUL	JUN	MAY	APR	MAR	FEB	JAN	DEC	NOV	OCT	SEP	AUG		7	6	5	4	3	2	1	12	11	10	9	8	0	0	52	0	104	0	2	6	2	20	3	21	3	0	13	16	8	15	26	9	6	6	15	10	7	6	
124210	006	DUBLIN FARMS OWNERS ASSOCIATIO		 DUBLIN FARMS OWNERS ASSOCIATIO	c/o HOA WEST	1192 E DRAPER PKWY # 604				DRAPER UT 84020-9356	UT	84020-9356	92	4218-4230 E PARNELL LN/ DBF 15	Water			Sewer	Penalty			Garbage Service	Garbage Fuel Charge		Storm Drain	Deployed Abatement	Deposit	Miscellaneous							102.00			183.00							33.00									0	392.76	392.76CR			318.00	318.00	08/08/2022	08/31/2022	07/01/2022	07/31/2022																			0												0												0						0													Past Due balances must be paid by 08/15/2022  in order to avoid a $50 fee and disconnection of water service.	If you would like to enroll in paperless billing or pay your bills online please visit www.eaglemountaincity.com	124210	05/01/2020		Single Graph				GAL To	30	7																		84020	0	JUL	JUN	MAY	APR	MAR	FEB	JAN	DEC	NOV	OCT	SEP	AUG		7	6	5	4	3	2	1	12	11	10	9	8	0	0	69	0	5	0	7	4	3	20	4	11	11	0	8	6	3	1	0	9	4	6	11	9	6	4	
124210	021	DUBLIN FARMS OWNERS ASSOCIATIO		 DUBLIN FARMS OWNERS ASSOCIATIO	c/o HOA WEST	1192 E DRAPER PKWY # 604				DRAPER UT 84020-9356	UT	84020-9356	92	4329-4341 E PARNELL LN/ DBF 10	Water			Sewer	Penalty			Garbage Service	Garbage Fuel Charge		Storm Drain	Deployed Abatement	Deposit	Miscellaneous							112.80			183.00							33.00									0	330.96	330.96CR			328.80	328.80	08/08/2022	08/31/2022	07/01/2022	07/31/2022	72						00010						87717761						1						07/19/2022						222						06/20/2022						232						10						GAL							Past Due balances must be paid by 08/15/2022  in order to avoid a $50 fee and disconnection of water service.	If you would like to enroll in paperless billing or pay your bills online please visit www.eaglemountaincity.com	124210	05/01/2020		Single Graph				GAL To	30	7																		84020	0	JUL	JUN	MAY	APR	MAR	FEB	JAN	DEC	NOV	OCT	SEP	AUG		7	6	5	4	3	2	1	12	11	10	9	8	0	10	12	11	13	11	11	13	11	10	11	11	9	0	13	12	9	13	8	10	13	9	0	-922	472	94	
124210	023	DUBLIN FARMS OWNERS ASSOCIATIO		 DUBLIN FARMS OWNERS ASSOCIATIO	c/o HOA WEST	1192 E DRAPER PKWY # 604				DRAPER UT 84020-9356	UT	84020-9356	92	4271 E OCONNELL LN/ DBF 3 28	Water			Sewer	Penalty			Garbage Service	Garbage Fuel Charge		Storm Drain	Deployed Abatement	Deposit	Miscellaneous							31.98			45.75							8.25									0	87.06	87.06CR			85.98	85.98	08/08/2022	08/31/2022	07/01/2022	07/31/2022	72						00028						87717788						1						07/19/2022						149						06/20/2022						155						6						GAL							Past Due balances must be paid by 08/15/2022  in order to avoid a $50 fee and disconnection of water service.	If you would like to enroll in paperless billing or pay your bills online please visit www.eaglemountaincity.com	124210	05/01/2020		Single Graph				GAL To	30	7																		84020	0	JUL	JUN	MAY	APR	MAR	FEB	JAN	DEC	NOV	OCT	SEP	AUG		7	6	5	4	3	2	1	12	11	10	9	8	0	6	7	5	9	6	7	7	6	9	8	13	7	0	9	5	7	7	6	5	6	2	4	3	4	5	
124210	012	DUBLIN FARMS OWNERS ASSOCIATIO		 DUBLIN FARMS OWNERS ASSOCIATIO	c/o HOA WEST	1192 E DRAPER PKWY # 604				DRAPER UT 84020-9356	UT	84020-9356	92	4201-4213 E PARNELL LN/ DBF 3	Water			Sewer	Penalty			Garbage Service	Garbage Fuel Charge		Storm Drain	Deployed Abatement	Deposit	Miscellaneous							102.00			183.00							33.00									0	342.84	342.84CR			318.00	318.00	08/08/2022	08/31/2022	07/01/2022	07/31/2022																			0												0												0						0													Past Due balances must be paid by 08/15/2022  in order to avoid a $50 fee and disconnection of water service.	If you would like to enroll in paperless billing or pay your bills online please visit www.eaglemountaincity.com	124210	05/01/2020		Single Graph				GAL To	30	7																		84020	0	JUL	JUN	MAY	APR	MAR	FEB	JAN	DEC	NOV	OCT	SEP	AUG		7	6	5	4	3	2	1	12	11	10	9	8	0	0	23	0	60	0	0	5	2	9	7	17	7	0	12	17	2	17	8	31	5	6	12	6	2	2	
124210	031	DUBLIN FARMS OWNERS ASSOCIATIO		 DUBLIN FARMS OWNERS ASSOCIATIO	c/o HOA WEST	1192 E DRAPER PKWY # 604				DRAPER UT 84020-9356	UT	84020-9356	92	4295-4307 E OCONNELL LN/ DBF 3 31	Water			Sewer	Penalty			Garbage Service	Garbage Fuel Charge		Storm Drain	Deployed Abatement	Deposit	Miscellaneous							109.56			183.00							33.00									0	327.72	327.72CR			325.56	325.56	08/08/2022	08/31/2022	07/01/2022	07/31/2022	72						00031						87717841						1						07/19/2022						206						06/20/2022						213						7						GAL							Past Due balances must be paid by 08/15/2022  in order to avoid a $50 fee and disconnection of water service.	If you would like to enroll in paperless billing or pay your bills online please visit www.eaglemountaincity.com	124210	06/04/2020		Single Graph				GAL To	30	7																		84020	0	JUL	JUN	MAY	APR	MAR	FEB	JAN	DEC	NOV	OCT	SEP	AUG		7	6	5	4	3	2	1	12	11	10	9	8	0	7	9	10	12	9	9	14	9	10	9	12	10	0	11	10	11	14	9	10	11	5	4	6	2	0	
124210	032	DUBLIN FARMS OWNERS ASSOCIATIO		 DUBLIN FARMS OWNERS ASSOCIATIO	c/o HOA WEST	1192 E DRAPER PKWY # 604				DRAPER UT 84020-9356	UT	84020-9356	92	4311-4323 E OCONNELL LN/ DBF 3 32	Water			Sewer	Penalty			Garbage Service	Garbage Fuel Charge		Storm Drain	Deployed Abatement	Deposit	Miscellaneous							105.24			183.00							33.00									0	321.24	321.24CR			321.24	321.24	08/08/2022	08/31/2022	07/01/2022	07/31/2022	72						00032						87717840						1						07/19/2022						107						06/20/2022						110						3						GAL							Past Due balances must be paid by 08/15/2022  in order to avoid a $50 fee and disconnection of water service.	If you would like to enroll in paperless billing or pay your bills online please visit www.eaglemountaincity.com	124210	06/04/2020		Single Graph				GAL To	30	7																		84020	0	JUL	JUN	MAY	APR	MAR	FEB	JAN	DEC	NOV	OCT	SEP	AUG		7	6	5	4	3	2	1	12	11	10	9	8	0	3	3	4	4	3	4	5	10	6	4	15	6	0	4	5	4	6	4	4	6	4	2	3	1	0	
124210	018	DUBLIN FARMS OWNERS ASSOCIATIO		 DUBLIN FARMS OWNERS ASSOCIATIO	c/o HOA WEST	1192 E DRAPER PKWY # 604				DRAPER UT 84020-9356	UT	84020-9356	92	4261-4273 E PARNELL LN/ DBF 6	Water			Sewer	Penalty			Garbage Service	Garbage Fuel Charge		Storm Drain	Deployed Abatement	Deposit	Miscellaneous							113.88			183.00							33.00									0	332.04	332.04CR			329.88	329.88	08/08/2022	08/31/2022	07/01/2022	07/31/2022	72						00006						87207369						1						07/20/2022						319						06/20/2022						330						11						GAL							Past Due balances must be paid by 08/15/2022  in order to avoid a $50 fee and disconnection of water service.	If you would like to enroll in paperless billing or pay your bills online please visit www.eaglemountaincity.com	124210	05/01/2020		Single Graph				GAL To	30	7																		84020	0	JUL	JUN	MAY	APR	MAR	FEB	JAN	DEC	NOV	OCT	SEP	AUG		7	6	5	4	3	2	1	12	11	10	9	8	0	11	13	10	12	10	12	17	11	12	16	20	18	0	20	19	18	19	15	17	22	16	14	7	1	0	
124210	015	DUBLIN FARMS OWNERS ASSOCIATIO		 DUBLIN FARMS OWNERS ASSOCIATIO	c/o HOA WEST	1192 E DRAPER PKWY # 604				DRAPER UT 84020-9356	UT	84020-9356	92	4293-4305 E PARNELL LN/ DBF 8	Water			Sewer	Penalty			Garbage Service	Garbage Fuel Charge		Storm Drain	Deployed Abatement	Deposit	Miscellaneous							109.56			183.00							33.00									0	329.88	329.88CR			325.56	325.56	08/08/2022	08/31/2022	07/01/2022	07/31/2022	72						00008						87151741						1						07/20/2022						177						06/20/2022						184						7						GAL							Past Due balances must be paid by 08/15/2022  in order to avoid a $50 fee and disconnection of water service.	If you would like to enroll in paperless billing or pay your bills online please visit www.eaglemountaincity.com	124210	05/01/2020		Single Graph				GAL To	30	7																		84020	0	JUL	JUN	MAY	APR	MAR	FEB	JAN	DEC	NOV	OCT	SEP	AUG		7	6	5	4	3	2	1	12	11	10	9	8	0	7	11	7	10	6	8	10	8	11	5	1	10	0	12	11	10	12	10	10	14	5	3	2	1	0	
124210	008	DUBLIN FARMS OWNERS ASSOCIATIO		 DUBLIN FARMS OWNERS ASSOCIATIO	c/o HOA WEST	1192 E DRAPER PKWY # 604				DRAPER UT 84020-9356	UT	84020-9356	92	4246-4258 E PARNELL LN/ DBF 16	Water			Sewer	Penalty			Garbage Service	Garbage Fuel Charge		Storm Drain	Deployed Abatement	Deposit	Miscellaneous							124.68			183.00							33.00									0	337.44	337.44CR			340.68	340.68	08/08/2022	08/31/2022	07/01/2022	07/31/2022	72						00016						87207372						1						07/20/2022						268						06/20/2022						289						21						GAL							Past Due balances must be paid by 08/15/2022  in order to avoid a $50 fee and disconnection of water service.	If you would like to enroll in paperless billing or pay your bills online please visit www.eaglemountaincity.com	124210	05/01/2020		Single Graph				GAL To	30	7																		84020	0	JUL	JUN	MAY	APR	MAR	FEB	JAN	DEC	NOV	OCT	SEP	AUG		7	6	5	4	3	2	1	12	11	10	9	8	0	21	18	10	17	13	15	16	13	15	12	13	9	0	12	13	12	16	13	11	14	12	8	5	1	0	
124210	003	DUBLIN FARMS OWNERS ASSOCIATIO		 DUBLIN FARMS OWNERS ASSOCIATIO	c/o HOA WEST	1192 E DRAPER PKWY # 604				DRAPER UT 84020-9356	UT	84020-9356	92	4218-4230 E OCONNELL LN/ DBF 26	Water			Sewer	Penalty			Garbage Service	Garbage Fuel Charge		Storm Drain	Deployed Abatement	Deposit	Miscellaneous							102.00			183.00							33.00									0	447.58	447.58CR			318.00	318.00	08/08/2022	08/31/2022	07/01/2022	07/31/2022																			0												0												0						0													Past Due balances must be paid by 08/15/2022  in order to avoid a $50 fee and disconnection of water service.	If you would like to enroll in paperless billing or pay your bills online please visit www.eaglemountaincity.com	124210	03/11/2020		Single Graph				GAL To	30	7																		84020	0	JUL	JUN	MAY	APR	MAR	FEB	JAN	DEC	NOV	OCT	SEP	AUG		7	6	5	4	3	2	1	12	11	10	9	8	0	0	117	0	6	0	5	3	3	19	5	2	4	0	7	4	5	24	10	30	3	6	9	10	8	8	
124210	020	DUBLIN FARMS OWNERS ASSOCIATIO		 DUBLIN FARMS OWNERS ASSOCIATIO	c/o HOA WEST	1192 E DRAPER PKWY # 604				DRAPER UT 84020-9356	UT	84020-9356	92	4347 E OCONNELL LN/ DBF 3 35	Water			Sewer	Penalty			Garbage Service	Garbage Fuel Charge		Storm Drain	Deployed Abatement	Deposit	Miscellaneous							35.71			45.75							8.25									0	91.94	91.94CR			89.71	89.71	08/08/2022	08/31/2022	07/01/2022	07/31/2022	72						00035						87717760						1						07/20/2022						224						06/20/2022						233						9						GAL							Past Due balances must be paid by 08/15/2022  in order to avoid a $50 fee and disconnection of water service.	If you would like to enroll in paperless billing or pay your bills online please visit www.eaglemountaincity.com	124210	05/01/2020		Single Graph				GAL To	30	7																		84020	0	JUL	JUN	MAY	APR	MAR	FEB	JAN	DEC	NOV	OCT	SEP	AUG		7	6	5	4	3	2	1	12	11	10	9	8	0	9	11	11	15	12	11	17	0	175	139	119	105	0	92	89	539	14	10	8	7	1	2	2	0	-725	
124210	002	DUBLIN FARMS OWNERS ASSOCIATIO		 DUBLIN FARMS OWNERS ASSOCIATIO	c/o HOA WEST	1192 E DRAPER PKWY # 604				DRAPER UT 84020-9356	UT	84020-9356	92	4215-4225 E OCONNELL LN/ DBF 23	Water			Sewer	Penalty			Garbage Service	Garbage Fuel Charge		Storm Drain	Deployed Abatement	Deposit	Miscellaneous							113.88			183.00							33.00									0	330.96	330.96CR			329.88	329.88	08/08/2022	08/31/2022	07/01/2022	07/31/2022	36						00023						52206836						1						07/20/2022						315						06/20/2022						326						11						GAL							Past Due balances must be paid by 08/15/2022  in order to avoid a $50 fee and disconnection of water service.	If you would like to enroll in paperless billing or pay your bills online please visit www.eaglemountaincity.com	124210	03/05/2020		Single Graph				GAL To	30	7																		84020	0	JUL	JUN	MAY	APR	MAR	FEB	JAN	DEC	NOV	OCT	SEP	AUG		7	6	5	4	3	2	1	12	11	10	9	8	0	11	12	12	15	12	11	12	11	17	18	17	12	0	15	13	11	14	10	11	19	13	11	11	13	14	
124210	000	DUBLIN FARMS OWNERS ASSOCIATIO		 DUBLIN FARMS OWNERS ASSOCIATIO	c/o HOA WEST	1192 E DRAPER PKWY # 604				DRAPER UT 84020-9356	UT	84020-9356	92	4199-4211 E OCONNELL LN/ DBF 22	Water			Sewer	Penalty			Garbage Service	Garbage Fuel Charge		Storm Drain	Deployed Abatement	Deposit	Miscellaneous							108.48			183.00							33.00									0	325.56	325.56CR			324.48	324.48	08/08/2022	08/31/2022	07/01/2022	07/31/2022	36						00022						85152346						1						07/18/2022						263						06/17/2022						269						6						GAL							Past Due balances must be paid by 08/15/2022  in order to avoid a $50 fee and disconnection of water service.	If you would like to enroll in paperless billing or pay your bills online please visit www.eaglemountaincity.com	124210	03/05/2020		Single Graph				GAL To	30	7																		84020	0	JUL	JUN	MAY	APR	MAR	FEB	JAN	DEC	NOV	OCT	SEP	AUG		7	6	5	4	3	2	1	12	11	10	9	8	0	6	7	8	11	9	8	10	9	8	4	8	16	0	22	8	12	12	12	11	10	16	13	10	8	10	
124210	011	DUBLIN FARMS OWNERS ASSOCIATIO		 DUBLIN FARMS OWNERS ASSOCIATIO	c/o HOA WEST	1192 E DRAPER PKWY # 604				DRAPER UT 84020-9356	UT	84020-9356	92	4183-4195 E PARNELL LN/ DBF 2	Water			Sewer	Penalty			Garbage Service	Garbage Fuel Charge		Storm Drain	Deployed Abatement	Deposit	Miscellaneous							102.00			183.00							33.00									0	335.28	335.28CR			318.00	318.00	08/08/2022	08/31/2022	07/01/2022	07/31/2022																			0												0												0						0													Past Due balances must be paid by 08/15/2022  in order to avoid a $50 fee and disconnection of water service.	If you would like to enroll in paperless billing or pay your bills online please visit www.eaglemountaincity.com	124210	05/01/2020		Single Graph				GAL To	30	7																		84020	0	JUL	JUN	MAY	APR	MAR	FEB	JAN	DEC	NOV	OCT	SEP	AUG		7	6	5	4	3	2	1	12	11	10	9	8	0	0	16	0	41	0	0	6	3	10	9	12	11	0	6	6	6	9	7	18	6	6	6	6	5	6	
124210	024	DUBLIN FARMS OWNERS ASSOCIATIO		 DUBLIN FARMS OWNERS ASSOCIATIO	c/o HOA WEST	1192 E DRAPER PKWY # 604				DRAPER UT 84020-9356	UT	84020-9356	92	4294-4306 E PARNELL LN/ DBF 18	Water			Sewer	Penalty			Garbage Service	Garbage Fuel Charge		Storm Drain	Deployed Abatement	Deposit	Miscellaneous							112.80			183.00							33.00									0	334.20	334.20CR			328.80	328.80	08/08/2022	08/31/2022	07/01/2022	07/31/2022	72						00018						87717789						1						07/19/2022						367						06/20/2022						377						10						GAL							Past Due balances must be paid by 08/15/2022  in order to avoid a $50 fee and disconnection of water service.	If you would like to enroll in paperless billing or pay your bills online please visit www.eaglemountaincity.com	124210	05/01/2020		Single Graph				GAL To	30	7																		84020	0	JUL	JUN	MAY	APR	MAR	FEB	JAN	DEC	NOV	OCT	SEP	AUG		7	6	5	4	3	2	1	12	11	10	9	8	0	10	15	15	22	16	16	20	14	13	11	8	13	0	20	17	16	20	16	19	23	18	17	28	3	1	
124210	034	DUBLIN FARMS OWNERS ASSOCIATIO		 DUBLIN FARMS OWNERS ASSOCIATIO	c/o HOA WEST	1192 E DRAPER PKWY # 604				DRAPER UT 84020-9356	UT	84020-9356	92	8198-8208 N MALAHIDE LN/ DBF 3 21	Water			Sewer	Penalty			Garbage Service	Garbage Fuel Charge		Storm Drain	Deployed Abatement	Deposit	Miscellaneous							114.96			183.00							33.00									0	341.76	341.76CR			330.96	330.96	08/08/2022	08/31/2022	07/01/2022	07/31/2022	72						00021						87717839						1						07/20/2022						266						06/20/2022						278						12						GAL							Past Due balances must be paid by 08/15/2022  in order to avoid a $50 fee and disconnection of water service.	If you would like to enroll in paperless billing or pay your bills online please visit www.eaglemountaincity.com	124210	06/10/2020		Single Graph				GAL To	30	7																		84020	0	JUL	JUN	MAY	APR	MAR	FEB	JAN	DEC	NOV	OCT	SEP	AUG		7	6	5	4	3	2	1	12	11	10	9	8	0	12	22	22	27	20	19	13	12	8	9	10	5	0	9	8	9	12	10	10	10	9	8	7	6	1	
120955	025	VILLAGE AT PORTER'S CROSSING O		 VILLAGE AT PORTER'S CROSSING O	c/o HOA WEST	1192 E DRAPER PKWY # 604				DRAPER UT 84020-9356	UT	84020-9356	92	8164-8172 N BOULDER LN /VPC 26A-D	Water			Sewer	Penalty			Garbage Service	Garbage Fuel Charge		Storm Drain	Deployed Abatement	Deposit	Miscellaneous							113.88			183.00							33.00									0	328.80	328.80CR			329.88	329.88	08/08/2022	08/31/2022	07/01/2022	07/31/2022	72						00026						85152322						1						07/20/2022						389						06/20/2022						400						11						GAL							Past Due balances must be paid by 08/15/2022  in order to avoid a $50 fee and disconnection of water service.	If you would like to enroll in paperless billing or pay your bills online please visit www.eaglemountaincity.com	120955	01/23/2019		Single Graph				GAL To	30	7																		84020	0	JUL	JUN	MAY	APR	MAR	FEB	JAN	DEC	NOV	OCT	SEP	AUG		7	6	5	4	3	2	1	12	11	10	9	8	0	11	10	8	8	7	7	8	7	6	5	6	11	0	13	10	10	13	9	9	12	9	17	17	6	8	
120955	021	VILLAGE AT PORTER'S CROSSING O		 VILLAGE AT PORTER'S CROSSING O	c/o HOA WEST	1192 E DRAPER PKWY # 604				DRAPER UT 84020-9356	UT	84020-9356	92	8176-8184 N BOULDER LN /VPC 25A-D	Water			Sewer	Penalty			Garbage Service	Garbage Fuel Charge		Storm Drain	Deployed Abatement	Deposit	Miscellaneous							113.88			183.00							33.00									0	330.96	330.96CR			329.88	329.88	08/08/2022	08/31/2022	07/01/2022	07/31/2022	72						00025						85152327						1						07/20/2022						333						06/20/2022						344						11						GAL							Past Due balances must be paid by 08/15/2022  in order to avoid a $50 fee and disconnection of water service.	If you would like to enroll in paperless billing or pay your bills online please visit www.eaglemountaincity.com	120955	10/11/2018		Single Graph				GAL To	30	7																		84020	0	JUL	JUN	MAY	APR	MAR	FEB	JAN	DEC	NOV	OCT	SEP	AUG		7	6	5	4	3	2	1	12	11	10	9	8	0	11	12	10	13	10	10	11	9	8	4	2	8	0	10	7	3	0	0	1	3	11	11	11	12	14	
120955	015	VILLAGE AT PORTER'S CROSSING O		 VILLAGE AT PORTER'S CROSSING O	c/o HOA WEST	1192 E DRAPER PKWY # 604				DRAPER UT 84020-9356	UT	84020-9356	92	4088-4098 E SUNBURY LN /VPC 15A-D	Water			Sewer	Penalty			Garbage Service	Garbage Fuel Charge		Storm Drain	Deployed Abatement	Deposit	Miscellaneous							114.96			183.00							33.00									0	332.04	332.04CR			330.96	330.96	08/08/2022	08/31/2022	07/01/2022	07/31/2022	36						00015						84812476						1						07/20/2022						528						06/20/2022						540						12						GAL							Past Due balances must be paid by 08/15/2022  in order to avoid a $50 fee and disconnection of water service.	If you would like to enroll in paperless billing or pay your bills online please visit www.eaglemountaincity.com	120955	09/21/2018		Single Graph				GAL To	30	7																		84020	0	JUL	JUN	MAY	APR	MAR	FEB	JAN	DEC	NOV	OCT	SEP	AUG		7	6	5	4	3	2	1	12	11	10	9	8	0	12	13	11	14	12	13	16	14	14	11	15	10	0	12	9	8	11	9	11	15	12	13	19	11	15	
120955	019	VILLAGE AT PORTER'S CROSSING O		 VILLAGE AT PORTER'S CROSSING O	c/o HOA WEST	1192 E DRAPER PKWY # 604				DRAPER UT 84020-9356	UT	84020-9356	92	8171-8177 N BOULDER LN /VPC 21A-C	Water			Sewer	Penalty			Garbage Service	Garbage Fuel Charge		Storm Drain	Deployed Abatement	Deposit	Miscellaneous							86.22			137.25							24.75									0	244.98	244.98CR			248.22	248.22	08/08/2022	08/31/2022	07/01/2022	07/31/2022	72						00021						85152323						1						07/20/2022						539						06/20/2022						548						9						GAL							Past Due balances must be paid by 08/15/2022  in order to avoid a $50 fee and disconnection of water service.	If you would like to enroll in paperless billing or pay your bills online please visit www.eaglemountaincity.com	120955	10/11/2018		Single Graph				GAL To	30	7																		84020	0	JUL	JUN	MAY	APR	MAR	FEB	JAN	DEC	NOV	OCT	SEP	AUG		7	6	5	4	3	2	1	12	11	10	9	8	0	9	6	7	11	9	9	12	9	10	8	8	7	0	9	8	9	16	12	17	16	10	16	20	20	26	
120955	010	VILLAGE AT PORTER'S CROSSING O		 VILLAGE AT PORTER'S CROSSING O	c/o HOA WEST	1192 E DRAPER PKWY # 604				DRAPER UT 84020-9356	UT	84020-9356	92	8177-8187 N CALF CREEK LN /VPC 12A-D	Water			Sewer	Penalty			Garbage Service	Garbage Fuel Charge		Storm Drain	Deployed Abatement	Deposit	Miscellaneous							114.96			183.00							33.00									0	333.12	333.12CR			330.96	330.96	08/08/2022	08/31/2022	07/01/2022	07/31/2022	72						00012						84812538						1						07/20/2022						452						06/20/2022						464						12						GAL							Past Due balances must be paid by 08/15/2022  in order to avoid a $50 fee and disconnection of water service.	If you would like to enroll in paperless billing or pay your bills online please visit www.eaglemountaincity.com	120955	08/17/2018		Single Graph				GAL To	30	7																		84020	0	JUL	JUN	MAY	APR	MAR	FEB	JAN	DEC	NOV	OCT	SEP	AUG		7	6	5	4	3	2	1	12	11	10	9	8	0	12	14	11	11	12	12	15	11	13	12	14	13	0	13	12	9	15	9	9	15	9	13	11	11	13	
120955	009	VILLAGE AT PORTER'S CROSSING O		 VILLAGE AT PORTER'S CROSSING O	c/o HOA WEST	1192 E DRAPER PKWY # 604				DRAPER UT 84020-9356	UT	84020-9356	92	8175 N CALF CREEK LN/ VPC 11A	Water			Sewer	Penalty			Garbage Service	Garbage Fuel Charge		Storm Drain	Deployed Abatement	Deposit	Miscellaneous							26.58			45.75							8.25									0	80.58	80.58CR			80.58	80.58	08/08/2022	08/31/2022	07/01/2022	07/31/2022	72						0011A						84644826						1						07/20/2022						120						06/20/2022						121						1						GAL							Past Due balances must be paid by 08/15/2022  in order to avoid a $50 fee and disconnection of water service.	If you would like to enroll in paperless billing or pay your bills online please visit www.eaglemountaincity.com	120955	08/17/2018		Single Graph				GAL To	30	7																		84020	0	JUL	JUN	MAY	APR	MAR	FEB	JAN	DEC	NOV	OCT	SEP	AUG		7	6	5	4	3	2	1	12	11	10	9	8	0	1	1	0	2	1	2	2	2	2	2	3	2	0	2	2	3	2	2	1	1	1	1	2	4	5	
120955	024	VILLAGE AT PORTER'S CROSSING O		 VILLAGE AT PORTER'S CROSSING O	c/o HOA WEST	1192 E DRAPER PKWY # 604				DRAPER UT 84020-9356	UT	84020-9356	92	8178-8188 N CALF CREEK LN /VPC 17A-D	Water			Sewer	Penalty			Garbage Service	Garbage Fuel Charge		Storm Drain	Deployed Abatement	Deposit	Miscellaneous							116.04			183.00							33.00									0	335.28	335.28CR			332.04	332.04	08/08/2022	08/31/2022	07/01/2022	07/31/2022	36						00017						84812536						1						07/20/2022						450						06/20/2022						463						13						GAL							Past Due balances must be paid by 08/15/2022  in order to avoid a $50 fee and disconnection of water service.	If you would like to enroll in paperless billing or pay your bills online please visit www.eaglemountaincity.com	120955	01/23/2019		Single Graph				GAL To	30	7																		84020	0	JUL	JUN	MAY	APR	MAR	FEB	JAN	DEC	NOV	OCT	SEP	AUG		7	6	5	4	3	2	1	12	11	10	9	8	0	13	16	13	19	14	13	15	10	10	12	15	12	0	12	9	11	11	9	10	13	10	10	12	8	7	
120955	016	VILLAGE AT PORTER'S CROSSING O		 VILLAGE AT PORTER'S CROSSING O	c/o HOA WEST	1192 E DRAPER PKWY # 604				DRAPER UT 84020-9356	UT	84020-9356	92	8176 N CALF CREEK LN/ VPC 18A	Water			Sewer	Penalty			Garbage Service	Garbage Fuel Charge		Storm Drain	Deployed Abatement	Deposit	Miscellaneous							25.50			45.75							8.25									0	80.58	80.58CR			79.50	79.50	08/08/2022	08/31/2022	07/01/2022	07/31/2022	36						00018						84940171						1						07/20/2022						30						06/20/2022						30						0						GAL							Past Due balances must be paid by 08/15/2022  in order to avoid a $50 fee and disconnection of water service.	If you would like to enroll in paperless billing or pay your bills online please visit www.eaglemountaincity.com	120955	09/21/2018		Single Graph				GAL To	30	7																		84020	0	JUL	JUN	MAY	APR	MAR	FEB	JAN	DEC	NOV	OCT	SEP	AUG		7	6	5	4	3	2	1	12	11	10	9	8	0	0	1	1	0	1	0	1	0	1	0	1	1	0	1	1	1	1	0	1	1	0	1	1	0	1	
120955	004	VILLAGE AT PORTER'S CROSSING O		 VILLAGE AT PORTER'S CROSSING O	c/o HOA WEST	1192 E DRAPER PKWY # 604				DRAPER UT 84020-9356	UT	84020-9356	92	8176 N BROKEN SPOKE LN/ VPC 8A	Water			Sewer	Penalty			Garbage Service	Garbage Fuel Charge		Storm Drain	Deployed Abatement	Deposit	Miscellaneous							27.66			45.75							8.25									0	81.66	81.66CR			81.66	81.66	08/08/2022	08/31/2022	07/01/2022	07/31/2022	72						00000						84812475						1						07/20/2022						64						06/20/2022						66						2						GAL							Past Due balances must be paid by 08/15/2022  in order to avoid a $50 fee and disconnection of water service.	If you would like to enroll in paperless billing or pay your bills online please visit www.eaglemountaincity.com	120955	06/29/2018		Single Graph				GAL To	30	7																		84020	0	JUL	JUN	MAY	APR	MAR	FEB	JAN	DEC	NOV	OCT	SEP	AUG		7	6	5	4	3	2	1	12	11	10	9	8	0	2	2	2	2	1	1	2	2	1	1	1	2	0	1	2	1	1	1	2	2	0	2	1	2	2	
120955	002	VILLAGE AT PORTER'S CROSSING O		 VILLAGE AT PORTER'S CROSSING O	c/o HOA WEST	1192 E DRAPER PKWY # 604				DRAPER UT 84020-9356	UT	84020-9356	92	8164-8172 N BROKEN SPOKE LN /VPC 9A-D	Water			Sewer	Penalty			Garbage Service	Garbage Fuel Charge		Storm Drain	Deployed Abatement	Deposit	Miscellaneous							111.72			183.00							33.00									0	328.80	328.80CR			327.72	327.72	08/08/2022	08/31/2022	07/01/2022	07/31/2022	36						00009						84812473						1						07/20/2022						574						06/20/2022						583						9						GAL							Past Due balances must be paid by 08/15/2022  in order to avoid a $50 fee and disconnection of water service.	If you would like to enroll in paperless billing or pay your bills online please visit www.eaglemountaincity.com	120955	07/01/2018		Single Graph				GAL To	30	7																		84020	0	JUL	JUN	MAY	APR	MAR	FEB	JAN	DEC	NOV	OCT	SEP	AUG		7	6	5	4	3	2	1	12	11	10	9	8	0	9	10	9	13	9	10	15	12	12	8	15	13	0	12	14	7	7	4	2	7	11	14	14	12	15	
120955	022	VILLAGE AT PORTER'S CROSSING O		 VILLAGE AT PORTER'S CROSSING O	c/o HOA WEST	1192 E DRAPER PKWY # 604				DRAPER UT 84020-9356	UT	84020-9356	92	8159-8169 N BOULDER LN /VPC 20A-D	Water			Sewer	Penalty			Garbage Service	Garbage Fuel Charge		Storm Drain	Deployed Abatement	Deposit	Miscellaneous							114.96			183.00							33.00									0	334.20	334.20CR			330.96	330.96	08/08/2022	08/31/2022	07/01/2022	07/31/2022	72						00020						85152348						1						07/20/2022						704						06/20/2022						716						12						GAL							Past Due balances must be paid by 08/15/2022  in order to avoid a $50 fee and disconnection of water service.	If you would like to enroll in paperless billing or pay your bills online please visit www.eaglemountaincity.com	120955	10/11/2018		Single Graph				GAL To	30	7																		84020	0	JUL	JUN	MAY	APR	MAR	FEB	JAN	DEC	NOV	OCT	SEP	AUG		7	6	5	4	3	2	1	12	11	10	9	8	0	12	15	12	17	14	14	19	13	10	16	18	12	0	17	14	16	20	17	19	26	20	22	26	26	34	
120955	014	VILLAGE AT PORTER'S CROSSING O		 VILLAGE AT PORTER'S CROSSING O	c/o HOA WEST	1192 E DRAPER PKWY # 604				DRAPER UT 84020-9356	UT	84020-9356	92	4040-4048 E SUNBURY LN /VPC 6A-D	Water			Sewer	Penalty			Garbage Service	Garbage Fuel Charge		Storm Drain	Deployed Abatement	Deposit	Miscellaneous							114.96			183.00							33.00									0	330.96	330.96CR			330.96	330.96	08/08/2022	08/31/2022	07/01/2022	07/31/2022	72						00006						84940174						1						07/19/2022						380						06/20/2022						392						12						GAL							Past Due balances must be paid by 08/15/2022  in order to avoid a $50 fee and disconnection of water service.	If you would like to enroll in paperless billing or pay your bills online please visit www.eaglemountaincity.com	120955	09/21/2018		Single Graph				GAL To	30	7																		84020	0	JUL	JUN	MAY	APR	MAR	FEB	JAN	DEC	NOV	OCT	SEP	AUG		7	6	5	4	3	2	1	12	11	10	9	8	0	12	12	10	13	12	10	13	10	14	12	11	5	0	6	5	6	5	4	5	6	5	5	6	5	9	
120955	013	VILLAGE AT PORTER'S CROSSING O		 VILLAGE AT PORTER'S CROSSING O	c/o HOA WEST	1192 E DRAPER PKWY # 604				DRAPER UT 84020-9356	UT	84020-9356	92	4028-4038 E SUNBURY LN /VPC 5A-D	Water			Sewer	Penalty			Garbage Service	Garbage Fuel Charge		Storm Drain	Deployed Abatement	Deposit	Miscellaneous							110.64			183.00							33.00									0	328.80	328.80CR			326.64	326.64	08/08/2022	08/31/2022	07/01/2022	07/31/2022	72						00005						84940172						1						07/19/2022						472						06/20/2022						480						8						GAL							Past Due balances must be paid by 08/15/2022  in order to avoid a $50 fee and disconnection of water service.	If you would like to enroll in paperless billing or pay your bills online please visit www.eaglemountaincity.com	120955	09/21/2018		Single Graph				GAL To	30	7																		84020	0	JUL	JUN	MAY	APR	MAR	FEB	JAN	DEC	NOV	OCT	SEP	AUG		7	6	5	4	3	2	1	12	11	10	9	8	0	8	10	9	10	9	8	9	7	9	7	8	3	0	5	10	11	13	9	11	15	12	14	14	11	13	
120955	018	VILLAGE AT PORTER'S CROSSING O		 VILLAGE AT PORTER'S CROSSING O	c/o HOA WEST	1192 E DRAPER PKWY # 604				DRAPER UT 84020-9356	UT	84020-9356	92	8198-8208 N BOULDER LN /VPC 23A-D	Water			Sewer	Penalty			Garbage Service	Garbage Fuel Charge		Storm Drain	Deployed Abatement	Deposit	Miscellaneous							117.12			183.00							33.00									0	332.04	332.04CR			333.12	333.12	08/08/2022	08/31/2022	07/01/2022	07/31/2022	72						00023						85152325						1						07/20/2022						472						06/20/2022						486						14						GAL							Past Due balances must be paid by 08/15/2022  in order to avoid a $50 fee and disconnection of water service.	If you would like to enroll in paperless billing or pay your bills online please visit www.eaglemountaincity.com	120955	09/21/2018		Single Graph				GAL To	30	7																		84020	0	JUL	JUN	MAY	APR	MAR	FEB	JAN	DEC	NOV	OCT	SEP	AUG		7	6	5	4	3	2	1	12	11	10	9	8	0	14	13	12	15	13	12	15	13	16	12	15	13	0	13	11	13	15	10	10	14	11	12	12	10	7	
120955	023	VILLAGE AT PORTER'S CROSSING O		 VILLAGE AT PORTER'S CROSSING O	c/o HOA WEST	1192 E DRAPER PKWY # 604				DRAPER UT 84020-9356	UT	84020-9356	92	4102-4110 E SUNBURY LN /VPC 16A-D	Water			Sewer	Penalty			Garbage Service	Garbage Fuel Charge		Storm Drain	Deployed Abatement	Deposit	Miscellaneous							109.56			183.00							33.00									0	329.88	329.88CR			325.56	325.56	08/08/2022	08/31/2022	07/01/2022	07/31/2022	36						00016						84940173						1						07/20/2022						362						06/20/2022						369						7						GAL							Past Due balances must be paid by 08/15/2022  in order to avoid a $50 fee and disconnection of water service.	If you would like to enroll in paperless billing or pay your bills online please visit www.eaglemountaincity.com	120955	01/23/2019		Single Graph				GAL To	30	7																		84020	0	JUL	JUN	MAY	APR	MAR	FEB	JAN	DEC	NOV	OCT	SEP	AUG		7	6	5	4	3	2	1	12	11	10	9	8	0	7	11	11	13	12	10	11	7	8	7	10	8	0	9	6	5	10	7	8	9	10	10	11	11	12	
120955	007	VILLAGE AT PORTER'S CROSSING O		 VILLAGE AT PORTER'S CROSSING O	c/o HOA WEST	1192 E DRAPER PKWY # 604				DRAPER UT 84020-9356	UT	84020-9356	92	4061 E SUNBURY LN/ VPC CLUBHOUSE	Water			Sewer	Penalty			Garbage Service	Garbage Fuel Charge		Storm Drain	Deployed Abatement	Deposit	Miscellaneous							25.50			45.75							8.25									0	79.50	79.50CR			79.50	79.50	08/08/2022	08/31/2022	07/01/2022	07/31/2022	72						36000						84812482						1						07/20/2022						5						06/20/2022						5						0						GAL							Past Due balances must be paid by 08/15/2022  in order to avoid a $50 fee and disconnection of water service.	If you would like to enroll in paperless billing or pay your bills online please visit www.eaglemountaincity.com	120955	08/17/2018		Single Graph				GAL To	30	7																		84020	0	JUL	JUN	MAY	APR	MAR	FEB	JAN	DEC	NOV	OCT	SEP	AUG		7	6	5	4	3	2	1	12	11	10	9	8	0	0	0	1	0	0	0	0	0	0	0	0	0	0	0	0	0	0	1	0	0	0	0	0	0	1	
120955	003	VILLAGE AT PORTER'S CROSSING O		 VILLAGE AT PORTER'S CROSSING O	c/o HOA WEST	1192 E DRAPER PKWY # 604				DRAPER UT 84020-9356	UT	84020-9356	92	8178-8188 N BROKEN SPOKE LN /VPC 7A-D	Water			Sewer	Penalty			Garbage Service	Garbage Fuel Charge		Storm Drain	Deployed Abatement	Deposit	Miscellaneous							111.72			183.00							33.00									0	326.64	326.64CR			327.72	327.72	08/08/2022	08/31/2022	07/01/2022	07/31/2022	72						00000						84812474						1						07/19/2022						422						06/20/2022						431						9						GAL							Past Due balances must be paid by 08/15/2022  in order to avoid a $50 fee and disconnection of water service.	If you would like to enroll in paperless billing or pay your bills online please visit www.eaglemountaincity.com	120955	06/29/2018		Single Graph				GAL To	30	7																		84020	0	JUL	JUN	MAY	APR	MAR	FEB	JAN	DEC	NOV	OCT	SEP	AUG		7	6	5	4	3	2	1	12	11	10	9	8	0	9	8	8	11	11	11	14	11	12	10	13	10	0	11	11	11	13	10	11	14	11	12	7	5	6	
120955	026	VILLAGE AT PORTER'S CROSSING O		 VILLAGE AT PORTER'S CROSSING O	c/o HOA WEST	1192 E DRAPER PKWY # 604				DRAPER UT 84020-9356	UT	84020-9356	92	8156-8162 N BOULDER LN /VPC 27A-C	Water			Sewer	Penalty			Garbage Service	Garbage Fuel Charge		Storm Drain	Deployed Abatement	Deposit	Miscellaneous							84.06			137.25							24.75									0	247.14	247.14CR			246.06	246.06	08/08/2022	08/31/2022	07/01/2022	07/31/2022	72						00027						85152324						1						07/20/2022						357						06/20/2022						364						7						GAL							Past Due balances must be paid by 08/15/2022  in order to avoid a $50 fee and disconnection of water service.	If you would like to enroll in paperless billing or pay your bills online please visit www.eaglemountaincity.com	120955	01/23/2019		Single Graph				GAL To	30	7																		84020	0	JUL	JUN	MAY	APR	MAR	FEB	JAN	DEC	NOV	OCT	SEP	AUG		7	6	5	4	3	2	1	12	11	10	9	8	0	7	8	8	9	8	8	9	7	8	7	9	7	0	8	8	8	8	8	7	7	6	6	6	9	11	
120955	001	VILLAGE AT PORTER'S CROSSING O		 VILLAGE AT PORTER'S CROSSING O	c/o HOA WEST	1192 E DRAPER PKWY # 604				DRAPER UT 84020-9356	UT	84020-9356	92	8181-8187 N BROKEN SPOKE LN /VPC 2A-C	Water			Sewer	Penalty			Garbage Service	Garbage Fuel Charge		Storm Drain	Deployed Abatement	Deposit	Miscellaneous							87.30			137.25							24.75									0	244.98	244.98CR			249.30	249.30	08/08/2022	08/31/2022	07/01/2022	07/31/2022	36						00002						82997856						1						07/19/2022						472						06/20/2022						482						10						GAL							Past Due balances must be paid by 08/15/2022  in order to avoid a $50 fee and disconnection of water service.	If you would like to enroll in paperless billing or pay your bills online please visit www.eaglemountaincity.com	120955	07/01/2018		Single Graph				GAL To	30	7																		84020	0	JUL	JUN	MAY	APR	MAR	FEB	JAN	DEC	NOV	OCT	SEP	AUG		7	6	5	4	3	2	1	12	11	10	9	8	0	10	6	3	10	8	8	11	9	9	7	7	6	0	7	6	6	10	5	7	7	9	6	7	7	14	
120955	011	VILLAGE AT PORTER'S CROSSING O		 VILLAGE AT PORTER'S CROSSING O	c/o HOA WEST	1192 E DRAPER PKWY # 604				DRAPER UT 84020-9356	UT	84020-9356	92	4066-4076 E SUNBURY LN /VPC 13A-D	Water			Sewer	Penalty			Garbage Service	Garbage Fuel Charge		Storm Drain	Deployed Abatement	Deposit	Miscellaneous							114.96			183.00							33.00									0	334.20	334.20CR			330.96	330.96	08/08/2022	08/31/2022	07/01/2022	07/31/2022	72						00013						84812535						1						07/20/2022						608						06/20/2022						620						12						GAL							Past Due balances must be paid by 08/15/2022  in order to avoid a $50 fee and disconnection of water service.	If you would like to enroll in paperless billing or pay your bills online please visit www.eaglemountaincity.com	120955	08/31/2018		Single Graph				GAL To	30	7																		84020	0	JUL	JUN	MAY	APR	MAR	FEB	JAN	DEC	NOV	OCT	SEP	AUG		7	6	5	4	3	2	1	12	11	10	9	8	0	12	15	17	18	14	10	17	14	15	16	18	17	0	19	17	14	17	13	16	21	16	15	13	12	16	
120955	012	VILLAGE AT PORTER'S CROSSING O		 VILLAGE AT PORTER'S CROSSING O	c/o HOA WEST	1192 E DRAPER PKWY # 604				DRAPER UT 84020-9356	UT	84020-9356	92	4078-4086 E SUNBURY LN /VPC 14A-D	Water			Sewer	Penalty			Garbage Service	Garbage Fuel Charge		Storm Drain	Deployed Abatement	Deposit	Miscellaneous							117.12			183.00							33.00									0	337.44	337.44CR			333.12	333.12	08/08/2022	08/31/2022	07/01/2022	07/31/2022	72						00014						84812537						1						07/20/2022						534						06/20/2022						548						14						GAL							Past Due balances must be paid by 08/15/2022  in order to avoid a $50 fee and disconnection of water service.	If you would like to enroll in paperless billing or pay your bills online please visit www.eaglemountaincity.com	120955	08/31/2018		Single Graph				GAL To	30	7																		84020	0	JUL	JUN	MAY	APR	MAR	FEB	JAN	DEC	NOV	OCT	SEP	AUG		7	6	5	4	3	2	1	12	11	10	9	8	0	14	18	14	16	11	11	13	9	10	12	15	13	0	14	13	13	15	13	13	18	15	15	16	14	12	
120955	006	VILLAGE AT PORTER'S CROSSING O		 VILLAGE AT PORTER'S CROSSING O	c/o HOA WEST	1192 E DRAPER PKWY # 604				DRAPER UT 84020-9356	UT	84020-9356	92	4024-4026 E SUNBURY LN/ VPC 4A-B	Water			Sewer	Penalty			Garbage Service	Garbage Fuel Charge		Storm Drain	Deployed Abatement	Deposit	Miscellaneous							57.48			91.50							16.50									0	164.40	164.40CR			165.48	165.48	08/08/2022	08/31/2022	07/01/2022	07/31/2022	72						00004						82997854						1						07/19/2022						311						06/20/2022						317						6						GAL							Past Due balances must be paid by 08/15/2022  in order to avoid a $50 fee and disconnection of water service.	If you would like to enroll in paperless billing or pay your bills online please visit www.eaglemountaincity.com	120955	08/31/2018		Single Graph				GAL To	30	7																		84020	0	JUL	JUN	MAY	APR	MAR	FEB	JAN	DEC	NOV	OCT	SEP	AUG		7	6	5	4	3	2	1	12	11	10	9	8	0	6	5	5	7	4	7	7	6	7	7	5	8	0	7	9	8	11	9	8	12	7	5	6	6	5	
120955	008	VILLAGE AT PORTER'S CROSSING O		 VILLAGE AT PORTER'S CROSSING O	c/o HOA WEST	1192 E DRAPER PKWY # 604				DRAPER UT 84020-9356	UT	84020-9356	92	8163-8171  N CALF CREEK LN /VPC 10A-D	Water			Sewer	Penalty			Garbage Service	Garbage Fuel Charge		Storm Drain	Deployed Abatement	Deposit	Miscellaneous							105.24			183.00							33.00									0	326.64	326.64CR			321.24	321.24	08/08/2022	08/31/2022	07/01/2022	07/31/2022	72						00010						84812479						1						07/20/2022						477						06/20/2022						480						3						GAL							Past Due balances must be paid by 08/15/2022  in order to avoid a $50 fee and disconnection of water service.	If you would like to enroll in paperless billing or pay your bills online please visit www.eaglemountaincity.com	120955	08/15/2018		Single Graph				GAL To	30	7																		84020	0	JUL	JUN	MAY	APR	MAR	FEB	JAN	DEC	NOV	OCT	SEP	AUG		7	6	5	4	3	2	1	12	11	10	9	8	0	3	8	12	15	11	11	12	10	10	9	12	12	0	14	12	12	13	12	13	17	12	10	10	10	13	
120955	000	VILLAGE AT PORTER'S CROSSING O		 VILLAGE AT PORTER'S CROSSING O	c/o HOA WEST	1192 E DRAPER PKWY # 604				DRAPER UT 84020-9356	UT	84020-9356	92	8169-8177 N BROKEN SPOKE LN /VPC 1A-D	Water			Sewer	Penalty			Garbage Service	Garbage Fuel Charge		Storm Drain	Deployed Abatement	Deposit	Miscellaneous							108.48			183.00							33.00									0	325.56	325.56CR			324.48	324.48	08/08/2022	08/31/2022	07/01/2022	07/31/2022	36						00001						80112527						1						07/19/2022						351						06/20/2022						357						6						GAL							Past Due balances must be paid by 08/15/2022  in order to avoid a $50 fee and disconnection of water service.	If you would like to enroll in paperless billing or pay your bills online please visit www.eaglemountaincity.com	120955	07/01/2018		Single Graph				GAL To	30	7																		84020	0	JUL	JUN	MAY	APR	MAR	FEB	JAN	DEC	NOV	OCT	SEP	AUG		7	6	5	4	3	2	1	12	11	10	9	8	0	6	7	7	8	7	7	8	8	12	7	7	6	0	8	8	7	7	6	8	7	8	8	8	4	5	
120955	017	VILLAGE AT PORTER'S CROSSING O		 VILLAGE AT PORTER'S CROSSING O	c/o HOA WEST	1192 E DRAPER PKWY # 604				DRAPER UT 84020-9356	UT	84020-9356	92	8164-8172 N CALF CREEK LN /VPC 19A-D	Water			Sewer	Penalty			Garbage Service	Garbage Fuel Charge		Storm Drain	Deployed Abatement	Deposit	Miscellaneous							113.88			183.00							33.00									0	332.04	332.04CR			329.88	329.88	08/08/2022	08/31/2022	07/01/2022	07/31/2022	36						00019						82997855						1						07/19/2022						322						06/20/2022						333						11						GAL							Past Due balances must be paid by 08/15/2022  in order to avoid a $50 fee and disconnection of water service.	If you would like to enroll in paperless billing or pay your bills online please visit www.eaglemountaincity.com	120955	09/21/2018		Single Graph				GAL To	30	7																		84020	0	JUL	JUN	MAY	APR	MAR	FEB	JAN	DEC	NOV	OCT	SEP	AUG		7	6	5	4	3	2	1	12	11	10	9	8	0	11	13	11	13	11	10	13	8	9	6	5	12	0	16	12	6	4	1	2	4	9	10	9	7	9	
120955	005	VILLAGE AT PORTER'S CROSSING O		 VILLAGE AT PORTER'S CROSSING O	c/o HOA WEST	1192 E DRAPER PKWY # 604				DRAPER UT 84020-9356	UT	84020-9356	92	4010-4020 E SUNBURY LN /VPC 3A-D	Water			Sewer	Penalty			Garbage Service	Garbage Fuel Charge		Storm Drain	Deployed Abatement	Deposit	Miscellaneous							117.12			183.00							33.00									0	334.20	334.20CR			333.12	333.12	08/08/2022	08/31/2022	07/01/2022	07/31/2022	72						00003						84940170						1						07/19/2022						536						06/20/2022						550						14						GAL							Past Due balances must be paid by 08/15/2022  in order to avoid a $50 fee and disconnection of water service.	If you would like to enroll in paperless billing or pay your bills online please visit www.eaglemountaincity.com	120955	08/31/2018		Single Graph				GAL To	30	7																		84020	0	JUL	JUN	MAY	APR	MAR	FEB	JAN	DEC	NOV	OCT	SEP	AUG		7	6	5	4	3	2	1	12	11	10	9	8	0	14	15	14	15	15	14	17	13	14	14	15	15	0	15	15	12	18	13	13	14	10	8	8	8	9	
120955	020	VILLAGE AT PORTER'S CROSSING O		 VILLAGE AT PORTER'S CROSSING O	c/o HOA WEST	1192 E DRAPER PKWY # 604				DRAPER UT 84020-9356	UT	84020-9356	92	8179-8187 N BOULDER LN /VPC 22A-D	Water			Sewer	Penalty			Garbage Service	Garbage Fuel Charge		Storm Drain	Deployed Abatement	Deposit	Miscellaneous							117.12			183.00							33.00									0	337.44	337.44CR			333.12	333.12	08/08/2022	08/31/2022	07/01/2022	07/31/2022	72						00022						85152351						1						07/20/2022						678						06/20/2022						692						14						GAL							Past Due balances must be paid by 08/15/2022  in order to avoid a $50 fee and disconnection of water service.	If you would like to enroll in paperless billing or pay your bills online please visit www.eaglemountaincity.com	120955	10/11/2018		Single Graph				GAL To	30	7																		84020	0	JUL	JUN	MAY	APR	MAR	FEB	JAN	DEC	NOV	OCT	SEP	AUG		7	6	5	4	3	2	1	12	11	10	9	8	0	14	18	18	22	18	18	22	18	19	19	21	17	0	20	18	17	22	17	21	26	22	26	27	23	25	
120774	001	DUBLIN FARMS		 DUBLIN FARMS		1192 E DRAPER PKWY STE 604				DRAPER UT 84020-9356	UT	84020-9356	92	8186 N MARYANN RD/ DBF LNDSCP	Water			Sewer	Penalty			Garbage Service	Garbage Fuel Charge		Storm Drain	Deployed Abatement	Deposit	Miscellaneous							1,082.82																			0	1091.46	1091.46CR			1082.82	1082.82	08/08/2022	08/31/2022	07/01/2022	07/31/2022	72						LNDSP						91196151						1						07/20/2022						6369						06/20/2022						7348						979						GAL							Past Due balances must be paid by 08/15/2022  in order to avoid a $50 fee and disconnection of water service.	If you would like to enroll in paperless billing or pay your bills online please visit www.eaglemountaincity.com	120774	05/07/2020		Single Graph				GAL To	30	7																		84020	0	JUL	JUN	MAY	APR	MAR	FEB	JAN	DEC	NOV	OCT	SEP	AUG		7	6	5	4	3	2	1	12	11	10	9	8	0	979	987	244	5	0	0	0	0	0	276	691	869	0	845	865	428	248	22	0	0	26	62	109	88	133	
120774	000	DUBLIN FARMS		 DUBLIN FARMS		1192 E DRAPER PKWY STE 604				DRAPER UT 84020-9356	UT	84020-9356	92	4348 E OCONNELL LN/ DBF LNDSCP	Water			Sewer	Penalty			Garbage Service	Garbage Fuel Charge		Storm Drain	Deployed Abatement	Deposit	Miscellaneous							445.62																			0	176.70	176.70CR			445.62	445.62	08/08/2022	08/31/2022	07/01/2022	07/31/2022	02						LNDSP						90962698						1						07/20/2022						3961						06/20/2022						4350						389						GAL							Past Due balances must be paid by 08/15/2022  in order to avoid a $50 fee and disconnection of water service.	If you would like to enroll in paperless billing or pay your bills online please visit www.eaglemountaincity.com	120774	08/13/2019		Single Graph				GAL To	30	7																		84020	0	JUL	JUN	MAY	APR	MAR	FEB	JAN	DEC	NOV	OCT	SEP	AUG		7	6	5	4	3	2	1	12	11	10	9	8	0	389	140	0	0	0	0	0	0	0	0	0	7252	0	461	179	0	0	0	0	0	0	15	285	447	727	
130490	000	ZELLER	JENNIFER	JENNIFER ZELLER		1603 W 630 N				LINDON UT 84042-2082	UT	84042-2082	03	4850 E LAKE CORNER DR/ SL 2426	Water			Sewer	Penalty			Garbage Service	Garbage Fuel Charge		Storm Drain	Deployed Abatement	Deposit	Miscellaneous							29.82			45.75				9.50			8.25									0	89.00	0.00CR			93.32	182.32	08/08/2022	08/31/2022	07/01/2022	07/31/2022	53						02426						92076006						1						07/19/2022						0						06/20/2022						4						4						GAL							Past Due balances must be paid by 08/15/2022  in order to avoid a $50 fee and disconnection of water service.	If you would like to enroll in paperless billing or pay your bills online please visit www.eaglemountaincity.com	130490	04/27/2022	89.00	Single Graph				GAL To	31	7																		84042	0	JUL	JUN	MAY	APR	MAR	FEB	JAN	DEC	NOV	OCT	SEP	AUG		7	6	5	4	3	2	1	12	11	10	9	8	0	4	0	0	0	0	0	0	0	0	0	0	0	0	0	0	0	0	0	0	0	0	0	0	0	0	
130490	001	ZELLER	JENNIFER	JENNIFER ZELLER		1603 W 630 N				LINDON UT 84042-2082	UT	84042-2082	03	4852 E LAKE CORNER DR/ SL 2427	Water			Sewer	Penalty			Garbage Service	Garbage Fuel Charge		Storm Drain	Deployed Abatement	Deposit	Miscellaneous							34.14			45.75				9.50			8.25									0	89.00	0.00CR			97.64	186.64	08/08/2022	08/31/2022	07/01/2022	07/31/2022	53						02427						92076002						1						07/18/2022						0						06/20/2022						8						8						GAL							Past Due balances must be paid by 08/15/2022  in order to avoid a $50 fee and disconnection of water service.	If you would like to enroll in paperless billing or pay your bills online please visit www.eaglemountaincity.com	130490	04/27/2022	89.00	Single Graph				GAL To	31	7																		84042	0	JUL	JUN	MAY	APR	MAR	FEB	JAN	DEC	NOV	OCT	SEP	AUG		7	6	5	4	3	2	1	12	11	10	9	8	0	8	0	0	0	0	0	0	0	0	0	0	0	0	0	0	0	0	0	0	0	0	0	0	0	0	
006838	002	COLD SPRINGS HOA*		 COLD SPRINGS HOA*		PO BOX 179				LEHI UT 84043-0179	UT	84043-0179	79	7950 E DUNDEE DR/ HOA NE	Water			Sewer	Penalty			Garbage Service	Garbage Fuel Charge		Storm Drain	Deployed Abatement	Deposit	Miscellaneous							589.44																			0	416.52	416.52CR			589.44	589.44	08/08/2022	08/31/2022	07/01/2022	07/31/2022	45						00246						19571041						1						07/18/2022						43245						06/17/2022						43767						522						GAL							Past Due balances must be paid by 08/15/2022  in order to avoid a $50 fee and disconnection of water service.	If you would like to enroll in paperless billing or pay your bills online please visit www.eaglemountaincity.com	6838	04/20/2004		Single Graph				GAL To	30	7																		84043	0	JUL	JUN	MAY	APR	MAR	FEB	JAN	DEC	NOV	OCT	SEP	AUG		7	6	5	4	3	2	1	12	11	10	9	8	0	522	362	11	0	0	0	0	0	0	37	53	431	0	667	421	338	0	0	0	0	0	116	394	583	647	
006838	004	COLD SPRINGS HOA*		 COLD SPRINGS HOA*		PO BOX 179				LEHI UT 84043-0179	UT	84043-0179	79	7961 N WYCLIFFE WAY/ ROUND ABOUT	Water			Sewer	Penalty			Garbage Service	Garbage Fuel Charge		Storm Drain	Deployed Abatement	Deposit	Miscellaneous							330.71																			0	323.69	323.69CR	15.00		330.71	345.71	08/08/2022	08/31/2022	07/01/2022	07/31/2022	45						40000						47011442						1						07/20/2022						11539						06/20/2022						11822						282						GAL							Past Due balances must be paid by 08/15/2022  in order to avoid a $50 fee and disconnection of water service.	If you would like to enroll in paperless billing or pay your bills online please visit www.eaglemountaincity.com	6838	04/05/2002	15.00	Single Graph				GAL To	30	7																		84043	0	JUL	JUN	MAY	APR	MAR	FEB	JAN	DEC	NOV	OCT	SEP	AUG		7	6	5	4	3	2	1	12	11	10	9	8	0	282	276	47	7	0	0	0	0	0	160	259	200	0	388	291	222	0	0	0	0	0	0	1	356	424	
006838	003	COLD SPRINGS HOA*		 COLD SPRINGS HOA*		PO BOX 179				LEHI UT 84043-0179	UT	84043-0179	79	COLD SPRINGS PARK	Water			Sewer	Penalty			Garbage Service	Garbage Fuel Charge		Storm Drain	Deployed Abatement	Deposit	Miscellaneous							25.50																			0	25.50	25.50CR			25.50	25.50	08/08/2022	08/31/2022	07/01/2022	07/31/2022	02						20000						35310835						1						07/20/2022						131						06/20/2022						130						0						GAL							Past Due balances must be paid by 08/15/2022  in order to avoid a $50 fee and disconnection of water service.	If you would like to enroll in paperless billing or pay your bills online please visit www.eaglemountaincity.com	6838	04/11/2002		Single Graph				GAL To	30	7																		84043	0	JUL	JUN	MAY	APR	MAR	FEB	JAN	DEC	NOV	OCT	SEP	AUG		7	6	5	4	3	2	1	12	11	10	9	8	0	0	0	0	0	0	0	0	0	0	0	0	14	0	0	0	0	0	0	0	0	0	0	0	0	0	
105563	002	ROCK CREEK HOA		 ROCK CREEK HOA		PO BOX 179				LEHI UT 84043-0179	UT	84043-0179	79	3531 E ROCK CREEK RD/ RC C	Water			Sewer	Penalty			Garbage Service	Garbage Fuel Charge		Storm Drain	Deployed Abatement	Deposit	Miscellaneous							306.00			549.00							107.25									0	1412.91	0.00CR	15.00		962.25	2390.16	08/08/2022	08/31/2022	07/01/2022	07/31/2022																			0												0												0						0													Past Due balances must be paid by 08/15/2022  in order to avoid a $50 fee and disconnection of water service.	If you would like to enroll in paperless billing or pay your bills online please visit www.eaglemountaincity.com	105563	07/18/2008	1427.91	Single Graph				GAL To	30	7																		84043	0	JUL	JUN	MAY	APR	MAR	FEB	JAN	DEC	NOV	OCT	SEP	AUG		7	6	5	4	3	2	1	12	11	10	9	8	0	0	378	0	0	0	0	30	102	0	51	116	303	0	0	43	179	50	39	50	30	40	49	173	239	208	
105563	014	ROCK CREEK HOA		 ROCK CREEK HOA		PO BOX 179				LEHI UT 84043-0179	UT	84043-0179	79	3661 E ROCK CREEK RD/ RC M	Water			Sewer	Penalty			Garbage Service	Garbage Fuel Charge		Storm Drain	Deployed Abatement	Deposit	Miscellaneous							432.80			549.00							107.25									0	2124.76	0.00CR	65.00		1089.05	3278.81	08/08/2022	08/31/2022	07/01/2022	07/31/2022	46						12345						35712967						2						07/20/2022						11635						06/20/2022						11750						114						Kilowatt							Past Due balances must be paid by 08/15/2022  in order to avoid a $50 fee and disconnection of water service.	If you would like to enroll in paperless billing or pay your bills online please visit www.eaglemountaincity.com	105563	01/10/2011	2189.76	Single Graph				GAL To	30	7																		84043	0	JUL	JUN	MAY	APR	MAR	FEB	JAN	DEC	NOV	OCT	SEP	AUG		7	6	5	4	3	2	1	12	11	10	9	8	0	114	118	49	44	34	41	44	35	37	54	86	72	0	77	92	96	63	26	34	49	37	59	105	112	130	
105563	013	ROCK CREEK HOA		 ROCK CREEK HOA		PO BOX 179				LEHI UT 84043-0179	UT	84043-0179	79	3635 E CLEAR ROCK RD/ RC L	Water			Sewer	Penalty			Garbage Service	Garbage Fuel Charge		Storm Drain	Deployed Abatement	Deposit	Miscellaneous							306.00			549.00							107.25									0	2157.04	0.00CR	65.00		962.25	3184.29	08/08/2022	08/31/2022	07/01/2022	07/31/2022																			0												0												0						0													Past Due balances must be paid by 08/15/2022  in order to avoid a $50 fee and disconnection of water service.	If you would like to enroll in paperless billing or pay your bills online please visit www.eaglemountaincity.com	105563	10/21/2010	2222.04	Single Graph				GAL To	30	7																		84043	0	JUL	JUN	MAY	APR	MAR	FEB	JAN	DEC	NOV	OCT	SEP	AUG		7	6	5	4	3	2	1	12	11	10	9	8	0	0	190	0	104	0	48	42	72	0	41	92	162	0	0	100	90	30	39	10	42	40	48	130	150	147	
105563	010	ROCK CREEK HOA		 ROCK CREEK HOA		PO BOX 179				LEHI UT 84043-0179	UT	84043-0179	79	3555 E ROCK CREEK RD/ RC A	Water			Sewer	Penalty			Garbage Service	Garbage Fuel Charge		Storm Drain	Deployed Abatement	Deposit	Miscellaneous							306.00			549.00							107.25									0	2064.36	0.00CR	65.00		962.25	3091.61	08/08/2022	08/31/2022	07/01/2022	07/31/2022																			0												0												0						0													Past Due balances must be paid by 08/15/2022  in order to avoid a $50 fee and disconnection of water service.	If you would like to enroll in paperless billing or pay your bills online please visit www.eaglemountaincity.com	105563	12/05/2008	2129.36	Single Graph				GAL To	30	7																		84043	0	JUL	JUN	MAY	APR	MAR	FEB	JAN	DEC	NOV	OCT	SEP	AUG		7	6	5	4	3	2	1	12	11	10	9	8	0	0	113	0	47	0	26	27	30	20	29	50	91	0	0	62	56	34	17	20	27	21	30	70	74	86	
105563	008	ROCK CREEK HOA		 ROCK CREEK HOA		PO BOX 179				LEHI UT 84043-0179	UT	84043-0179	79	3543 E ROCK CREEK RD/ RC B	Water			Sewer	Penalty			Garbage Service	Garbage Fuel Charge		Storm Drain	Deployed Abatement	Deposit	Miscellaneous							408.47			549.00							107.25									0	2106.65	0.00CR	65.00		1064.72	3236.37	08/08/2022	08/31/2022	07/01/2022	07/31/2022	46						00001						29452984						2						07/19/2022						15849						06/17/2022						15942						93						Kilowatt							Past Due balances must be paid by 08/15/2022  in order to avoid a $50 fee and disconnection of water service.	If you would like to enroll in paperless billing or pay your bills online please visit www.eaglemountaincity.com	105563	07/18/2008	2171.65	Single Graph				GAL To	30	7																		84043	0	JUL	JUN	MAY	APR	MAR	FEB	JAN	DEC	NOV	OCT	SEP	AUG		7	6	5	4	3	2	1	12	11	10	9	8	0	93	96	56	46	68	48	48	48	47	47	68	64	0	88	167	147	66	38	37	331	97	111	143	137	190	
105563	016	ROCK CREEK HOA		 ROCK CREEK HOA		PO BOX 179				LEHI UT 84043-0179	UT	84043-0179	79	3689 E ROCK CREEK RD/ RC N	Water			Sewer	Penalty			Garbage Service	Garbage Fuel Charge		Storm Drain	Deployed Abatement	Deposit	Miscellaneous							392.78			549.00							99.00									0	2061.26	0.00CR	65.00		1040.78	3167.04	08/08/2022	08/31/2022	07/01/2022	07/31/2022	46						0000N						40515371						1						07/19/2022						10853						06/20/2022						10932						79						GAL							Past Due balances must be paid by 08/15/2022  in order to avoid a $50 fee and disconnection of water service.	If you would like to enroll in paperless billing or pay your bills online please visit www.eaglemountaincity.com	105563	09/11/2012	2126.26	Single Graph				GAL To	30	7																		84043	0	JUL	JUN	MAY	APR	MAR	FEB	JAN	DEC	NOV	OCT	SEP	AUG		7	6	5	4	3	2	1	12	11	10	9	8	0	79	84	42	49	34	35	48	38	41	72	105	104	0	86	109	109	90	56	55	68	54	71	109	121	141	
105563	017	ROCK CREEK HOA		 ROCK CREEK HOA		PO BOX 179				LEHI UT 84043-0179	UT	84043-0179	79	3723 E ROCK CREEK RD/ RC O	Water			Sewer	Penalty			Garbage Service	Garbage Fuel Charge		Storm Drain	Deployed Abatement	Deposit	Miscellaneous							307.30			549.00							99.00									0	1909.95	0.00CR	65.00		955.30	2930.25	08/08/2022	08/31/2022	07/01/2022	07/31/2022	02						46000						43589789						1						07/20/2022						11207						06/17/2022						11209						1						GAL							Past Due balances must be paid by 08/15/2022  in order to avoid a $50 fee and disconnection of water service.	If you would like to enroll in paperless billing or pay your bills online please visit www.eaglemountaincity.com	105563	08/16/2013	1974.95	Single Graph				GAL To	30	7																		84043	0	JUL	JUN	MAY	APR	MAR	FEB	JAN	DEC	NOV	OCT	SEP	AUG		7	6	5	4	3	2	1	12	11	10	9	8	0	1	0	1	0	0	99997	0	3	0	0	0	0	0	0	42	189	47	15	8	9	6	41	215	265	298	
105563	004	ROCK CREEK HOA		 ROCK CREEK HOA		PO BOX 179				LEHI UT 84043-0179	UT	84043-0179	79	3585 E ROCK CREEK RD/ RC E	Water			Sewer	Penalty			Garbage Service	Garbage Fuel Charge		Storm Drain	Deployed Abatement	Deposit	Miscellaneous							306.00			549.00							107.25									0	2288.11	0.00CR	65.00		962.25	3315.36	08/08/2022	08/31/2022	07/01/2022	07/31/2022																			0												0												0						0													Past Due balances must be paid by 08/15/2022  in order to avoid a $50 fee and disconnection of water service.	If you would like to enroll in paperless billing or pay your bills online please visit www.eaglemountaincity.com	105563	07/18/2008	2353.11	Single Graph				GAL To	30	7																		84043	0	JUL	JUN	MAY	APR	MAR	FEB	JAN	DEC	NOV	OCT	SEP	AUG		7	6	5	4	3	2	1	12	11	10	9	8	0	0	182	125	161	46	745	0	0	0	0	0	96	0	95	153	218	0	31	35	53	38	64	165	223	249	
105563	009	ROCK CREEK HOA		 ROCK CREEK HOA		PO BOX 179				LEHI UT 84043-0179	UT	84043-0179	79	3579 E ROCK CREEK RD/ RC F	Water			Sewer	Penalty			Garbage Service	Garbage Fuel Charge		Storm Drain	Deployed Abatement	Deposit	Miscellaneous							306.00			549.00							107.25									0	962.25	0.00CR	15.00		962.25	1939.50	08/08/2022	08/31/2022	07/01/2022	07/31/2022																			0												0												0						0													Past Due balances must be paid by 08/15/2022  in order to avoid a $50 fee and disconnection of water service.	If you would like to enroll in paperless billing or pay your bills online please visit www.eaglemountaincity.com	105563	07/18/2008	977.25	Single Graph				GAL To	30	7																		84043	0	JUL	JUN	MAY	APR	MAR	FEB	JAN	DEC	NOV	OCT	SEP	AUG		7	6	5	4	3	2	1	12	11	10	9	8	0	0	0	0	0	0	47	51	93	0	125	2	133	0	0	97	90	49	61	49	51	40	41	121	135	120	
105563	006	ROCK CREEK HOA		 ROCK CREEK HOA		PO BOX 179				LEHI UT 84043-0179	UT	84043-0179	79	3569 E ROCK CREEK RD/ RC G	Water			Sewer	Penalty			Garbage Service	Garbage Fuel Charge		Storm Drain	Deployed Abatement	Deposit	Miscellaneous							306.00			549.00							107.25									0	2017.35	0.00CR	65.00		962.25	3044.60	08/08/2022	08/31/2022	07/01/2022	07/31/2022	46						05000						32894597						1						07/19/2022						12091						06/20/2022						12091						0						GAL							Past Due balances must be paid by 08/15/2022  in order to avoid a $50 fee and disconnection of water service.	If you would like to enroll in paperless billing or pay your bills online please visit www.eaglemountaincity.com	105563	07/18/2008	2082.35	Single Graph				GAL To	30	7																		84043	0	JUL	JUN	MAY	APR	MAR	FEB	JAN	DEC	NOV	OCT	SEP	AUG		7	6	5	4	3	2	1	12	11	10	9	8	0	0	47	24	33	4	1	14	17	24	46	58	46	0	69	62	56	47	33	36	46	39	61	75	72	89	
105563	011	ROCK CREEK HOA		 ROCK CREEK HOA		PO BOX 179				LEHI UT 84043-0179	UT	84043-0179	79	8215 N CLEAR ROCK RD/ RC I	Water			Sewer	Penalty			Garbage Service	Garbage Fuel Charge		Storm Drain	Deployed Abatement	Deposit	Miscellaneous							306.00			549.00							107.25									0	2206.64	0.00CR	65.00		962.25	3233.89	08/08/2022	08/31/2022	07/01/2022	07/31/2022																			0												0												0						0													Past Due balances must be paid by 08/15/2022  in order to avoid a $50 fee and disconnection of water service.	If you would like to enroll in paperless billing or pay your bills online please visit www.eaglemountaincity.com	105563	04/15/2009	2271.64	Single Graph				GAL To	30	7																		84043	0	JUL	JUN	MAY	APR	MAR	FEB	JAN	DEC	NOV	OCT	SEP	AUG		7	6	5	4	3	2	1	12	11	10	9	8	0	0	230	0	155	0	76	38	125	0	102	174	197	0	0	143	103	118	30	85	38	40	117	118	234	231	
105563	015	ROCK CREEK HOA		 ROCK CREEK HOA		PO BOX 179				LEHI UT 84043-0179	UT	84043-0179	79	3624 E CLEAR ROCK RD/ RC K	Water			Sewer	Penalty			Garbage Service	Garbage Fuel Charge		Storm Drain	Deployed Abatement	Deposit	Miscellaneous							515.60			549.00							107.25									0	2069.44	0.00CR	65.00		1171.85	3306.29	08/08/2022	08/31/2022	07/01/2022	07/31/2022	46						12345						36625471						2						07/20/2022						8969						06/20/2022						9153						183						Kilowatt							Past Due balances must be paid by 08/15/2022  in order to avoid a $50 fee and disconnection of water service.	If you would like to enroll in paperless billing or pay your bills online please visit www.eaglemountaincity.com	105563	07/11/2012	2134.44	Single Graph				GAL To	30	7																		84043	0	JUL	JUN	MAY	APR	MAR	FEB	JAN	DEC	NOV	OCT	SEP	AUG		7	6	5	4	3	2	1	12	11	10	9	8	0	183	66	54	52	34	33	39	31	37	52	70	57	0	70	108	121	80	31	34	43	31	70	113	106	130	
105563	003	ROCK CREEK HOA		 ROCK CREEK HOA		PO BOX 179				LEHI UT 84043-0179	UT	84043-0179	79	3586 E ROCK CREEK RD/ RC D	Water			Sewer	Penalty			Garbage Service	Garbage Fuel Charge		Storm Drain	Deployed Abatement	Deposit	Miscellaneous							306.00			549.00							107.25									0	1223.19	0.00CR	15.00		962.25	2200.44	08/08/2022	08/31/2022	07/01/2022	07/31/2022																			0												0												0						0													Past Due balances must be paid by 08/15/2022  in order to avoid a $50 fee and disconnection of water service.	If you would like to enroll in paperless billing or pay your bills online please visit www.eaglemountaincity.com	105563	07/18/2008	1238.19	Single Graph				GAL To	30	7																		84043	0	JUL	JUN	MAY	APR	MAR	FEB	JAN	DEC	NOV	OCT	SEP	AUG		7	6	5	4	3	2	1	12	11	10	9	8	0	0	225	0	0	0	45	31	66	0	43	100	169	0	0	156	116	88	20	5	31	40	56	214	229	244	
105563	012	ROCK CREEK HOA		 ROCK CREEK HOA		PO BOX 179				LEHI UT 84043-0179	UT	84043-0179	79	3618 E CLEAR ROCK RD/ RC J	Water			Sewer	Penalty			Garbage Service	Garbage Fuel Charge		Storm Drain	Deployed Abatement	Deposit	Miscellaneous							318.19			549.00							107.25									0	1958.90	0.00CR	65.00		974.44	2998.34	08/08/2022	08/31/2022	07/01/2022	07/31/2022	46						00J13						35712963						1						07/19/2022						1411						06/20/2022						1423						11						GAL							Past Due balances must be paid by 08/15/2022  in order to avoid a $50 fee and disconnection of water service.	If you would like to enroll in paperless billing or pay your bills online please visit www.eaglemountaincity.com	105563	08/04/2009	2023.90	Single Graph				GAL To	30	7																		84043	0	JUL	JUN	MAY	APR	MAR	FEB	JAN	DEC	NOV	OCT	SEP	AUG		7	6	5	4	3	2	1	12	11	10	9	8	0	11	11	6	8	4	3	3	-2329	35	53	92	88	0	88	107	108	57	30	32	44	39	49	129	135	161	
105563	007	ROCK CREEK HOA		 ROCK CREEK HOA		PO BOX 179				LEHI UT 84043-0179	UT	84043-0179	79	3561 E ROCK CREEK RD/ RC H	Water			Sewer	Penalty			Garbage Service	Garbage Fuel Charge		Storm Drain	Deployed Abatement	Deposit	Miscellaneous							458.50			549.00							107.25									0	2168.12	0.00CR	65.00		1114.75	3347.87	08/08/2022	08/31/2022	07/01/2022	07/31/2022	46						70000						32993953						1						07/20/2022						8429						06/20/2022						8565						136						GAL							Past Due balances must be paid by 08/15/2022  in order to avoid a $50 fee and disconnection of water service.	If you would like to enroll in paperless billing or pay your bills online please visit www.eaglemountaincity.com	105563	07/18/2008	2233.12	Single Graph				GAL To	30	7																		84043	0	JUL	JUN	MAY	APR	MAR	FEB	JAN	DEC	NOV	OCT	SEP	AUG		7	6	5	4	3	2	1	12	11	10	9	8	0	136	127	79	59	30	38	54	20	44	100	131	124	0	123	168	109	63	50	49	53	40	55	166	201	227	
105563	005	ROCK CREEK HOA		 ROCK CREEK HOA		PO BOX 179				LEHI UT 84043-0179	UT	84043-0179	79	8097 N CLEAR ROCK RD/ CLBHS POOL	Water			Sewer	Penalty			Garbage Service	Garbage Fuel Charge		Storm Drain	Deployed Abatement	Deposit	Miscellaneous							25.50			45.75							8.25									0	270.69	0.00CR	65.00		79.50	415.19	08/08/2022	08/31/2022	07/01/2022	07/31/2022																			0												0												0						0													Past Due balances must be paid by 08/15/2022  in order to avoid a $50 fee and disconnection of water service.	If you would like to enroll in paperless billing or pay your bills online please visit www.eaglemountaincity.com	105563	07/18/2008	335.69	Single Graph				GAL To	30	7																		84043	0	JUL	JUN	MAY	APR	MAR	FEB	JAN	DEC	NOV	OCT	SEP	AUG		7	6	5	4	3	2	1	12	11	10	9	8	0	0	70	19	12	1	13	11	0	8	10	41	134	0	0	104	63	16	3	11	6	3	12	144	148	106	
105999	021	SILVER LAKE MASTER HOA		 SILVER LAKE MASTER HOA	c/o ADVANCED COMMUNITY SERVICES	PO BOX 179				LEHI UT 84043-0179	UT	84043-0179	79	5115 E TAHOE WAY/ SL LNDSCP	Water			Sewer	Penalty			Garbage Service	Garbage Fuel Charge		Storm Drain	Deployed Abatement	Deposit	Miscellaneous							74.10																			0	67.62	67.62CR			74.10	74.10	08/08/2022	08/31/2022	07/01/2022	07/31/2022	53						00000						83640565						1						07/19/2022						2337						06/17/2022						2382						45						GAL							Past Due balances must be paid by 08/15/2022  in order to avoid a $50 fee and disconnection of water service.	If you would like to enroll in paperless billing or pay your bills online please visit www.eaglemountaincity.com	105999	03/01/2019		Single Graph				GAL To	30	7																		840430179	0	JUL	JUN	MAY	APR	MAR	FEB	JAN	DEC	NOV	OCT	SEP	AUG		7	6	5	4	3	2	1	12	11	10	9	8	0	45	39	0	1	0	0	0	0	0	50	95	85	0	100	71	21	0	0	0	0	0	0	69	133	147	
105999	016	SILVER LAKE MASTER HOA		 SILVER LAKE MASTER HOA	c/o ADVANCED COMMUNITY SERVICES	PO BOX 179				LEHI UT 84043-0179	UT	84043-0179	79	ROUNDBOUT ON SL PKWY & SILVER CREEK WAY	Water			Sewer	Penalty			Garbage Service	Garbage Fuel Charge		Storm Drain	Deployed Abatement	Deposit	Miscellaneous							24.42																			0	35.22	35.22CR			24.42	24.42	08/08/2022	08/31/2022	07/01/2022	07/31/2022	02						00001						1867879						1						07/13/2022						2011						06/20/2022						2010						-1						GAL							Past Due balances must be paid by 08/15/2022  in order to avoid a $50 fee and disconnection of water service.	If you would like to enroll in paperless billing or pay your bills online please visit www.eaglemountaincity.com	105999	07/18/2007		Single Graph				GAL To	30	7																		840430179	0	JUL	JUN	MAY	APR	MAR	FEB	JAN	DEC	NOV	OCT	SEP	AUG		7	6	5	4	3	2	1	12	11	10	9	8	0	-1	9	9	0	0	0	0	0	0	0	0	1	0	2	259	0	259	0	0	0	0	0	20	0	0	
105999	002	SILVER LAKE MASTER HOA		 SILVER LAKE MASTER HOA	c/o ADVANCED COMMUNITY SERVICES	PO BOX 179				LEHI UT 84043-0179	UT	84043-0179	79	OPEN SPACE IN FRONT OF 7674 SL PRKWY	Water			Sewer	Penalty			Garbage Service	Garbage Fuel Charge		Storm Drain	Deployed Abatement	Deposit	Miscellaneous							39.70																			0	36.60	36.60CR			39.70	39.70	08/08/2022	08/31/2022	07/01/2022	07/31/2022	53						00004						32906608						1						07/18/2022						2579						06/16/2022						2592						13						GAL							Past Due balances must be paid by 08/15/2022  in order to avoid a $50 fee and disconnection of water service.	If you would like to enroll in paperless billing or pay your bills online please visit www.eaglemountaincity.com	105999	07/01/2008		Single Graph				GAL To	30	7																		840430179	0	JUL	JUN	MAY	APR	MAR	FEB	JAN	DEC	NOV	OCT	SEP	AUG		7	6	5	4	3	2	1	12	11	10	9	8	0	13	10	0	0	0	0	0	0	0	20	35	30	0	13	6	12	0	0	0	0	0	0	20	28	28	
105999	012	SILVER LAKE MASTER HOA		 SILVER LAKE MASTER HOA	c/o ADVANCED COMMUNITY SERVICES	PO BOX 179				LEHI UT 84043-0179	UT	84043-0179	79	OPEN SPACE @ ANSLEY LN & BROOKWOOD DR	Water			Sewer	Penalty			Garbage Service	Garbage Fuel Charge		Storm Drain	Deployed Abatement	Deposit	Miscellaneous							100.06																			0	75.17	75.17CR			100.06	100.06	08/08/2022	08/31/2022	07/01/2022	07/31/2022	53						00007						34040934						1						07/18/2022						1952						06/16/2022						2021						69						GAL							Past Due balances must be paid by 08/15/2022  in order to avoid a $50 fee and disconnection of water service.	If you would like to enroll in paperless billing or pay your bills online please visit www.eaglemountaincity.com	105999	10/02/2007		Single Graph				GAL To	30	7																		840430179	0	JUL	JUN	MAY	APR	MAR	FEB	JAN	DEC	NOV	OCT	SEP	AUG		7	6	5	4	3	2	1	12	11	10	9	8	0	69	45	10	0	0	0	0	0	0	42	61	38	0	37	26	32	2	0	0	0	0	0	58	123	103	
105999	019	SILVER LAKE MASTER HOA		 SILVER LAKE MASTER HOA	c/o ADVANCED COMMUNITY SERVICES	PO BOX 179				LEHI UT 84043-0179	UT	84043-0179	79	7473 N SILVER PARK DR/ SL LNDSCP	Water			Sewer	Penalty			Garbage Service	Garbage Fuel Charge		Storm Drain	Deployed Abatement	Deposit	Miscellaneous							537.74																			0	339.02	339.02CR			537.74	537.74	08/08/2022	08/31/2022	07/01/2022	07/31/2022	53						00000						16970415						1						07/18/2022						12210						06/16/2022						12685						474						GAL							Past Due balances must be paid by 08/15/2022  in order to avoid a $50 fee and disconnection of water service.	If you would like to enroll in paperless billing or pay your bills online please visit www.eaglemountaincity.com	105999	03/01/2019		Single Graph				GAL To	30	7																		840430179	0	JUL	JUN	MAY	APR	MAR	FEB	JAN	DEC	NOV	OCT	SEP	AUG		7	6	5	4	3	2	1	12	11	10	9	8	0	474	290	34	10	0	0	0	0	0	173	827	734	0	869	409	689	0	0	0	0	0	0	548	726	835	
105999	005	SILVER LAKE MASTER HOA		 SILVER LAKE MASTER HOA	c/o ADVANCED COMMUNITY SERVICES	PO BOX 179				LEHI UT 84043-0179	UT	84043-0179	79	OPEN SPACE IN FRONT 4637 CREEK WAY	Water			Sewer	Penalty			Garbage Service	Garbage Fuel Charge		Storm Drain	Deployed Abatement	Deposit	Miscellaneous							47.93																			0	43.03	43.03CR			47.93	47.93	08/08/2022	08/31/2022	07/01/2022	07/31/2022	53						00006						29276488						1						07/18/2022						3291						06/16/2022						3312						20						GAL							Past Due balances must be paid by 08/15/2022  in order to avoid a $50 fee and disconnection of water service.	If you would like to enroll in paperless billing or pay your bills online please visit www.eaglemountaincity.com	105999	07/01/2008		Single Graph				GAL To	30	7																		840430179	0	JUL	JUN	MAY	APR	MAR	FEB	JAN	DEC	NOV	OCT	SEP	AUG		7	6	5	4	3	2	1	12	11	10	9	8	0	20	16	0	0	0	0	0	0	0	26	47	37	0	46	19	33	0	0	0	0	0	0	43	46	55	
105999	014	SILVER LAKE MASTER HOA		 SILVER LAKE MASTER HOA	c/o ADVANCED COMMUNITY SERVICES	PO BOX 179				LEHI UT 84043-0179	UT	84043-0179	79	OPENSPACE ACROSS FROM 7729 DECRESCENDO	Water			Sewer	Penalty			Garbage Service	Garbage Fuel Charge		Storm Drain	Deployed Abatement	Deposit	Miscellaneous							34.57																			0	39.62	39.62CR			34.57	34.57	08/08/2022	08/31/2022	07/01/2022	07/31/2022	53						00000						32587305						1						07/18/2022						2383						06/17/2022						2391						8						GAL							Past Due balances must be paid by 08/15/2022  in order to avoid a $50 fee and disconnection of water service.	If you would like to enroll in paperless billing or pay your bills online please visit www.eaglemountaincity.com	105999	02/13/2007		Single Graph				GAL To	30	7																		840430179	0	JUL	JUN	MAY	APR	MAR	FEB	JAN	DEC	NOV	OCT	SEP	AUG		7	6	5	4	3	2	1	12	11	10	9	8	0	8	13	0	0	0	0	0	0	0	22	35	8	0	46	19	45	0	0	0	0	0	0	19	41	37	
105999	009	SILVER LAKE MASTER HOA		 SILVER LAKE MASTER HOA	c/o ADVANCED COMMUNITY SERVICES	PO BOX 179				LEHI UT 84043-0179	UT	84043-0179	79	SL ENTRY MONUMENT WATERFALL	Water			Sewer	Penalty			Garbage Service	Garbage Fuel Charge		Storm Drain	Deployed Abatement	Deposit	Miscellaneous							25.50																			0	25.50	25.50CR			25.50	25.50	08/08/2022	08/31/2022	07/01/2022	07/31/2022																			0												0												0						0													Past Due balances must be paid by 08/15/2022  in order to avoid a $50 fee and disconnection of water service.	If you would like to enroll in paperless billing or pay your bills online please visit www.eaglemountaincity.com	105999	08/01/2008		Single Graph				GAL To	30	7																		840430179	0	JUL	JUN	MAY	APR	MAR	FEB	JAN	DEC	NOV	OCT	SEP	AUG		7	6	5	4	3	2	1	12	11	10	9	8	0	0	0	0	0	0	0	0	237	0	0	0	11	0	192	315	222	0	0	0	0	0	0	192	272	441	
105999	011	SILVER LAKE MASTER HOA		 SILVER LAKE MASTER HOA	c/o ADVANCED COMMUNITY SERVICES	PO BOX 179				LEHI UT 84043-0179	UT	84043-0179	79	OPEN SPACE IN FRONT OF 7642 SILVER RANCH	Water			Sewer	Penalty			Garbage Service	Garbage Fuel Charge		Storm Drain	Deployed Abatement	Deposit	Miscellaneous							25.50																			0	259.86	0.00CR	-9.72		25.50	275.64	08/08/2022	08/31/2022	07/01/2022	07/31/2022	02						11111						29685583						1						07/20/2022						7907						06/20/2022						7907						0						GAL							Past Due balances must be paid by 08/15/2022  in order to avoid a $50 fee and disconnection of water service.	If you would like to enroll in paperless billing or pay your bills online please visit www.eaglemountaincity.com	105999	10/18/2005	250.14	Single Graph				GAL To	30	7																		840430179	0	JUL	JUN	MAY	APR	MAR	FEB	JAN	DEC	NOV	OCT	SEP	AUG		7	6	5	4	3	2	1	12	11	10	9	8	0	0	208	217	0	0	0	0	0	0	0	0	29	0	101	67	81	0	0	0	0	0	0	50	84	83	
105999	022	SILVER LAKE MASTER HOA		 SILVER LAKE MASTER HOA	c/o ADVANCED COMMUNITY SERVICES	PO BOX 179				LEHI UT 84043-0179	UT	84043-0179	79	5181 E BROOKWOOD DR/ SL 1-3 LNDSCP	Water			Sewer	Penalty			Garbage Service	Garbage Fuel Charge		Storm Drain	Deployed Abatement	Deposit	Miscellaneous							26.58																			0	26.58	26.58CR			26.58	26.58	08/08/2022	08/31/2022	07/01/2022	07/31/2022	53						00000						84925524						1						07/18/2022						95						06/17/2022						96						1						GAL							Past Due balances must be paid by 08/15/2022  in order to avoid a $50 fee and disconnection of water service.	If you would like to enroll in paperless billing or pay your bills online please visit www.eaglemountaincity.com	105999	06/01/2021		Single Graph				GAL To	30	7																		840430179	0	JUL	JUN	MAY	APR	MAR	FEB	JAN	DEC	NOV	OCT	SEP	AUG		7	6	5	4	3	2	1	12	11	10	9	8	0	1	1	0	0	0	0	0	0	0	1	44	8	0	9	5	0	0	0	0	0	0	0	0	0	0	
105999	008	SILVER LAKE MASTER HOA		 SILVER LAKE MASTER HOA	c/o ADVANCED COMMUNITY SERVICES	PO BOX 179				LEHI UT 84043-0179	UT	84043-0179	79	POCKET PARK IN FRONT OF 7881 SL PRKWY	Water			Sewer	Penalty			Garbage Service	Garbage Fuel Charge		Storm Drain	Deployed Abatement	Deposit	Miscellaneous							37.42																			0	37.89	37.89CR			37.42	37.42	08/08/2022	08/31/2022	07/01/2022	07/31/2022	53						00006						14785						1						07/18/2022						1740						06/17/2022						1751						11						GAL							Past Due balances must be paid by 08/15/2022  in order to avoid a $50 fee and disconnection of water service.	If you would like to enroll in paperless billing or pay your bills online please visit www.eaglemountaincity.com	105999	08/01/2008		Single Graph				GAL To	30	7																		840430179	0	JUL	JUN	MAY	APR	MAR	FEB	JAN	DEC	NOV	OCT	SEP	AUG		7	6	5	4	3	2	1	12	11	10	9	8	0	11	11	0	0	0	0	0	0	0	15	26	20	0	23	8	15	0	0	0	0	0	0	24	23	25	
105999	007	SILVER LAKE MASTER HOA		 SILVER LAKE MASTER HOA	c/o ADVANCED COMMUNITY SERVICES	PO BOX 179				LEHI UT 84043-0179	UT	84043-0179	79	OPEN SPACE ACROSS 7822 CRESCENDO CT	Water			Sewer	Penalty			Garbage Service	Garbage Fuel Charge		Storm Drain	Deployed Abatement	Deposit	Miscellaneous							136.41																			0	25.50	25.50CR			136.41	136.41	08/08/2022	08/31/2022	07/01/2022	07/31/2022	53						00006						2587						1						07/18/2022						2905						06/16/2022						3008						102						GAL							Past Due balances must be paid by 08/15/2022  in order to avoid a $50 fee and disconnection of water service.	If you would like to enroll in paperless billing or pay your bills online please visit www.eaglemountaincity.com	105999	08/01/2008		Single Graph				GAL To	30	7																		840430179	0	JUL	JUN	MAY	APR	MAR	FEB	JAN	DEC	NOV	OCT	SEP	AUG		7	6	5	4	3	2	1	12	11	10	9	8	0	102	0	0	22	0	0	0	0	0	231	0	25	0	70	66	56	0	0	0	0	0	0	44	66	70	
105999	024	SILVER LAKE MASTER HOA		 SILVER LAKE MASTER HOA	c/o ADVANCED COMMUNITY SERVICES	PO BOX 179				LEHI UT 84043-0179	UT	84043-0179	79	4893 E CLOVER LEAF LN/ SL LNDSCP	Water			Sewer	Penalty			Garbage Service	Garbage Fuel Charge		Storm Drain	Deployed Abatement	Deposit	Miscellaneous							452.10																			0	390.54	390.54CR			452.10	452.10	08/08/2022	08/31/2022	07/01/2022	07/31/2022	53						LNDSP						90983238						1						07/18/2022						7462						06/17/2022						7857						395						GAL							Past Due balances must be paid by 08/15/2022  in order to avoid a $50 fee and disconnection of water service.	If you would like to enroll in paperless billing or pay your bills online please visit www.eaglemountaincity.com	105999	07/01/2020		Single Graph				GAL To	30	7																		840430179	0	JUL	JUN	MAY	APR	MAR	FEB	JAN	DEC	NOV	OCT	SEP	AUG		7	6	5	4	3	2	1	12	11	10	9	8	0	395	338	0	2	0	0	0	0	0	591	1107	1009	0	965	342	311	0	0	0	0	0	70	546	609	861	
105999	010	SILVER LAKE MASTER HOA		 SILVER LAKE MASTER HOA	c/o ADVANCED COMMUNITY SERVICES	PO BOX 179				LEHI UT 84043-0179	UT	84043-0179	79	OPEN SPACE NEXT TO 4507 BRIDLE WAY	Water			Sewer	Penalty			Garbage Service	Garbage Fuel Charge		Storm Drain	Deployed Abatement	Deposit	Miscellaneous							25.50																			0	26.00	26.00CR			25.50	25.50	08/08/2022	08/31/2022	07/01/2022	07/31/2022																			0												0												0						0													Past Due balances must be paid by 08/15/2022  in order to avoid a $50 fee and disconnection of water service.	If you would like to enroll in paperless billing or pay your bills online please visit www.eaglemountaincity.com	105999	10/18/2005		Single Graph				GAL To	30	7																		840430179	0	JUL	JUN	MAY	APR	MAR	FEB	JAN	DEC	NOV	OCT	SEP	AUG		7	6	5	4	3	2	1	12	11	10	9	8	0	0	0	0	0	0	0	176	0	0	0	0	94	0	91	78	55	0	0	0	0	0	0	140	77	99	
105999	004	SILVER LAKE MASTER HOA		 SILVER LAKE MASTER HOA	c/o ADVANCED COMMUNITY SERVICES	PO BOX 179				LEHI UT 84043-0179	UT	84043-0179	79	OPENSPACE ACROSS S 4666 PONDEROSA WAY	Water			Sewer	Penalty			Garbage Service	Garbage Fuel Charge		Storm Drain	Deployed Abatement	Deposit	Miscellaneous							113.22																			0	100.38	100.38CR			113.22	113.22	08/08/2022	08/31/2022	07/01/2022	07/31/2022	53						00004						46938250						1						07/18/2022						6412						06/17/2022						6493						81						GAL							Past Due balances must be paid by 08/15/2022  in order to avoid a $50 fee and disconnection of water service.	If you would like to enroll in paperless billing or pay your bills online please visit www.eaglemountaincity.com	105999	07/01/2008		Single Graph				GAL To	30	7																		840430179	0	JUL	JUN	MAY	APR	MAR	FEB	JAN	DEC	NOV	OCT	SEP	AUG		7	6	5	4	3	2	1	12	11	10	9	8	0	81	69	0	0	0	0	0	0	0	143	225	189	0	162	71	109	0	0	0	0	0	0	153	201	231	
105999	015	SILVER LAKE MASTER HOA		 SILVER LAKE MASTER HOA	c/o ADVANCED COMMUNITY SERVICES	PO BOX 179				LEHI UT 84043-0179	UT	84043-0179	79	OPEN SPACE FRONT 4691 DECRESCENDO	Water			Sewer	Penalty			Garbage Service	Garbage Fuel Charge		Storm Drain	Deployed Abatement	Deposit	Miscellaneous							41.87																			0	35.78	35.78CR			41.87	41.87	08/08/2022	08/31/2022	07/01/2022	07/31/2022	53						40001						32233001						1						07/18/2022						3004						06/17/2022						3019						15						GAL							Past Due balances must be paid by 08/15/2022  in order to avoid a $50 fee and disconnection of water service.	If you would like to enroll in paperless billing or pay your bills online please visit www.eaglemountaincity.com	105999	02/13/2007		Single Graph				GAL To	30	7																		840430179	0	JUL	JUN	MAY	APR	MAR	FEB	JAN	DEC	NOV	OCT	SEP	AUG		7	6	5	4	3	2	1	12	11	10	9	8	0	15	9	0	0	0	0	0	0	0	18	29	25	0	29	13	24	0	0	0	0	0	0	18	25	36	
105999	006	SILVER LAKE MASTER HOA		 SILVER LAKE MASTER HOA	c/o ADVANCED COMMUNITY SERVICES	PO BOX 179				LEHI UT 84043-0179	UT	84043-0179	79	ROUNDBOUT @SL PRKWY &CAMBELL CIRCLE	Water			Sewer	Penalty			Garbage Service	Garbage Fuel Charge		Storm Drain	Deployed Abatement	Deposit	Miscellaneous							247.77																			0	25.50	25.50CR			247.77	247.77	08/08/2022	08/31/2022	07/01/2022	07/31/2022	53						00006						3698						1						07/18/2022						3080						06/16/2022						3285						205						GAL							Past Due balances must be paid by 08/15/2022  in order to avoid a $50 fee and disconnection of water service.	If you would like to enroll in paperless billing or pay your bills online please visit www.eaglemountaincity.com	105999	08/01/2008		Single Graph				GAL To	30	7																		840430179	0	JUL	JUN	MAY	APR	MAR	FEB	JAN	DEC	NOV	OCT	SEP	AUG		7	6	5	4	3	2	1	12	11	10	9	8	0	205	0	0	0	0	0	0	0	68	194	240	217	0	270	222	63	0	0	0	0	0	24	137	162	189	
105999	001	SILVER LAKE MASTER HOA		 SILVER LAKE MASTER HOA	c/o ADVANCED COMMUNITY SERVICES	PO BOX 179				LEHI UT 84043-0179	UT	84043-0179	79	OPEN SPACE IN FRONT OF 7618 SILVER CREEK	Water			Sewer	Penalty			Garbage Service	Garbage Fuel Charge		Storm Drain	Deployed Abatement	Deposit	Miscellaneous							-95.46																			0	241.50	241.50CR			-95.46	-95.46	08/08/2022	08/31/2022	07/01/2022	07/31/2022	02						05888						29452977						1						07/20/2022						1754						06/20/2022						1642						-112						GAL							Past Due balances must be paid by 08/15/2022  in order to avoid a $50 fee and disconnection of water service.	If you would like to enroll in paperless billing or pay your bills online please visit www.eaglemountaincity.com	105999	07/21/2008		Single Graph				GAL To	30	7																		840430179	0	JUL	JUN	MAY	APR	MAR	FEB	JAN	DEC	NOV	OCT	SEP	AUG		7	6	5	4	3	2	1	12	11	10	9	8	0	-112	200	200	0	0	0	0	0	0	0	0	47	0	105	0	0	0	0	0	0	0	0	80	40	70	
105999	017	SILVER LAKE MASTER HOA		 SILVER LAKE MASTER HOA	c/o ADVANCED COMMUNITY SERVICES	PO BOX 179				LEHI UT 84043-0179	UT	84043-0179	79	SL PRKWY & 7787 N.	Water			Sewer	Penalty			Garbage Service	Garbage Fuel Charge		Storm Drain	Deployed Abatement	Deposit	Miscellaneous							40.91																			0	39.08	39.08CR			40.91	40.91	08/08/2022	08/31/2022	07/01/2022	07/31/2022	53						00003						35961230						1						07/18/2022						1722						06/17/2022						1736						14						GAL							Past Due balances must be paid by 08/15/2022  in order to avoid a $50 fee and disconnection of water service.	If you would like to enroll in paperless billing or pay your bills online please visit www.eaglemountaincity.com	105999	06/30/2009		Single Graph				GAL To	30	7																		840430179	0	JUL	JUN	MAY	APR	MAR	FEB	JAN	DEC	NOV	OCT	SEP	AUG		7	6	5	4	3	2	1	12	11	10	9	8	0	14	12	0	0	0	0	0	0	0	23	39	29	0	20	10	16	0	0	0	0	0	0	24	47	50	
105999	018	SILVER LAKE MASTER HOA		 SILVER LAKE MASTER HOA	c/o ADVANCED COMMUNITY SERVICES	PO BOX 179				LEHI UT 84043-0179	UT	84043-0179	79	7774  N RUSTY SPUR CT/ HOA	Water			Sewer	Penalty			Garbage Service	Garbage Fuel Charge		Storm Drain	Deployed Abatement	Deposit	Miscellaneous							378.51																			0	190.08	190.08CR			378.51	378.51	08/08/2022	08/31/2022	07/01/2022	07/31/2022	53						00000						15053775						1						07/18/2022						10756						06/16/2022						11083						326						GAL							Past Due balances must be paid by 08/15/2022  in order to avoid a $50 fee and disconnection of water service.	If you would like to enroll in paperless billing or pay your bills online please visit www.eaglemountaincity.com	105999	08/26/2016		Single Graph				GAL To	30	7																		840430179	0	JUL	JUN	MAY	APR	MAR	FEB	JAN	DEC	NOV	OCT	SEP	AUG		7	6	5	4	3	2	1	12	11	10	9	8	0	326	152	0	1	0	0	0	0	0	288	196	263	0	553	322	420	0	0	0	0	0	0	363	588	665	
105999	020	SILVER LAKE MASTER HOA		 SILVER LAKE MASTER HOA	c/o ADVANCED COMMUNITY SERVICES	PO BOX 179				LEHI UT 84043-0179	UT	84043-0179	79	7475 N SILVER PARK DR/ SL LNDSCP	Water			Sewer	Penalty			Garbage Service	Garbage Fuel Charge		Storm Drain	Deployed Abatement	Deposit	Miscellaneous							84.96																			0	67.44	67.44CR			84.96	84.96	08/08/2022	08/31/2022	07/01/2022	07/31/2022	53						00000						16970411						1						07/18/2022						1543						06/16/2022						1598						55						GAL							Past Due balances must be paid by 08/15/2022  in order to avoid a $50 fee and disconnection of water service.	If you would like to enroll in paperless billing or pay your bills online please visit www.eaglemountaincity.com	105999	04/12/2019		Single Graph				GAL To	30	7																		840430179	0	JUL	JUN	MAY	APR	MAR	FEB	JAN	DEC	NOV	OCT	SEP	AUG		7	6	5	4	3	2	1	12	11	10	9	8	0	55	38	7	2	0	0	0	0	0	21	90	81	0	91	49	67	5	0	0	0	0	0	61	79	96	
105999	003	SILVER LAKE MASTER HOA		 SILVER LAKE MASTER HOA	c/o ADVANCED COMMUNITY SERVICES	PO BOX 179				LEHI UT 84043-0179	UT	84043-0179	79	OPEN SPACE IN FRONT OF 7663 SL PRKWY	Water			Sewer	Penalty			Garbage Service	Garbage Fuel Charge		Storm Drain	Deployed Abatement	Deposit	Miscellaneous							1,128.18																			0	74.10	74.10CR			1128.18	1128.18	08/08/2022	08/31/2022	07/01/2022	07/31/2022	02						00005						123456						1						07/13/2022						5849						06/20/2022						6870						1021						GAL							Past Due balances must be paid by 08/15/2022  in order to avoid a $50 fee and disconnection of water service.	If you would like to enroll in paperless billing or pay your bills online please visit www.eaglemountaincity.com	105999	07/01/2008		Single Graph				GAL To	30	7																		840430179	0	JUL	JUN	MAY	APR	MAR	FEB	JAN	DEC	NOV	OCT	SEP	AUG		7	6	5	4	3	2	1	12	11	10	9	8	0	1021	45	45	0	0	0	0	0	0	0	0	42	0	852	6	46	0	0	0	0	0	0	65	88	71	
105999	000	SILVER LAKE MASTER HOA		 SILVER LAKE MASTER HOA	c/o ADVANCED COMMUNITY SERVICES	PO BOX 179				LEHI UT 84043-0179	UT	84043-0179	79	PARK BY 4719 SILVER LAKE PKWY	Water			Sewer	Penalty			Garbage Service	Garbage Fuel Charge		Storm Drain	Deployed Abatement	Deposit	Miscellaneous							43.06																			0	42.78	42.78CR			43.06	43.06	08/08/2022	08/31/2022	07/01/2022	07/31/2022	53						00006						46627616						1						07/18/2022						390						06/20/2022						407						16						GAL							Past Due balances must be paid by 08/15/2022  in order to avoid a $50 fee and disconnection of water service.	If you would like to enroll in paperless billing or pay your bills online please visit www.eaglemountaincity.com	105999	05/22/2008		Single Graph				GAL To	30	7																		840430179	0	JUL	JUN	MAY	APR	MAR	FEB	JAN	DEC	NOV	OCT	SEP	AUG		7	6	5	4	3	2	1	12	11	10	9	8	0	16	16	16	2	0	0	0	0	0	8	112	367	0	367	259	297	94	0	0	0	0	0	10	132	484	
105999	025	SILVER LAKE MASTER HOA		 SILVER LAKE MASTER HOA	c/o ADVANCED COMMUNITY SERVICES	PO BOX 179				LEHI UT 84043-0179	UT	84043-0179	79	4968 E GOLDEN EAGLE RD/ SL 2090 CLBHS	Water			Sewer	Penalty			Garbage Service	Garbage Fuel Charge		Storm Drain	Deployed Abatement	Deposit	Miscellaneous							799.11			45.75							8.25									0	498.49	498.49CR			853.11	853.11	08/08/2022	08/31/2022	07/01/2022	07/31/2022	53						CLBHS						91886758						1						07/19/2022						4925						06/20/2022						5593						668						GAL							Past Due balances must be paid by 08/15/2022  in order to avoid a $50 fee and disconnection of water service.	If you would like to enroll in paperless billing or pay your bills online please visit www.eaglemountaincity.com	105999	04/23/2021		Single Graph				GAL To	30	7																		840430179	0	JUL	JUN	MAY	APR	MAR	FEB	JAN	DEC	NOV	OCT	SEP	AUG		7	6	5	4	3	2	1	12	11	10	9	8	0	668	370	62	37	1	0	1	3	7	298	659	569	0	607	512	0	0	0	0	0	0	0	0	0	0	
105999	023	SILVER LAKE MASTER HOA		 SILVER LAKE MASTER HOA	c/o ADVANCED COMMUNITY SERVICES	PO BOX 179				LEHI UT 84043-0179	UT	84043-0179	79	7479 N SILVER PARK DR/ SL CLUBHSE	Water			Sewer	Penalty			Garbage Service	Garbage Fuel Charge		Storm Drain	Deployed Abatement	Deposit	Miscellaneous							27.66			45.75							8.25									0		80.58CR			81.66	1.08	08/08/2022	08/31/2022	07/01/2022	07/31/2022	53						01464						84644943						1						07/18/2022						23						06/20/2022						25						2						GAL							Past Due balances must be paid by 08/15/2022  in order to avoid a $50 fee and disconnection of water service.	If you would like to enroll in paperless billing or pay your bills online please visit www.eaglemountaincity.com	105999	05/15/2019		Single Graph				GAL To	31	7																		840430179	0	JUL	JUN	MAY	APR	MAR	FEB	JAN	DEC	NOV	OCT	SEP	AUG		7	6	5	4	3	2	1	12	11	10	9	8	0	2	1	1	0	0	1	0	0	0	1	0	0	0	0	1	0	1	0	0	1	0	0	2	1	0	
121934	001	TRAILHEAD HOA		 TRAILHEAD HOA		PO BOX 179				LEHI UT 84043-0179	UT	84043-0179	79	1646 E TALON WAY/ TRH LNDSCP	Water			Sewer	Penalty			Garbage Service	Garbage Fuel Charge		Storm Drain	Deployed Abatement	Deposit	Miscellaneous							25.50																			0	129.18	129.18CR			25.50	25.50	08/08/2022	08/31/2022	07/01/2022	07/31/2022																			0												0												0						0													Past Due balances must be paid by 08/15/2022  in order to avoid a $50 fee and disconnection of water service.	If you would like to enroll in paperless billing or pay your bills online please visit www.eaglemountaincity.com	121934	11/12/2019		Single Graph				GAL To	30	7																		84043	0	JUL	JUN	MAY	APR	MAR	FEB	JAN	DEC	NOV	OCT	SEP	AUG		7	6	5	4	3	2	1	12	11	10	9	8	0	0	96	0	0	0	0	0	0	0	150	0	111	0	76	97	0	0	0	0	0	0	0	36	89	101	
121934	000	TRAILHEAD HOA		 TRAILHEAD HOA		PO BOX 179				LEHI UT 84043-0179	UT	84043-0179	79	1657 E TALON WAY/ TH LNDSCP	Water			Sewer	Penalty			Garbage Service	Garbage Fuel Charge		Storm Drain	Deployed Abatement	Deposit	Miscellaneous							152.11																			0	124.60	124.60CR			152.11	152.11	08/08/2022	08/31/2022	07/01/2022	07/31/2022	17						00000						17515762						1						07/15/2022						4996						06/15/2022						5113						117						GAL							Past Due balances must be paid by 08/15/2022  in order to avoid a $50 fee and disconnection of water service.	If you would like to enroll in paperless billing or pay your bills online please visit www.eaglemountaincity.com	121934	01/24/2019		Single Graph				GAL To	30	7																		84043	0	JUL	JUN	MAY	APR	MAR	FEB	JAN	DEC	NOV	OCT	SEP	AUG		7	6	5	4	3	2	1	12	11	10	9	8	0	117	91	0	0	0	0	0	0	0	93	147	205	0	239	110	152	2	0	0	0	0	0	118	247	291	
119305	002	HEATHERWOOD ON THE GREEN		 HEATHERWOOD ON THE GREEN		PO BOX 1				LEHI UT 84043-1171	UT	84043-1171	01	3812 CUNNINGHILL DR/ HW LNDSCP	Water			Sewer	Penalty			Garbage Service	Garbage Fuel Charge		Storm Drain	Deployed Abatement	Deposit	Miscellaneous							25.50																			0	300.90	300.90CR			25.50	25.50	08/08/2022	08/31/2022	07/01/2022	07/31/2022																			0												0												0						0													Past Due balances must be paid by 08/15/2022  in order to avoid a $50 fee and disconnection of water service.	If you would like to enroll in paperless billing or pay your bills online please visit www.eaglemountaincity.com	119305	08/31/2018		Single Graph				GAL To	30	7																		84043	0	JUL	JUN	MAY	APR	MAR	FEB	JAN	DEC	NOV	OCT	SEP	AUG		7	6	5	4	3	2	1	12	11	10	9	8	0	0	255	0	0	0	0	0	0	0	0	0	561	0	0	307	0	60	0	0	0	0	30	190	225	348	
119305	001	HEATHERWOOD ON THE GREEN		 HEATHERWOOD ON THE GREEN		PO BOX 1				LEHI UT 84043-1171	UT	84043-1171	01	ADJACENT TO 8739 N DESERT CANYON RD 7H	Water			Sewer	Penalty			Garbage Service	Garbage Fuel Charge		Storm Drain	Deployed Abatement	Deposit	Miscellaneous							391.03																			0	385.16	385.16CR			391.03	391.03	08/08/2022	08/31/2022	07/01/2022	07/31/2022	60						00070						34033601						1						07/19/2022						32742						06/17/2022						33080						338						GAL							Past Due balances must be paid by 08/15/2022  in order to avoid a $50 fee and disconnection of water service.	If you would like to enroll in paperless billing or pay your bills online please visit www.eaglemountaincity.com	119305	08/01/2017		Single Graph				GAL To	30	7																		84043	0	JUL	JUN	MAY	APR	MAR	FEB	JAN	DEC	NOV	OCT	SEP	AUG		7	6	5	4	3	2	1	12	11	10	9	8	0	338	333	67	0	0	0	0	0	0	85	399	668	0	720	255	301	3	0	0	0	0	343	70	483	921	
119305	000	HEATHERWOOD ON THE GREEN		 HEATHERWOOD ON THE GREEN		PO BOX 1				LEHI UT 84043-1171	UT	84043-1171	01	3872 E CUNNINGHILL DR/ PARK	Water			Sewer	Penalty			Garbage Service	Garbage Fuel Charge		Storm Drain	Deployed Abatement	Deposit	Miscellaneous							202.19																			0	117.62	117.62CR			202.19	202.19	08/08/2022	08/31/2022	07/01/2022	07/31/2022	60						01112						43044730						1						07/19/2022						5231						06/20/2022						5394						163						GAL							Past Due balances must be paid by 08/15/2022  in order to avoid a $50 fee and disconnection of water service.	If you would like to enroll in paperless billing or pay your bills online please visit www.eaglemountaincity.com	119305	08/01/2017		Single Graph				GAL To	30	7																		84043	0	JUL	JUN	MAY	APR	MAR	FEB	JAN	DEC	NOV	OCT	SEP	AUG		7	6	5	4	3	2	1	12	11	10	9	8	0	163	85	135	0	0	0	0	0	0	96	194	236	0	398	203	220	0	0	0	0	0	0	28	173	242	
115845	046	R5 VENTURES		 R5 VENTURES		PO BOX 1				LEHI UT 84043-1171	UT	84043-1171	01	8621 N COTTONWOOD ALLEY/ HWS 3 A-4	Water			Sewer	Penalty			Garbage Service	Garbage Fuel Charge		Storm Drain	Deployed Abatement	Deposit	Miscellaneous																										0	78.95	0.00CR				78.95	08/08/2022	08/31/2022	07/01/2022	07/31/2022																			0												0												0						0													Past Due balances must be paid by 08/15/2022  in order to avoid a $50 fee and disconnection of water service.	If you would like to enroll in paperless billing or pay your bills online please visit www.eaglemountaincity.com	115845	06/06/2019	78.95	Single Graph				GAL To	31	7																		84043	0	JUL	JUN	MAY	APR	MAR	FEB	JAN	DEC	NOV	OCT	SEP	AUG		7	6	5	4	3	2	1	12	11	10	9	8	0	0	0	0	0	0	0	0	0	0	0	0	0	0	0	0	0	0	0	0	0	0	0	0	0	0	
115845	055	R5 VENTURES		 R5 VENTURES		PO BOX 1				LEHI UT 84043-1171	UT	84043-1171	01	8630 N CYPRESS ALLEY/ HWS 3 B14	Water			Sewer	Penalty			Garbage Service	Garbage Fuel Charge		Storm Drain	Deployed Abatement	Deposit	Miscellaneous																										0	319.70	0.00CR				319.70	08/08/2022	08/31/2022	07/01/2022	07/31/2022																			0												0												0						0													Past Due balances must be paid by 08/15/2022  in order to avoid a $50 fee and disconnection of water service.	If you would like to enroll in paperless billing or pay your bills online please visit www.eaglemountaincity.com	115845	07/31/2019	319.70	Single Graph				GAL To	31	7																		84043	0	JUL	JUN	MAY	APR	MAR	FEB	JAN	DEC	NOV	OCT	SEP	AUG		7	6	5	4	3	2	1	12	11	10	9	8	0	0	0	0	0	0	0	0	0	0	0	0	0	0	0	0	0	0	0	0	0	0	0	0	0	0	
115845	085	R5 VENTURES		 R5 VENTURES		PO BOX 1				LEHI UT 84043-1171	UT	84043-1171	01	8685 N SHADOW CREEK ALLEY/ HWS 3 E 37	Water			Sewer	Penalty			Garbage Service	Garbage Fuel Charge		Storm Drain	Deployed Abatement	Deposit	Miscellaneous																										0	59.74	0.00CR				59.74	08/08/2022	08/31/2022	07/01/2022	07/31/2022																			0												0												0						0													Past Due balances must be paid by 08/15/2022  in order to avoid a $50 fee and disconnection of water service.	If you would like to enroll in paperless billing or pay your bills online please visit www.eaglemountaincity.com	115845	03/25/2021	59.74	Single Graph				GAL To	31	7																		84043	0	JUL	JUN	MAY	APR	MAR	FEB	JAN	DEC	NOV	OCT	SEP	AUG		7	6	5	4	3	2	1	12	11	10	9	8	0	0	0	0	0	0	0	0	0	0	0	0	0	0	0	0	0	0	0	0	0	0	0	0	0	0	
115845	052	R5 VENTURES		 R5 VENTURES		PO BOX 1				LEHI UT 84043-1171	UT	84043-1171	01	8636 N CYPRESS ALLEY/ HWS 3 B15	Water			Sewer	Penalty			Garbage Service	Garbage Fuel Charge		Storm Drain	Deployed Abatement	Deposit	Miscellaneous																										0	75.48	0.00CR				75.48	08/08/2022	08/31/2022	07/01/2022	07/31/2022																			0												0												0						0													Past Due balances must be paid by 08/15/2022  in order to avoid a $50 fee and disconnection of water service.	If you would like to enroll in paperless billing or pay your bills online please visit www.eaglemountaincity.com	115845	07/31/2019	75.48	Single Graph				GAL To	31	7																		84043	0	JUL	JUN	MAY	APR	MAR	FEB	JAN	DEC	NOV	OCT	SEP	AUG		7	6	5	4	3	2	1	12	11	10	9	8	0	0	0	0	0	0	0	0	0	0	0	0	0	0	0	0	0	0	0	0	0	0	0	0	0	0	
115845	050	R5 VENTURES		 R5 VENTURES		PO BOX 1				LEHI UT 84043-1171	UT	84043-1171	01	8627 N COTTONWOOD ALLEY/ HWS 3 A-3	Water			Sewer	Penalty			Garbage Service	Garbage Fuel Charge		Storm Drain	Deployed Abatement	Deposit	Miscellaneous																										0	207.82	0.00CR				207.82	08/08/2022	08/31/2022	07/01/2022	07/31/2022																			0												0												0						0													Past Due balances must be paid by 08/15/2022  in order to avoid a $50 fee and disconnection of water service.	If you would like to enroll in paperless billing or pay your bills online please visit www.eaglemountaincity.com	115845	06/06/2019	207.82	Single Graph				GAL To	31	7																		84043	0	JUL	JUN	MAY	APR	MAR	FEB	JAN	DEC	NOV	OCT	SEP	AUG		7	6	5	4	3	2	1	12	11	10	9	8	0	0	0	0	0	0	0	0	0	0	0	0	0	0	0	0	0	0	0	0	0	0	0	0	0	0	
115845	061	R5 VENTURES		 R5 VENTURES		PO BOX 1				LEHI UT 84043-1171	UT	84043-1171	01	8690 N OAKMONT ALLEY/ HWS 3 I67	Water			Sewer	Penalty			Garbage Service	Garbage Fuel Charge		Storm Drain	Deployed Abatement	Deposit	Miscellaneous																										0	53.34	0.00CR				53.34	08/08/2022	08/31/2022	07/01/2022	07/31/2022																			0												0												0						0													Past Due balances must be paid by 08/15/2022  in order to avoid a $50 fee and disconnection of water service.	If you would like to enroll in paperless billing or pay your bills online please visit www.eaglemountaincity.com	115845	12/03/2019	53.34	Single Graph				GAL To	31	7																		84043	0	JUL	JUN	MAY	APR	MAR	FEB	JAN	DEC	NOV	OCT	SEP	AUG		7	6	5	4	3	2	1	12	11	10	9	8	0	0	0	0	0	0	0	0	0	0	0	0	0	0	0	0	0	0	0	0	0	0	0	0	0	0	
115845	057	R5 VENTURES		 R5 VENTURES		PO BOX 1				LEHI UT 84043-1171	UT	84043-1171	01	8677 N OAKMONT ALLEY/ HWS 3 I70	Water			Sewer	Penalty			Garbage Service	Garbage Fuel Charge		Storm Drain	Deployed Abatement	Deposit	Miscellaneous																										0	93.35	0.00CR				93.35	08/08/2022	08/31/2022	07/01/2022	07/31/2022																			0												0												0						0													Past Due balances must be paid by 08/15/2022  in order to avoid a $50 fee and disconnection of water service.	If you would like to enroll in paperless billing or pay your bills online please visit www.eaglemountaincity.com	115845	12/03/2019	93.35	Single Graph				GAL To	31	7																		84043	0	JUL	JUN	MAY	APR	MAR	FEB	JAN	DEC	NOV	OCT	SEP	AUG		7	6	5	4	3	2	1	12	11	10	9	8	0	0	0	0	0	0	0	0	0	0	0	0	0	0	0	0	0	0	0	0	0	0	0	0	0	0	
115845	056	R5 VENTURES		 R5 VENTURES		PO BOX 1				LEHI UT 84043-1171	UT	84043-1171	01	8681 N OAKMONT ALLEY/ HWS 3 I71	Water			Sewer	Penalty			Garbage Service	Garbage Fuel Charge		Storm Drain	Deployed Abatement	Deposit	Miscellaneous																										0	61.88	0.00CR				61.88	08/08/2022	08/31/2022	07/01/2022	07/31/2022																			0												0												0						0													Past Due balances must be paid by 08/15/2022  in order to avoid a $50 fee and disconnection of water service.	If you would like to enroll in paperless billing or pay your bills online please visit www.eaglemountaincity.com	115845	12/03/2019	61.88	Single Graph				GAL To	31	7																		84043	0	JUL	JUN	MAY	APR	MAR	FEB	JAN	DEC	NOV	OCT	SEP	AUG		7	6	5	4	3	2	1	12	11	10	9	8	0	0	0	0	0	0	0	0	0	0	0	0	0	0	0	0	0	0	0	0	0	0	0	0	0	0	
115845	051	R5 VENTURES		 R5 VENTURES		PO BOX 1				LEHI UT 84043-1171	UT	84043-1171	01	8656 N CYPRESS ALLEY/ HWS 3 B18	Water			Sewer	Penalty			Garbage Service	Garbage Fuel Charge		Storm Drain	Deployed Abatement	Deposit	Miscellaneous																										0	133.08	0.00CR				133.08	08/08/2022	08/31/2022	07/01/2022	07/31/2022																			0												0												0						0													Past Due balances must be paid by 08/15/2022  in order to avoid a $50 fee and disconnection of water service.	If you would like to enroll in paperless billing or pay your bills online please visit www.eaglemountaincity.com	115845	07/31/2019	133.08	Single Graph				GAL To	31	7																		84043	0	JUL	JUN	MAY	APR	MAR	FEB	JAN	DEC	NOV	OCT	SEP	AUG		7	6	5	4	3	2	1	12	11	10	9	8	0	0	0	0	0	0	0	0	0	0	0	0	0	0	0	0	0	0	0	0	0	0	0	0	0	0	
115845	044	R5 VENTURES		 R5 VENTURES		PO BOX 1				LEHI UT 84043-1171	UT	84043-1171	01	8639 N CYPRESS ALLEY/ HWS 3 B12	Water			Sewer	Penalty			Garbage Service	Garbage Fuel Charge		Storm Drain	Deployed Abatement	Deposit	Miscellaneous																										0	81.08	0.00CR				81.08	08/08/2022	08/31/2022	07/01/2022	07/31/2022																			0												0												0						0													Past Due balances must be paid by 08/15/2022  in order to avoid a $50 fee and disconnection of water service.	If you would like to enroll in paperless billing or pay your bills online please visit www.eaglemountaincity.com	115845	06/06/2019	81.08	Single Graph				GAL To	31	7																		84043	0	JUL	JUN	MAY	APR	MAR	FEB	JAN	DEC	NOV	OCT	SEP	AUG		7	6	5	4	3	2	1	12	11	10	9	8	0	0	0	0	0	0	0	0	0	0	0	0	0	0	0	0	0	0	0	0	0	0	0	0	0	0	
115845	058	R5 VENTURES		 R5 VENTURES		PO BOX 1				LEHI UT 84043-1171	UT	84043-1171	01	8687 N OAKMONT ALLEY/ HWS 3 I72	Water			Sewer	Penalty			Garbage Service	Garbage Fuel Charge		Storm Drain	Deployed Abatement	Deposit	Miscellaneous																										0	53.34	0.00CR				53.34	08/08/2022	08/31/2022	07/01/2022	07/31/2022																			0												0												0						0													Past Due balances must be paid by 08/15/2022  in order to avoid a $50 fee and disconnection of water service.	If you would like to enroll in paperless billing or pay your bills online please visit www.eaglemountaincity.com	115845	12/03/2019	53.34	Single Graph				GAL To	31	7																		84043	0	JUL	JUN	MAY	APR	MAR	FEB	JAN	DEC	NOV	OCT	SEP	AUG		7	6	5	4	3	2	1	12	11	10	9	8	0	0	0	0	0	0	0	0	0	0	0	0	0	0	0	0	0	0	0	0	0	0	0	0	0	0	
115845	048	R5 VENTURES		 R5 VENTURES		PO BOX 1				LEHI UT 84043-1171	UT	84043-1171	01	8626 N COTTONWOOD ALLEY/ HWS 3 A-6	Water			Sewer	Penalty			Garbage Service	Garbage Fuel Charge		Storm Drain	Deployed Abatement	Deposit	Miscellaneous																										0	117.34	0.00CR				117.34	08/08/2022	08/31/2022	07/01/2022	07/31/2022																			0												0												0						0													Past Due balances must be paid by 08/15/2022  in order to avoid a $50 fee and disconnection of water service.	If you would like to enroll in paperless billing or pay your bills online please visit www.eaglemountaincity.com	115845	06/06/2019	117.34	Single Graph				GAL To	31	7																		84043	0	JUL	JUN	MAY	APR	MAR	FEB	JAN	DEC	NOV	OCT	SEP	AUG		7	6	5	4	3	2	1	12	11	10	9	8	0	0	0	0	0	0	0	0	0	0	0	0	0	0	0	0	0	0	0	0	0	0	0	0	0	0	
131074	000	GRAY	CHERRY	CHERRY GRAY		PO BOX 230				LEHI UT 84043-1175	UT	84043-1175	30	8045 N PLUM CREEK DR / PLCK F 3	Water			Sewer	Penalty			Garbage Service	Garbage Fuel Charge		Storm Drain	Deployed Abatement	Deposit	Miscellaneous							129.66			228.75							41.25		40.00	25.00						0		0.00CR		383.00	81.66	464.66	08/08/2022	08/31/2022	07/01/2022	07/31/2022	51						00003						89875774						1						07/20/2022						30						06/16/2022						32						2						GAL							Past Due balances must be paid by 08/15/2022  in order to avoid a $50 fee and disconnection of water service.	If you would like to enroll in paperless billing or pay your bills online please visit www.eaglemountaincity.com	131076	07/01/2022	383.00	Single Graph				GAL To	31	7																		84043	0	JUL	JUN	MAY	APR	MAR	FEB	JAN	DEC	NOV	OCT	SEP	AUG		7	6	5	4	3	2	1	12	11	10	9	8	0	2	0	0	0	0	0	0	0	0	0	0	0	0	0	0	0	0	0	0	0	0	0	0	0	0	
131074	001	GRAY	CHERRY	CHERRY GRAY		PO BOX 230				LEHI UT 84043-1175	UT	84043-1175	30	8061 N PLUM CREEK CIR/ PLCK E 4	Water			Sewer	Penalty			Garbage Service	Garbage Fuel Charge		Storm Drain	Deployed Abatement	Deposit	Miscellaneous							26.19			45.75							8.25									0		0.00CR			80.19	80.19	08/08/2022	08/31/2022	07/01/2022	07/31/2022	51						00004						29199340						1						07/19/2022						894						07/01/2022						894						0						GAL							Past Due balances must be paid by 08/15/2022  in order to avoid a $50 fee and disconnection of water service.	If you would like to enroll in paperless billing or pay your bills online please visit www.eaglemountaincity.com	131076	07/01/2022		Single Graph				GAL To	31	7																		84043	0	JUL	JUN	MAY	APR	MAR	FEB	JAN	DEC	NOV	OCT	SEP	AUG		7	6	5	4	3	2	1	12	11	10	9	8	0	0	0	0	0	0	0	0	0	0	0	0	0	0	0	0	0	0	0	0	0	0	0	0	0	0	
131074	002	GRAY	CHERRY	CHERRY GRAY		PO BOX 230				LEHI UT 84043-1175	UT	84043-1175	30	8075 N PLUM CREEK CIR/ PLCK D 2	Water			Sewer	Penalty			Garbage Service	Garbage Fuel Charge		Storm Drain	Deployed Abatement	Deposit	Miscellaneous							30.01			45.75							8.25									0		0.00CR			84.01	84.01	08/08/2022	08/31/2022	07/01/2022	07/31/2022	51						00202						30021281						1						07/19/2022						578						07/01/2022						582						4						GAL							Past Due balances must be paid by 08/15/2022  in order to avoid a $50 fee and disconnection of water service.	If you would like to enroll in paperless billing or pay your bills online please visit www.eaglemountaincity.com	131076	07/01/2022		Single Graph				GAL To	31	7																		84043	0	JUL	JUN	MAY	APR	MAR	FEB	JAN	DEC	NOV	OCT	SEP	AUG		7	6	5	4	3	2	1	12	11	10	9	8	0	4	0	0	0	0	0	0	0	0	0	0	0	0	0	0	0	0	0	0	0	0	0	0	0	0	
120361	001	RED CEDAR CORPORATION		 RED CEDAR CORPORATION		PO BOX 251				LEHI UT 84043-1177	UT	84043-1177	51	3375 E AUTUMN LN/ MR 137 BARN	Water			Sewer	Penalty			Garbage Service	Garbage Fuel Charge		Storm Drain	Deployed Abatement	Deposit	Miscellaneous							67.62										8.25									0	72.63	72.63CR			75.87	75.87	08/08/2022	08/31/2022	07/01/2022	07/31/2022	03						00137						88711164						1						07/20/2022						107						06/20/2022						146						39						GAL							Past Due balances must be paid by 08/15/2022  in order to avoid a $50 fee and disconnection of water service.	If you would like to enroll in paperless billing or pay your bills online please visit www.eaglemountaincity.com	120361	04/02/2018		Single Graph				GAL To	31	7																		84043	0	JUL	JUN	MAY	APR	MAR	FEB	JAN	DEC	NOV	OCT	SEP	AUG		7	6	5	4	3	2	1	12	11	10	9	8	0	39	36	30	14	1	2	2	2	2	1	3	1	0	2	2	2	3	3	1	2	3	1	1	3	0	
120361	000	RED CEDAR CORPORATION		 RED CEDAR CORPORATION		PO BOX 251				LEHI UT 84043-1177	UT	84043-1177	51	3375 E AUTUMN LN/ MR 137	Water			Sewer	Penalty			Garbage Service	Garbage Fuel Charge		Storm Drain	Deployed Abatement	Deposit	Miscellaneous							175.62							34.50			8.25									0	193.53	193.53CR			218.37	218.37	08/08/2022	08/31/2022	07/01/2022	07/31/2022	03						00137						76205650						1						07/20/2022						7463						06/20/2022						7601						138						GAL							Past Due balances must be paid by 08/15/2022  in order to avoid a $50 fee and disconnection of water service.	If you would like to enroll in paperless billing or pay your bills online please visit www.eaglemountaincity.com	120361	04/02/2018		Single Graph				GAL To	31	7																		84043	0	JUL	JUN	MAY	APR	MAR	FEB	JAN	DEC	NOV	OCT	SEP	AUG		7	6	5	4	3	2	1	12	11	10	9	8	0	138	116	54	51	40	34	43	26	34	115	159	78	0	90	98	55	33	27	32	43	40	43	133	146	200	
100433	003	COLONIAL PARK SUBDIVISION NEIG		 COLONIAL PARK SUBDIVISION NEIG	c/o ADVANCED COMMUNITY SERVICE	PO BOX 827				LEHI UT 84043-1184	UT	84043-1184	27	1796 AMERICAN NEXT TO UNIT 7	Water			Sewer	Penalty			Garbage Service	Garbage Fuel Charge		Storm Drain	Deployed Abatement	Deposit	Miscellaneous							259.40																			0	222.28	222.28CR			259.40	259.40	08/08/2022	08/31/2022	07/01/2022	07/31/2022	21						00002						45241391						1						07/18/2022						9188						06/17/2022						9405						216						GAL							Past Due balances must be paid by 08/15/2022  in order to avoid a $50 fee and disconnection of water service.	If you would like to enroll in paperless billing or pay your bills online please visit www.eaglemountaincity.com	100433	09/19/2013		Single Graph				GAL To	30	7																		84043	0	JUL	JUN	MAY	APR	MAR	FEB	JAN	DEC	NOV	OCT	SEP	AUG		7	6	5	4	3	2	1	12	11	10	9	8	0	216	182	0	1	0	0	0	0	0	116	295	344	0	401	270	32	2	0	0	0	0	0	177	403	347	
100433	004	COLONIAL PARK SUBDIVISION NEIG		 COLONIAL PARK SUBDIVISION NEIG	c/o ADVANCED COMMUNITY SERVICE	PO BOX 827				LEHI UT 84043-1184	UT	84043-1184	27	1805 N AMERICAN BETWEEN 7-8	Water			Sewer	Penalty			Garbage Service	Garbage Fuel Charge		Storm Drain	Deployed Abatement	Deposit	Miscellaneous							48.68																			0	32.72	32.72CR			48.68	48.68	08/08/2022	08/31/2022	07/01/2022	07/31/2022	02						00003						45241386						1						07/13/2022						4300						06/15/2022						4322						21						GAL							Past Due balances must be paid by 08/15/2022  in order to avoid a $50 fee and disconnection of water service.	If you would like to enroll in paperless billing or pay your bills online please visit www.eaglemountaincity.com	100433	09/19/2013		Single Graph				GAL To	30	7																		84043	0	JUL	JUN	MAY	APR	MAR	FEB	JAN	DEC	NOV	OCT	SEP	AUG		7	6	5	4	3	2	1	12	11	10	9	8	0	21	6	30	0	0	0	0	0	0	9	21	25	0	37	14	2	0	0	0	0	0	0	0	23	24	
100433	002	COLONIAL PARK SUBDIVISION NEIG		 COLONIAL PARK SUBDIVISION NEIG	c/o ADVANCED COMMUNITY SERVICE	PO BOX 827				LEHI UT 84043-1184	UT	84043-1184	27	1725 E HERITAGE DR	Water			Sewer	Penalty			Garbage Service	Garbage Fuel Charge		Storm Drain	Deployed Abatement	Deposit	Miscellaneous							61.46																			0	74.22	99.72CR			61.46	35.96	08/08/2022	08/31/2022	07/01/2022	07/31/2022	21						00001						40515369						1						07/20/2022						14615						06/17/2022						14649						33						GAL							Past Due balances must be paid by 08/15/2022  in order to avoid a $50 fee and disconnection of water service.	If you would like to enroll in paperless billing or pay your bills online please visit www.eaglemountaincity.com	100433	06/21/2011		Single Graph				GAL To	30	7																		84043	0	JUL	JUN	MAY	APR	MAR	FEB	JAN	DEC	NOV	OCT	SEP	AUG		7	6	5	4	3	2	1	12	11	10	9	8	0	33	21	0	0	0	0	0	0	0	15	61	70	0	93	52	4	0	0	0	0	0	0	34	84	100	
116041	007	PIONEER ADDITION HOA		 PIONEER ADDITION HOA		PO BOX 827				LEHI UT 84043-1184	UT	84043-1184	27	2329  E OX YOKE DR/ PARK	Water			Sewer	Penalty			Garbage Service	Garbage Fuel Charge		Storm Drain	Deployed Abatement	Deposit	Miscellaneous							170.84																			0	167.22	167.22CR			170.84	170.84	08/08/2022	08/31/2022	07/01/2022	07/31/2022	17						00001						47195816						1						07/15/2022						3299						06/16/2022						3434						134						GAL							Past Due balances must be paid by 08/15/2022  in order to avoid a $50 fee and disconnection of water service.	If you would like to enroll in paperless billing or pay your bills online please visit www.eaglemountaincity.com	116041	08/28/2015		Single Graph				GAL To	30	7																		84043	0	JUL	JUN	MAY	APR	MAR	FEB	JAN	DEC	NOV	OCT	SEP	AUG		7	6	5	4	3	2	1	12	11	10	9	8	0	134	131	47	4	0	0	0	0	0	35	77	68	0	75	69	50	11	0	0	0	0	0	50	99	106	
116041	004	PIONEER ADDITION HOA		 PIONEER ADDITION HOA		PO BOX 827				LEHI UT 84043-1184	UT	84043-1184	27	E SUMMIT WAY CENTER ISLAND	Water			Sewer	Penalty			Garbage Service	Garbage Fuel Charge		Storm Drain	Deployed Abatement	Deposit	Miscellaneous							25.50																			0	25.50	25.50CR			25.50	25.50	08/08/2022	08/31/2022	07/01/2022	07/31/2022	17						00001						79011319						1						07/15/2022						174						06/16/2022						174						0						GAL							Past Due balances must be paid by 08/15/2022  in order to avoid a $50 fee and disconnection of water service.	If you would like to enroll in paperless billing or pay your bills online please visit www.eaglemountaincity.com	116041	08/28/2015		Single Graph				GAL To	30	7																		84043	0	JUL	JUN	MAY	APR	MAR	FEB	JAN	DEC	NOV	OCT	SEP	AUG		7	6	5	4	3	2	1	12	11	10	9	8	0	0	0	0	0	0	0	0	0	0	1	3	2	0	3	2	2	0	0	0	0	0	0	2	2	0	
116041	003	PIONEER ADDITION HOA		 PIONEER ADDITION HOA		PO BOX 827				LEHI UT 84043-1184	UT	84043-1184	27	MOUNTAIN VIEW WY NW STRIP	Water			Sewer	Penalty			Garbage Service	Garbage Fuel Charge		Storm Drain	Deployed Abatement	Deposit	Miscellaneous							25.50																			0	33.06	33.06CR			25.50	25.50	08/08/2022	08/31/2022	07/01/2022	07/31/2022																			0												0												0						0													Past Due balances must be paid by 08/15/2022  in order to avoid a $50 fee and disconnection of water service.	If you would like to enroll in paperless billing or pay your bills online please visit www.eaglemountaincity.com	116041	07/31/2015		Single Graph				GAL To	30	7																		84043	0	JUL	JUN	MAY	APR	MAR	FEB	JAN	DEC	NOV	OCT	SEP	AUG		7	6	5	4	3	2	1	12	11	10	9	8	0	0	7	0	0	0	0	0	0	0	0	0	0	0	0	0	0	0	0	0	0	0	0	12	25	24	
116041	001	PIONEER ADDITION HOA		 PIONEER ADDITION HOA		PO BOX 827				LEHI UT 84043-1184	UT	84043-1184	27	ISLAND AT 2135 REVERE WAY	Water			Sewer	Penalty			Garbage Service	Garbage Fuel Charge		Storm Drain	Deployed Abatement	Deposit	Miscellaneous							25.50																			0	25.50	25.50CR			25.50	25.50	08/08/2022	08/31/2022	07/01/2022	07/31/2022	17						00001						78414101						1						07/15/2022						468						06/16/2022						468						0						GAL							Past Due balances must be paid by 08/15/2022  in order to avoid a $50 fee and disconnection of water service.	If you would like to enroll in paperless billing or pay your bills online please visit www.eaglemountaincity.com	116041	08/05/2015		Single Graph				GAL To	30	7																		84043	0	JUL	JUN	MAY	APR	MAR	FEB	JAN	DEC	NOV	OCT	SEP	AUG		7	6	5	4	3	2	1	12	11	10	9	8	0	0	0	0	0	0	0	0	0	0	1	3	2	0	2	3	1	0	0	0	0	0	0	3	3	3	
116041	006	PIONEER ADDITION HOA		 PIONEER ADDITION HOA		PO BOX 827				LEHI UT 84043-1184	UT	84043-1184	27	ISLAND AT 1839 INDEPENDENCE WAY	Water			Sewer	Penalty			Garbage Service	Garbage Fuel Charge		Storm Drain	Deployed Abatement	Deposit	Miscellaneous							25.50																			0	25.50	25.50CR			25.50	25.50	08/08/2022	08/31/2022	07/01/2022	07/31/2022	02						00001						79317589						1						07/13/2022						111						06/17/2022						111						0						GAL							Past Due balances must be paid by 08/15/2022  in order to avoid a $50 fee and disconnection of water service.	If you would like to enroll in paperless billing or pay your bills online please visit www.eaglemountaincity.com	116041	04/08/2015		Single Graph				GAL To	30	7																		84043	0	JUL	JUN	MAY	APR	MAR	FEB	JAN	DEC	NOV	OCT	SEP	AUG		7	6	5	4	3	2	1	12	11	10	9	8	0	0	0	0	0	0	0	0	0	0	0	0	0	0	0	0	-14	0	0	0	0	0	0	2	5	7	
116041	000	PIONEER ADDITION HOA		 PIONEER ADDITION HOA		PO BOX 827				LEHI UT 84043-1184	UT	84043-1184	27	ROUNDABOUT AT CHURCH WAY AND LIBERTY LN	Water			Sewer	Penalty			Garbage Service	Garbage Fuel Charge		Storm Drain	Deployed Abatement	Deposit	Miscellaneous							29.82																			0	30.90	30.90CR			29.82	29.82	08/08/2022	08/31/2022	07/01/2022	07/31/2022	17						00001						83790038						1						07/15/2022						101						06/16/2022						105						4						GAL							Past Due balances must be paid by 08/15/2022  in order to avoid a $50 fee and disconnection of water service.	If you would like to enroll in paperless billing or pay your bills online please visit www.eaglemountaincity.com	116041	08/21/2015		Single Graph				GAL To	30	7																		84043	0	JUL	JUN	MAY	APR	MAR	FEB	JAN	DEC	NOV	OCT	SEP	AUG		7	6	5	4	3	2	1	12	11	10	9	8	0	4	5	5	0	0	0	0	0	0	2	6	5	0	6	4	3	0	0	0	0	0	0	3	4	3	
116041	002	PIONEER ADDITION HOA		 PIONEER ADDITION HOA		PO BOX 827				LEHI UT 84043-1184	UT	84043-1184	27	MOUNTAIN VIEW WY CENTER ISLAND	Water			Sewer	Penalty			Garbage Service	Garbage Fuel Charge		Storm Drain	Deployed Abatement	Deposit	Miscellaneous							25.50																			0	25.50	25.50CR			25.50	25.50	08/08/2022	08/31/2022	07/01/2022	07/31/2022																			0												0												0						0													Past Due balances must be paid by 08/15/2022  in order to avoid a $50 fee and disconnection of water service.	If you would like to enroll in paperless billing or pay your bills online please visit www.eaglemountaincity.com	116041	07/30/2015		Single Graph				GAL To	30	7																		84043	0	JUL	JUN	MAY	APR	MAR	FEB	JAN	DEC	NOV	OCT	SEP	AUG		7	6	5	4	3	2	1	12	11	10	9	8	0	0	0	0	0	0	0	0	0	0	0	0	0	0	40	64	-104	0	3	0	0	0	0	0	0	37	
116041	005	PIONEER ADDITION HOA		 PIONEER ADDITION HOA		PO BOX 827				LEHI UT 84043-1184	UT	84043-1184	27	N ISLAND W JORDAN WY &  MOUNTAIN VIEW WY	Water			Sewer	Penalty			Garbage Service	Garbage Fuel Charge		Storm Drain	Deployed Abatement	Deposit	Miscellaneous							33.06																			0	33.06	33.06CR			33.06	33.06	08/08/2022	08/31/2022	07/01/2022	07/31/2022	44						00001						77652109						1						07/15/2022						48						06/16/2022						55						7						GAL							Past Due balances must be paid by 08/15/2022  in order to avoid a $50 fee and disconnection of water service.	If you would like to enroll in paperless billing or pay your bills online please visit www.eaglemountaincity.com	116041	04/08/2015		Single Graph				GAL To	30	7																		84043	0	JUL	JUN	MAY	APR	MAR	FEB	JAN	DEC	NOV	OCT	SEP	AUG		7	6	5	4	3	2	1	12	11	10	9	8	0	7	7	7	0	0	0	0	0	0	1	0	1	0	0	0	0	0	0	0	0	0	0	1	3	6	
119811	000	SIMPSON HOLLOW LLC		 SIMPSON HOLLOW LLC		PO BOX 827				LEHI UT 84043-1184	UT	84043-1184	27	8228 N ST CECILIA ST/ SH LNDSCP	Water			Sewer	Penalty			Garbage Service	Garbage Fuel Charge		Storm Drain	Deployed Abatement	Deposit	Miscellaneous							337.62																			0	213.00	25.50CR	15.00		337.62	540.12	08/08/2022	08/31/2022	07/01/2022	07/31/2022	38						LNDSP						91196152						1						07/20/2022						2070						06/20/2022						2359						289						GAL							Past Due balances must be paid by 08/15/2022  in order to avoid a $50 fee and disconnection of water service.	If you would like to enroll in paperless billing or pay your bills online please visit www.eaglemountaincity.com	119811	06/09/2020	202.50	Single Graph				GAL To	30	7																		84043	0	JUL	JUN	MAY	APR	MAR	FEB	JAN	DEC	NOV	OCT	SEP	AUG		7	6	5	4	3	2	1	12	11	10	9	8	0	289	150	0	0	0	0	0	0	0	48	148	253	0	340	146	49	0	0	0	0	0	6	171	257	294	
119811	001	SIMPSON HOLLOW LLC		 SIMPSON HOLLOW LLC		PO BOX 827				LEHI UT 84043-1184	UT	84043-1184	27	3320 E GALLIO AVE/ SH CLUBHOUSE	Water			Sewer	Penalty			Garbage Service	Garbage Fuel Charge		Storm Drain	Deployed Abatement	Deposit	Miscellaneous							27.66			45.75							8.25									0	174.00	79.50CR	15.00		81.66	191.16	08/08/2022	08/31/2022	07/01/2022	07/31/2022	38						CLBHS						87991042						1						07/20/2022						3						06/20/2022						5						2						GAL							Past Due balances must be paid by 08/15/2022  in order to avoid a $50 fee and disconnection of water service.	If you would like to enroll in paperless billing or pay your bills online please visit www.eaglemountaincity.com	119811	10/23/2020	109.50	Single Graph				GAL To	30	7																		84043	0	JUL	JUN	MAY	APR	MAR	FEB	JAN	DEC	NOV	OCT	SEP	AUG		7	6	5	4	3	2	1	12	11	10	9	8	0	2	0	0	0	0	1	0	0	0	0	0	0	0	0	0	0	0	0	1	0	0	0	0	0	0	
003949	022	WILLOW SPRINGS HOA		 WILLOW SPRINGS HOA	c/o	PO BOX 827				LEHI UT 84043-1184	UT	84043-1184	27	8204 N CEDAR SPRINGS RD/ WS U	Water			Sewer	Penalty			Garbage Service	Garbage Fuel Charge		Storm Drain	Deployed Abatement	Deposit	Miscellaneous							306.00			549.00							107.25									0	2164.48	1187.23CR	65.00		962.25	2004.50	08/08/2022	08/31/2022	07/01/2022	07/31/2022																			0												0												0						0													Past Due balances must be paid by 08/15/2022  in order to avoid a $50 fee and disconnection of water service.	If you would like to enroll in paperless billing or pay your bills online please visit www.eaglemountaincity.com	3949	08/14/2007	1042.25	Single Graph				GAL To	30	7																		84043	0	JUL	JUN	MAY	APR	MAR	FEB	JAN	DEC	NOV	OCT	SEP	AUG		7	6	5	4	3	2	1	12	11	10	9	8	0	0	196	0	88	0	18	45	28	29	24	57	72	0	128	74	49	30	46	42	45	53	76	121	155	120	
003949	006	WILLOW SPRINGS HOA		 WILLOW SPRINGS HOA	c/o	PO BOX 827				LEHI UT 84043-1184	UT	84043-1184	27	8096 N RIDGE LOOP E/ WS D	Water			Sewer	Penalty			Garbage Service	Garbage Fuel Charge		Storm Drain	Deployed Abatement	Deposit	Miscellaneous							435.59			549.00							107.25									0	345.95	345.95CR			1091.84	1091.84	08/08/2022	08/31/2022	07/01/2022	07/31/2022	40						00064						43873736						1						07/19/2022						11369						06/20/2022						11486						117						GAL							Past Due balances must be paid by 08/15/2022  in order to avoid a $50 fee and disconnection of water service.	If you would like to enroll in paperless billing or pay your bills online please visit www.eaglemountaincity.com	3949	02/01/2001		Single Graph			4000510	GAL To	30	7																		84043	0	JUL	JUN	MAY	APR	MAR	FEB	JAN	DEC	NOV	OCT	SEP	AUG		7	6	5	4	3	2	1	12	11	10	9	8	0	117	109	72	82	23	23	29	22	23	45	56	145	0	169	111	34	26	24	27	29	23	50	126	148	174	
003949	008	WILLOW SPRINGS HOA		 WILLOW SPRINGS HOA	c/o	PO BOX 827				LEHI UT 84043-1184	UT	84043-1184	27	8066 N RIDGE LOOP E/ WS E	Water			Sewer	Penalty			Garbage Service	Garbage Fuel Charge		Storm Drain	Deployed Abatement	Deposit	Miscellaneous							393.58			549.00							99.00									0	1065.25	1065.25CR			1041.58	1041.58	08/08/2022	08/31/2022	07/01/2022	07/31/2022	40						00077						43589783						1						07/19/2022						7636						06/20/2022						7716						80						GAL							Past Due balances must be paid by 08/15/2022  in order to avoid a $50 fee and disconnection of water service.	If you would like to enroll in paperless billing or pay your bills online please visit www.eaglemountaincity.com	3949	03/07/2001		Single Graph			4000780	GAL To	30	7																		84043	0	JUL	JUN	MAY	APR	MAR	FEB	JAN	DEC	NOV	OCT	SEP	AUG		7	6	5	4	3	2	1	12	11	10	9	8	0	80	87	70	35	31	28	34	29	34	44	67	75	0	91	82	31	31	21	25	32	27	55	101	112	122	
003949	009	WILLOW SPRINGS HOA		 WILLOW SPRINGS HOA	c/o	PO BOX 827				LEHI UT 84043-1184	UT	84043-1184	27	8083 N RIDGE LOOP E/ WS I	Water			Sewer	Penalty			Garbage Service	Garbage Fuel Charge		Storm Drain	Deployed Abatement	Deposit	Miscellaneous							422.78			549.00							107.25									0	2156.54	3224.71CR	15.00		1079.03	25.86	08/08/2022	08/31/2022	07/01/2022	07/31/2022	40						00116						17059035						1						07/19/2022						3927						06/20/2022						4033						105						GAL							Past Due balances must be paid by 08/15/2022  in order to avoid a $50 fee and disconnection of water service.	If you would like to enroll in paperless billing or pay your bills online please visit www.eaglemountaincity.com	3949	05/01/2001		Single Graph			4000920	GAL To	30	7																		84043	0	JUL	JUN	MAY	APR	MAR	FEB	JAN	DEC	NOV	OCT	SEP	AUG		7	6	5	4	3	2	1	12	11	10	9	8	0	105	100	96	47	36	35	45	33	34	53	104	126	0	149	102	4	37	31	35	40	34	58	123	125	151	
003949	004	WILLOW SPRINGS HOA		 WILLOW SPRINGS HOA	c/o	PO BOX 827				LEHI UT 84043-1184	UT	84043-1184	27	8246 N CEDAR SPRINGS RD/ WS S	Water			Sewer	Penalty			Garbage Service	Garbage Fuel Charge		Storm Drain	Deployed Abatement	Deposit	Miscellaneous							306.00			549.00							107.25									0	2370.32	1393.07CR	65.00		962.25	2004.50	08/08/2022	08/31/2022	07/01/2022	07/31/2022																			0												0												0						0													Past Due balances must be paid by 08/15/2022  in order to avoid a $50 fee and disconnection of water service.	If you would like to enroll in paperless billing or pay your bills online please visit www.eaglemountaincity.com	3949	11/28/2005	1042.25	Single Graph				GAL To	30	7																		84043	0	JUL	JUN	MAY	APR	MAR	FEB	JAN	DEC	NOV	OCT	SEP	AUG		7	6	5	4	3	2	1	12	11	10	9	8	0	0	362	0	220	0	123	49	16	73	74	105	102	0	104	128	85	65	96	138	49	53	70	231	261	194	
003949	015	WILLOW SPRINGS HOA		 WILLOW SPRINGS HOA	c/o	PO BOX 827				LEHI UT 84043-1184	UT	84043-1184	27	8058 N RIDGE LOOP W/ WS L	Water			Sewer	Penalty			Garbage Service	Garbage Fuel Charge		Storm Drain	Deployed Abatement	Deposit	Miscellaneous							306.00			549.00							107.25									0	1088.43	1073.43CR			962.25	977.25	08/08/2022	08/31/2022	07/01/2022	07/31/2022	40						00156						4000145						1												0												0						0						GAL							Past Due balances must be paid by 08/15/2022  in order to avoid a $50 fee and disconnection of water service.	If you would like to enroll in paperless billing or pay your bills online please visit www.eaglemountaincity.com	3949	11/01/2001	15.00	Single Graph				GAL To	30	7																		84043	0	JUL	JUN	MAY	APR	MAR	FEB	JAN	DEC	NOV	OCT	SEP	AUG		7	6	5	4	3	2	1	12	11	10	9	8	0	0	101	0	96	0	1	50	4	18	23	73	64	0	72	70	31	20	18	0	50	23	19	84	94	77	
003949	029	WILLOW SPRINGS HOA		 WILLOW SPRINGS HOA	c/o	PO BOX 827				LEHI UT 84043-1184	UT	84043-1184	27	8212 N CEDAR SPRINGS RD/ WS Z	Water			Sewer	Penalty			Garbage Service	Garbage Fuel Charge		Storm Drain	Deployed Abatement	Deposit	Miscellaneous							391.64			549.00							107.25									0	1071.22	1056.22CR			1047.89	1062.89	08/08/2022	08/31/2022	07/01/2022	07/31/2022	40						00013						35712974						2						07/20/2022						9779						06/20/2022						9858						78						Kilowatt							Past Due balances must be paid by 08/15/2022  in order to avoid a $50 fee and disconnection of water service.	If you would like to enroll in paperless billing or pay your bills online please visit www.eaglemountaincity.com	3949	06/01/2014	15.00	Single Graph				GAL To	30	7																		84043	0	JUL	JUN	MAY	APR	MAR	FEB	JAN	DEC	NOV	OCT	SEP	AUG		7	6	5	4	3	2	1	12	11	10	9	8	0	78	85	76	51	37	36	47	54	38	43	61	85	0	105	70	38	47	37	41	46	36	58	71	113	136	
003949	011	WILLOW SPRINGS HOA		 WILLOW SPRINGS HOA	c/o	PO BOX 827				LEHI UT 84043-1184	UT	84043-1184	27	8116 N RIDGE LOOP W/ WS N	Water			Sewer	Penalty			Garbage Service	Garbage Fuel Charge		Storm Drain	Deployed Abatement	Deposit	Miscellaneous							498.24			549.00							107.25									0	1212.27	1197.27CR	15.00		1154.49	1184.49	08/08/2022	08/31/2022	07/01/2022	07/31/2022	40						00171						43873735						1						07/19/2022						11758						06/20/2022						11928						169						GAL							Past Due balances must be paid by 08/15/2022  in order to avoid a $50 fee and disconnection of water service.	If you would like to enroll in paperless billing or pay your bills online please visit www.eaglemountaincity.com	3949	06/01/2001	30.00	Single Graph			4001190	GAL To	30	7																		84043	0	JUL	JUN	MAY	APR	MAR	FEB	JAN	DEC	NOV	OCT	SEP	AUG		7	6	5	4	3	2	1	12	11	10	9	8	0	169	204	75	93	120	102	127	102	107	116	202	161	0	260	236	98	131	102	101	141	113	156	195	192	196	
003949	014	WILLOW SPRINGS HOA		 WILLOW SPRINGS HOA	c/o	PO BOX 827				LEHI UT 84043-1184	UT	84043-1184	27	8086 N RIDGE LOOP W/ WS M	Water			Sewer	Penalty			Garbage Service	Garbage Fuel Charge		Storm Drain	Deployed Abatement	Deposit	Miscellaneous							349.42			549.00							107.25									0	1028.23	1028.23CR	15.00		1005.67	1020.67	08/08/2022	08/31/2022	07/01/2022	07/31/2022	40						00184						353510770						1						07/19/2022						4792						06/20/2022						4833						40						GAL							Past Due balances must be paid by 08/15/2022  in order to avoid a $50 fee and disconnection of water service.	If you would like to enroll in paperless billing or pay your bills online please visit www.eaglemountaincity.com	3949	08/30/2001	15.00	Single Graph				GAL To	30	7																		84043	0	JUL	JUN	MAY	APR	MAR	FEB	JAN	DEC	NOV	OCT	SEP	AUG		7	6	5	4	3	2	1	12	11	10	9	8	0	40	47	40	57	40	40	53	38	44	41	45	39	0	41	39	42	54	40	37	41	36	41	33	34	39	
003949	012	WILLOW SPRINGS HOA		 WILLOW SPRINGS HOA	c/o	PO BOX 827				LEHI UT 84043-1184	UT	84043-1184	27	3365 E RIDGE LOOP W/ WS K	Water			Sewer	Penalty			Garbage Service	Garbage Fuel Charge		Storm Drain	Deployed Abatement	Deposit	Miscellaneous							306.00			549.00							107.25									0	2090.39	1113.14CR	65.00		962.25	2004.50	08/08/2022	08/31/2022	07/01/2022	07/31/2022																			0												0												0						0													Past Due balances must be paid by 08/15/2022  in order to avoid a $50 fee and disconnection of water service.	If you would like to enroll in paperless billing or pay your bills online please visit www.eaglemountaincity.com	3949	08/22/2001	1042.25	Single Graph				GAL To	30	7																		84043	0	JUL	JUN	MAY	APR	MAR	FEB	JAN	DEC	NOV	OCT	SEP	AUG		7	6	5	4	3	2	1	12	11	10	9	8	0	0	135	0	101	0	42	50	20	47	42	113	99	0	188	84	55	24	41	26	50	50	14	144	185	187	
003949	001	WILLOW SPRINGS HOA		 WILLOW SPRINGS HOA	c/o	PO BOX 827				LEHI UT 84043-1184	UT	84043-1184	27	8196 N CEDAR SPRINGS RD/ WS Q	Water			Sewer	Penalty			Garbage Service	Garbage Fuel Charge		Storm Drain	Deployed Abatement	Deposit	Miscellaneous							365.49			549.00							107.25									0	2075.91	1034.35CR	65.00		1021.74	2128.30	08/08/2022	08/31/2022	07/01/2022	07/31/2022	40						00800						18819662						1						07/19/2022						9336						06/20/2022						9391						55						GAL							Past Due balances must be paid by 08/15/2022  in order to avoid a $50 fee and disconnection of water service.	If you would like to enroll in paperless billing or pay your bills online please visit www.eaglemountaincity.com	3949	09/21/2004	1106.56	Single Graph				GAL To	30	7																		84043	0	JUL	JUN	MAY	APR	MAR	FEB	JAN	DEC	NOV	OCT	SEP	AUG		7	6	5	4	3	2	1	12	11	10	9	8	0	55	66	59	36	24	25	30	23	25	31	50	50	0	70	62	32	32	22	26	33	29	52	79	83	97	
003949	007	WILLOW SPRINGS HOA		 WILLOW SPRINGS HOA	c/o	PO BOX 827				LEHI UT 84043-1184	UT	84043-1184	27	8084 N RIDGE LOOP E/ WS F	Water			Sewer	Penalty			Garbage Service	Garbage Fuel Charge		Storm Drain	Deployed Abatement	Deposit	Miscellaneous							403.16			549.00							107.25									0	1111.60	1096.60CR			1059.41	1074.41	08/08/2022	08/31/2022	07/01/2022	07/31/2022	40						00090						43873733						1						07/19/2022						11467						06/20/2022						11556						88						GAL							Past Due balances must be paid by 08/15/2022  in order to avoid a $50 fee and disconnection of water service.	If you would like to enroll in paperless billing or pay your bills online please visit www.eaglemountaincity.com	3949	02/01/2001	15.00	Single Graph			4000640	GAL To	30	7																		84043	0	JUL	JUN	MAY	APR	MAR	FEB	JAN	DEC	NOV	OCT	SEP	AUG		7	6	5	4	3	2	1	12	11	10	9	8	0	88	121	99	47	30	28	40	31	42	65	99	144	0	165	110	46	66	52	53	76	61	108	228	252	301	
003949	013	WILLOW SPRINGS HOA		 WILLOW SPRINGS HOA	c/o	PO BOX 827				LEHI UT 84043-1184	UT	84043-1184	27	8088 N RIDGE LOOP W/ WS H	Water			Sewer	Penalty			Garbage Service	Garbage Fuel Charge		Storm Drain	Deployed Abatement	Deposit	Miscellaneous							391.70			549.00							107.25									0	1090.06	1090.06CR	15.00		1047.95	1062.95	08/08/2022	08/31/2022	07/01/2022	07/31/2022	40						00103						47095806						1						07/19/2022						5357						06/20/2022						5435						78						GAL							Past Due balances must be paid by 08/15/2022  in order to avoid a $50 fee and disconnection of water service.	If you would like to enroll in paperless billing or pay your bills online please visit www.eaglemountaincity.com	3949	09/06/2001	15.00	Single Graph				GAL To	30	7																		84043	0	JUL	JUN	MAY	APR	MAR	FEB	JAN	DEC	NOV	OCT	SEP	AUG		7	6	5	4	3	2	1	12	11	10	9	8	0	78	102	51	60	52	45	60	37	40	51	80	69	0	71	120	0	70	46	43	57	45	57	89	96	110	
003949	025	WILLOW SPRINGS HOA		 WILLOW SPRINGS HOA	c/o	PO BOX 827				LEHI UT 84043-1184	UT	84043-1184	27	8176 N CEDAR SPRINGS RD/ WS V	Water			Sewer	Penalty			Garbage Service	Garbage Fuel Charge		Storm Drain	Deployed Abatement	Deposit	Miscellaneous							467.54			549.00							99.00									0	1157.14	1157.14CR			1115.54	1115.54	08/08/2022	08/31/2022	07/01/2022	07/31/2022	40						00005						34034047						1						07/20/2022						13558						06/20/2022						13702						143						GAL							Past Due balances must be paid by 08/15/2022  in order to avoid a $50 fee and disconnection of water service.	If you would like to enroll in paperless billing or pay your bills online please visit www.eaglemountaincity.com	3949	07/18/2008		Single Graph				GAL To	30	7																		84043	0	JUL	JUN	MAY	APR	MAR	FEB	JAN	DEC	NOV	OCT	SEP	AUG		7	6	5	4	3	2	1	12	11	10	9	8	0	143	166	149	101	25	27	38	29	30	90	141	174	0	178	101	42	42	33	36	46	29	116	213	212	250	
003949	000	WILLOW SPRINGS HOA		 WILLOW SPRINGS HOA	c/o	PO BOX 827				LEHI UT 84043-1184	UT	84043-1184	27	8122 N RIDGE LOOP E/ WS A	Water			Sewer	Penalty			Garbage Service	Garbage Fuel Charge		Storm Drain	Deployed Abatement	Deposit	Miscellaneous							490.33			549.00							107.25									0	2188.34	2188.34CR	50.00		1146.58	1196.58	08/08/2022	08/31/2022	07/01/2022	07/31/2022	40						00013						43589791						1						07/19/2022						11621						06/20/2022						11784						163						GAL							Past Due balances must be paid by 08/15/2022  in order to avoid a $50 fee and disconnection of water service.	If you would like to enroll in paperless billing or pay your bills online please visit www.eaglemountaincity.com	3949	11/13/2000	50.00	Single Graph			4000120	GAL To	30	7																		84043	0	JUL	JUN	MAY	APR	MAR	FEB	JAN	DEC	NOV	OCT	SEP	AUG		7	6	5	4	3	2	1	12	11	10	9	8	0	163	137	87	72	51	47	55	41	47	51	117	146	0	166	157	60	53	48	38	50	38	72	158	171	190	
003949	018	WILLOW SPRINGS HOA		 WILLOW SPRINGS HOA	c/o	PO BOX 827				LEHI UT 84043-1184	UT	84043-1184	27	3397 E RIDGE ROUTE RD/ WS O	Water			Sewer	Penalty			Garbage Service	Garbage Fuel Charge		Storm Drain	Deployed Abatement	Deposit	Miscellaneous							625.02			549.00							107.25									0	1337.45	1337.45CR			1281.27	1281.27	08/08/2022	08/31/2022	07/01/2022	07/31/2022	40						00204						24880986						1						07/19/2022						22825						06/20/2022						23097						271						GAL							Past Due balances must be paid by 08/15/2022  in order to avoid a $50 fee and disconnection of water service.	If you would like to enroll in paperless billing or pay your bills online please visit www.eaglemountaincity.com	3949	01/02/2003		Single Graph				GAL To	30	7																		84043	0	JUL	JUN	MAY	APR	MAR	FEB	JAN	DEC	NOV	OCT	SEP	AUG		7	6	5	4	3	2	1	12	11	10	9	8	0	271	305	250	199	144	123	123	76	62	80	171	191	0	219	134	48	43	28	32	39	32	81	228	394	452	
003949	017	WILLOW SPRINGS HOA		 WILLOW SPRINGS HOA	c/o	PO BOX 827				LEHI UT 84043-1184	UT	84043-1184	27	3314 E SOUTH RIDGE RD/ WS G	Water			Sewer	Penalty			Garbage Service	Garbage Fuel Charge		Storm Drain	Deployed Abatement	Deposit	Miscellaneous							532.64			549.00							107.25									0	1250.52	1250.52CR			1188.89	1188.89	08/08/2022	08/31/2022	07/01/2022	07/31/2022	40						00203						17515732						1						07/20/2022						7683						06/20/2022						7880						197						GAL							Past Due balances must be paid by 08/15/2022  in order to avoid a $50 fee and disconnection of water service.	If you would like to enroll in paperless billing or pay your bills online please visit www.eaglemountaincity.com	3949	08/09/2002		Single Graph				GAL To	30	7																		84043	0	JUL	JUN	MAY	APR	MAR	FEB	JAN	DEC	NOV	OCT	SEP	AUG		7	6	5	4	3	2	1	12	11	10	9	8	0	197	234	199	62	41	41	56	42	46	98	174	207	0	261	166	39	52	42	80	141	105	167	280	300	336	
003949	023	WILLOW SPRINGS HOA		 WILLOW SPRINGS HOA	c/o	PO BOX 827				LEHI UT 84043-1184	UT	84043-1184	27	3445 E RIDGE ROUTE RD/ WS W	Water			Sewer	Penalty			Garbage Service	Garbage Fuel Charge		Storm Drain	Deployed Abatement	Deposit	Miscellaneous							371.97			549.00							107.25									0	1047.06	1047.06CR			1028.22	1028.22	08/08/2022	08/31/2022	07/01/2022	07/31/2022	40						00123						79639979						1						07/19/2022						9043						06/20/2022						9104						61						GAL							Past Due balances must be paid by 08/15/2022  in order to avoid a $50 fee and disconnection of water service.	If you would like to enroll in paperless billing or pay your bills online please visit www.eaglemountaincity.com	3949	08/15/2007		Single Graph				GAL To	30	7																		84043	0	JUL	JUN	MAY	APR	MAR	FEB	JAN	DEC	NOV	OCT	SEP	AUG		7	6	5	4	3	2	1	12	11	10	9	8	0	61	64	60	34	20	19	29	22	23	39	51	46	0	52	46	24	29	26	24	29	26	40	90	88	110	
003949	016	WILLOW SPRINGS HOA		 WILLOW SPRINGS HOA	c/o	PO BOX 827				LEHI UT 84043-1184	UT	84043-1184	27	PARK BY CLUBHOUSE	Water			Sewer	Penalty			Garbage Service	Garbage Fuel Charge		Storm Drain	Deployed Abatement	Deposit	Miscellaneous							104.72										8.25									0	62.02	62.02CR			112.97	112.97	08/08/2022	08/31/2022	07/01/2022	07/31/2022	40						20000						36315137						1						07/19/2022						6000						06/20/2022						6074						73						GAL							Past Due balances must be paid by 08/15/2022  in order to avoid a $50 fee and disconnection of water service.	If you would like to enroll in paperless billing or pay your bills online please visit www.eaglemountaincity.com	3949	04/01/2002		Single Graph				GAL To	30	7																		84043	0	JUL	JUN	MAY	APR	MAR	FEB	JAN	DEC	NOV	OCT	SEP	AUG		7	6	5	4	3	2	1	12	11	10	9	8	0	73	26	27	0	0	0	0	0	0	20	67	94	0	106	69	0	0	0	0	0	0	19	98	105	123	
003949	010	WILLOW SPRINGS HOA		 WILLOW SPRINGS HOA	c/o	PO BOX 827				LEHI UT 84043-1184	UT	84043-1184	27	8043 N RIDGE LOOP E/ WS J	Water			Sewer	Penalty			Garbage Service	Garbage Fuel Charge		Storm Drain	Deployed Abatement	Deposit	Miscellaneous							306.00			549.00							107.25									0	2422.40	1445.15CR	65.00		962.25	2004.50	08/08/2022	08/31/2022	07/01/2022	07/31/2022																			0												0												0						0													Past Due balances must be paid by 08/15/2022  in order to avoid a $50 fee and disconnection of water service.	If you would like to enroll in paperless billing or pay your bills online please visit www.eaglemountaincity.com	3949	05/01/2001	1042.25	Single Graph			4001050	GAL To	30	7																		84043	0	JUL	JUN	MAY	APR	MAR	FEB	JAN	DEC	NOV	OCT	SEP	AUG		7	6	5	4	3	2	1	12	11	10	9	8	0	0	404	0	140	0	50	62	18	41	55	184	172	0	321	175	63	42	56	44	62	49	84	151	209	258	
003949	002	WILLOW SPRINGS HOA		 WILLOW SPRINGS HOA	c/o	PO BOX 827				LEHI UT 84043-1184	UT	84043-1184	27	3371 E RIDGE ROUTE RD/ WS P	Water			Sewer	Penalty			Garbage Service	Garbage Fuel Charge		Storm Drain	Deployed Abatement	Deposit	Miscellaneous							351.25			549.00							107.25									0	1027.79	1027.79CR			1007.50	1007.50	08/08/2022	08/31/2022	07/01/2022	07/31/2022	40						00218						43589793						1						07/19/2022						5812						06/20/2022						5854						41						GAL							Past Due balances must be paid by 08/15/2022  in order to avoid a $50 fee and disconnection of water service.	If you would like to enroll in paperless billing or pay your bills online please visit www.eaglemountaincity.com	3949	10/31/2004		Single Graph				GAL To	30	7																		84043	0	JUL	JUN	MAY	APR	MAR	FEB	JAN	DEC	NOV	OCT	SEP	AUG		7	6	5	4	3	2	1	12	11	10	9	8	0	41	46	50	92	46	42	56	37	37	40	50	43	0	53	77	68	92	68	71	93	69	79	65	60	74	
003949	003	WILLOW SPRINGS HOA		 WILLOW SPRINGS HOA	c/o	PO BOX 827				LEHI UT 84043-1184	UT	84043-1184	27	3452 E RIDGE ROUTE RD/ WS B	Water			Sewer	Penalty			Garbage Service	Garbage Fuel Charge		Storm Drain	Deployed Abatement	Deposit	Miscellaneous							401.79			549.00							107.25									0	2122.87	2107.87CR	15.00		1058.04	1088.04	08/08/2022	08/31/2022	07/01/2022	07/31/2022	40						00026						43873737						1						07/20/2022						8904						06/20/2022						8992						87						GAL							Past Due balances must be paid by 08/15/2022  in order to avoid a $50 fee and disconnection of water service.	If you would like to enroll in paperless billing or pay your bills online please visit www.eaglemountaincity.com	3949	11/01/2000	30.00	Single Graph			4000250	GAL To	30	7																		84043	0	JUL	JUN	MAY	APR	MAR	FEB	JAN	DEC	NOV	OCT	SEP	AUG		7	6	5	4	3	2	1	12	11	10	9	8	0	87	84	83	60	45	40	48	39	42	47	71	98	0	126	90	44	50	37	39	52	39	58	101	104	119	
003949	005	WILLOW SPRINGS HOA		 WILLOW SPRINGS HOA	c/o	PO BOX 827				LEHI UT 84043-1184	UT	84043-1184	27	3478 E RIDGE ROUTE RD/ WS C	Water			Sewer	Penalty			Garbage Service	Garbage Fuel Charge		Storm Drain	Deployed Abatement	Deposit	Miscellaneous							410.34			549.00							107.25									0	1093.90	1093.90CR			1066.59	1066.59	08/08/2022	08/31/2022	07/01/2022	07/31/2022	40						00039						35310757						1						07/20/2022						5310						06/20/2022						5405						95						GAL							Past Due balances must be paid by 08/15/2022  in order to avoid a $50 fee and disconnection of water service.	If you would like to enroll in paperless billing or pay your bills online please visit www.eaglemountaincity.com	3949	11/01/2000		Single Graph			4000380	GAL To	30	7																		84043	0	JUL	JUN	MAY	APR	MAR	FEB	JAN	DEC	NOV	OCT	SEP	AUG		7	6	5	4	3	2	1	12	11	10	9	8	0	95	105	87	52	33	31	43	29	26	34	58	116	0	145	98	41	39	26	32	39	34	60	132	137	162	
003949	024	WILLOW SPRINGS HOA		 WILLOW SPRINGS HOA	c/o	PO BOX 827				LEHI UT 84043-1184	UT	84043-1184	27	8198 N CEDAR SPRINGS RD/ WS T	Water			Sewer	Penalty			Garbage Service	Garbage Fuel Charge		Storm Drain	Deployed Abatement	Deposit	Miscellaneous							382.22			549.00							107.25									0	1085.20	1085.20CR			1038.47	1038.47	08/08/2022	08/31/2022	07/01/2022	07/31/2022	40						15000						32993952						1						07/19/2022						13715						06/20/2022						13785						70						GAL							Past Due balances must be paid by 08/15/2022  in order to avoid a $50 fee and disconnection of water service.	If you would like to enroll in paperless billing or pay your bills online please visit www.eaglemountaincity.com	3949	07/18/2008		Single Graph				GAL To	30	7																		84043	0	JUL	JUN	MAY	APR	MAR	FEB	JAN	DEC	NOV	OCT	SEP	AUG		7	6	5	4	3	2	1	12	11	10	9	8	0	70	98	77	56	46	40	57	39	40	45	70	81	0	105	61	43	61	49	53	132	91	75	127	132	152	
003949	028	WILLOW SPRINGS HOA		 WILLOW SPRINGS HOA	c/o	PO BOX 827				LEHI UT 84043-1184	UT	84043-1184	27	8182 N CEDAR SPRINGS RD/ WS Y	Water			Sewer	Penalty			Garbage Service	Garbage Fuel Charge		Storm Drain	Deployed Abatement	Deposit	Miscellaneous							369.72			549.00							107.25									0	1055.37	1040.37CR			1025.97	1040.97	08/08/2022	08/31/2022	07/01/2022	07/31/2022	02						00008						35712960						1						07/13/2022						8665						06/20/2022						8724						59						GAL							Past Due balances must be paid by 08/15/2022  in order to avoid a $50 fee and disconnection of water service.	If you would like to enroll in paperless billing or pay your bills online please visit www.eaglemountaincity.com	3949	03/16/2010	15.00	Single Graph				GAL To	30	7																		84043	0	JUL	JUN	MAY	APR	MAR	FEB	JAN	DEC	NOV	OCT	SEP	AUG		7	6	5	4	3	2	1	12	11	10	9	8	0	59	72	72	0	83	2	2	38	75	0	61	42	0	85	73	37	45	37	51	30	39	35	91	100	124	
003949	020	WILLOW SPRINGS HOA		 WILLOW SPRINGS HOA	c/o	PO BOX 827				LEHI UT 84043-1184	UT	84043-1184	27	3490 E RIDGE ROUTE RD/ WS CLUBHOUSE	Water			Sewer	Penalty			Garbage Service	Garbage Fuel Charge		Storm Drain	Deployed Abatement	Deposit	Miscellaneous							161.03			45.75							8.25									0	162.54	147.54CR	15.00		215.03	245.03	08/08/2022	08/31/2022	07/01/2022	07/31/2022	40						0000						74398753						1						07/19/2022						8633						06/20/2022						8755						122						GAL							Past Due balances must be paid by 08/15/2022  in order to avoid a $50 fee and disconnection of water service.	If you would like to enroll in paperless billing or pay your bills online please visit www.eaglemountaincity.com	3949	05/01/2002	30.00	Single Graph				GAL To	30	7																		84043	0	JUL	JUN	MAY	APR	MAR	FEB	JAN	DEC	NOV	OCT	SEP	AUG		7	6	5	4	3	2	1	12	11	10	9	8	0	122	63	78	46	40	33	30	20	23	45	103	142	0	166	131	54	64	43	13	98	146	131	198	254	303	
003949	026	WILLOW SPRINGS HOA		 WILLOW SPRINGS HOA	c/o	PO BOX 827				LEHI UT 84043-1184	UT	84043-1184	27	3477 E RIDGE ROUTE RD/ WS X	Water			Sewer	Penalty			Garbage Service	Garbage Fuel Charge		Storm Drain	Deployed Abatement	Deposit	Miscellaneous							405.88			549.00							107.25									0	2145.82	2130.82CR			1062.13	1077.13	08/08/2022	08/31/2022	07/01/2022	07/31/2022	40						00004						34033600						1						07/20/2022						13661						06/20/2022						13752						91						GAL							Past Due balances must be paid by 08/15/2022  in order to avoid a $50 fee and disconnection of water service.	If you would like to enroll in paperless billing or pay your bills online please visit www.eaglemountaincity.com	3949	11/20/2009	15.00	Single Graph				GAL To	30	7																		84043	0	JUL	JUN	MAY	APR	MAR	FEB	JAN	DEC	NOV	OCT	SEP	AUG		7	6	5	4	3	2	1	12	11	10	9	8	0	91	99	88	43	31	33	46	33	37	64	68	40	0	122	75	41	40	31	34	43	32	55	68	132	220	
003949	019	WILLOW SPRINGS HOA		 WILLOW SPRINGS HOA	c/o	PO BOX 827				LEHI UT 84043-1184	UT	84043-1184	27	8228 N CEDAR SPRINGS RD/ WS R	Water			Sewer	Penalty			Garbage Service	Garbage Fuel Charge		Storm Drain	Deployed Abatement	Deposit	Miscellaneous							464.77			549.00							107.25									0	1148.04	1133.04CR	15.00		1121.02	1151.02	08/08/2022	08/31/2022	07/01/2022	07/31/2022	40						00413						19745346						1						07/19/2022						22296						06/20/2022						22438						141						GAL							Past Due balances must be paid by 08/15/2022  in order to avoid a $50 fee and disconnection of water service.	If you would like to enroll in paperless billing or pay your bills online please visit www.eaglemountaincity.com	3949	11/28/2005	30.00	Single Graph				GAL To	30	7																		84043	0	JUL	JUN	MAY	APR	MAR	FEB	JAN	DEC	NOV	OCT	SEP	AUG		7	6	5	4	3	2	1	12	11	10	9	8	0	141	151	48	63	34	40	36	22	27	58	145	167	0	199	164	56	49	39	45	53	39	45	196	240	270	
114450	470	BUILDING CONSTRUCTION PARTNERS		 BUILDING CONSTRUCTION PARTNERS		300 S 1350 E # 2				LEHI UT 84043-1491	UT	84043-1491	00	3754 N OLDSALTY WAY/ OT 3B 2	Water			Sewer	Penalty			Garbage Service	Garbage Fuel Charge		Storm Drain	Deployed Abatement	Deposit	Miscellaneous							35.22			45.75							8.25									0	184.80	184.80CR			89.22	89.22	08/08/2022	08/31/2022	07/01/2022	07/31/2022	24						00002						88616084						1						07/20/2022						261						06/20/2022						270						9						GAL							Past Due balances must be paid by 08/15/2022  in order to avoid a $50 fee and disconnection of water service.	If you would like to enroll in paperless billing or pay your bills online please visit www.eaglemountaincity.com	114450	05/29/2020		Single Graph				GAL To	31	7																		84043	0	JUL	JUN	MAY	APR	MAR	FEB	JAN	DEC	NOV	OCT	SEP	AUG		7	6	5	4	3	2	1	12	11	10	9	8	0	9	10	0	0	0	0	0	0	6	18	20	18	0	20	17	5	0	0	0	1	0	3	7	51	59	
114450	112	BUILDING CONSTRUCTION PARTNERS		 BUILDING CONSTRUCTION PARTNERS		300 S 1350 E # 2				LEHI UT 84043-1491	UT	84043-1491	00	5101 E RED RIVER DR/ SL 802	Water			Sewer	Penalty			Garbage Service	Garbage Fuel Charge		Storm Drain	Deployed Abatement	Deposit	Miscellaneous							44.94			45.75							8.25									0	192.36	192.36CR			98.94	98.94	08/08/2022	08/31/2022	07/01/2022	07/31/2022	53						00802						82620394						1						07/18/2022						332						06/16/2022						350						18						GAL							Past Due balances must be paid by 08/15/2022  in order to avoid a $50 fee and disconnection of water service.	If you would like to enroll in paperless billing or pay your bills online please visit www.eaglemountaincity.com	114450	05/11/2017		Single Graph				GAL To	31	7																		84043	0	JUL	JUN	MAY	APR	MAR	FEB	JAN	DEC	NOV	OCT	SEP	AUG		7	6	5	4	3	2	1	12	11	10	9	8	0	18	13	4	0	1	0	0	0	1	7	21	16	0	26	23	0	1	0	1	0	0	2	12	15	20	
004137	003	CEDAR PASS RANCH HOA*		 CEDAR PASS RANCH HOA*	c/o CRAIG FOUTZ	187 W MAIN ST				LEHI UT 84043-2145	UT	84043-2145	87	8705 N WEST DR/ PARK	Water			Sewer	Penalty			Garbage Service	Garbage Fuel Charge		Storm Drain	Deployed Abatement	Deposit	Miscellaneous							422.94																			0	224.22	224.22CR			422.94	422.94	08/08/2022	08/31/2022	07/01/2022	07/31/2022	05						00404						88750554						1						07/20/2022						2747						06/20/2022						3115						368						GAL							Past Due balances must be paid by 08/15/2022  in order to avoid a $50 fee and disconnection of water service.	If you would like to enroll in paperless billing or pay your bills online please visit www.eaglemountaincity.com	4137	01/01/1980		Single Graph			301140	GAL To	30	7																		84043	0	JUL	JUN	MAY	APR	MAR	FEB	JAN	DEC	NOV	OCT	SEP	AUG		7	6	5	4	3	2	1	12	11	10	9	8	0	368	184	173	16	0	0	0	0	68	218	322	381	0	553	335	497	0	0	0	0	0	0	0	0	0	
004137	000	CEDAR PASS RANCH HOA*		 CEDAR PASS RANCH HOA*	c/o CRAIG FOUTZ	187 W MAIN ST				LEHI UT 84043-2145	UT	84043-2145	87	8900 N CANYON WASH DR/ CPR ENT	Water			Sewer	Penalty			Garbage Service	Garbage Fuel Charge		Storm Drain	Deployed Abatement	Deposit	Miscellaneous							74.93										8.25									0	64.10	64.10CR			83.18	83.18	08/08/2022	08/31/2022	07/01/2022	07/31/2022	05						00401						1300007						1						07/20/2022						7309						06/20/2022						7354						45						GAL							Past Due balances must be paid by 08/15/2022  in order to avoid a $50 fee and disconnection of water service.	If you would like to enroll in paperless billing or pay your bills online please visit www.eaglemountaincity.com	4137	05/15/1998		Single Graph			500070	GAL To	30	7																		84043	0	JUL	JUN	MAY	APR	MAR	FEB	JAN	DEC	NOV	OCT	SEP	AUG		7	6	5	4	3	2	1	12	11	10	9	8	0	45	28	16	0	0	0	0	0	6	33	36	41	0	112	45	31	11	0	0	0	0	2	69	71	72	
004137	004	CEDAR PASS RANCH HOA*		 CEDAR PASS RANCH HOA*	c/o CRAIG FOUTZ	187 W MAIN ST				LEHI UT 84043-2145	UT	84043-2145	87	9155 N CEDAR PASS RD/ CPR	Water			Sewer	Penalty			Garbage Service	Garbage Fuel Charge		Storm Drain	Deployed Abatement	Deposit	Miscellaneous							38.46																			0	96.78	96.78CR			38.46	38.46	08/08/2022	08/31/2022	07/01/2022	07/31/2022	02						00602						40925438						1						07/14/2022						5712						06/20/2022						5724						12						GAL							Past Due balances must be paid by 08/15/2022  in order to avoid a $50 fee and disconnection of water service.	If you would like to enroll in paperless billing or pay your bills online please visit www.eaglemountaincity.com	4137	06/01/2021		Single Graph				GAL To	30	7																		84043	0	JUL	JUN	MAY	APR	MAR	FEB	JAN	DEC	NOV	OCT	SEP	AUG		7	6	5	4	3	2	1	12	11	10	9	8	0	12	66	66	0	0	12	0	6026	138	87	113	42	0	97	349	0	0	0	0	0	0	0	0	0	0	
123058	000	EAGLE POINTE TOWNHOMES		 EAGLE POINTE TOWNHOMES		187 W MAIN ST				LEHI UT 84043-2145	UT	84043-2145	87	1797 E SKYLINE DR N SIDE OF ROAD	Water			Sewer	Penalty			Garbage Service	Garbage Fuel Charge		Storm Drain	Deployed Abatement	Deposit	Miscellaneous							209.86																			0	62.54	62.54CR			209.86	209.86	08/08/2022	08/31/2022	07/01/2022	07/31/2022	27						10001						35310762						1						07/20/2022						7926						06/15/2022						8096						170						GAL							Past Due balances must be paid by 08/15/2022  in order to avoid a $50 fee and disconnection of water service.	If you would like to enroll in paperless billing or pay your bills online please visit www.eaglemountaincity.com	123058	07/01/2019		Single Graph				GAL To	30	7																		84043	0	JUL	JUN	MAY	APR	MAR	FEB	JAN	DEC	NOV	OCT	SEP	AUG		7	6	5	4	3	2	1	12	11	10	9	8	0	170	34	2	0	0	0	0	0	0	59	154	221	0	207	173	0	0	0	0	0	0	0	220	304	498	
123058	002	EAGLE POINTE TOWNHOMES		 EAGLE POINTE TOWNHOMES		187 W MAIN ST				LEHI UT 84043-2145	UT	84043-2145	87	1805 E COSMOS DR/ EPT CLUBHOUSE	Water			Sewer	Penalty			Garbage Service	Garbage Fuel Charge		Storm Drain	Deployed Abatement	Deposit	Miscellaneous							25.50			45.75							8.25									0	79.50	79.50CR			79.50	79.50	08/08/2022	08/31/2022	07/01/2022	07/31/2022																			0												0												0						0													Past Due balances must be paid by 08/15/2022  in order to avoid a $50 fee and disconnection of water service.	If you would like to enroll in paperless billing or pay your bills online please visit www.eaglemountaincity.com	123058	07/01/2019		Single Graph				GAL To	30	7																		84043	0	JUL	JUN	MAY	APR	MAR	FEB	JAN	DEC	NOV	OCT	SEP	AUG		7	6	5	4	3	2	1	12	11	10	9	8	0	0	0	0	0	0	0	1	0	0	0	0	0	0	0	0	0	0	0	0	1	1	0	0	0	0	
123058	001	EAGLE POINTE TOWNHOMES		 EAGLE POINTE TOWNHOMES		187 W MAIN ST				LEHI UT 84043-2145	UT	84043-2145	87	1796 E SKYLINE DR S SIDE OF ROAD	Water			Sewer	Penalty			Garbage Service	Garbage Fuel Charge		Storm Drain	Deployed Abatement	Deposit	Miscellaneous							814.98																			0	951.92	951.92CR			814.98	814.98	08/08/2022	08/31/2022	07/01/2022	07/31/2022	27						10002						45752490						1						07/20/2022						22911						06/20/2022						23642						731						GAL							Past Due balances must be paid by 08/15/2022  in order to avoid a $50 fee and disconnection of water service.	If you would like to enroll in paperless billing or pay your bills online please visit www.eaglemountaincity.com	123058	07/01/2019		Single Graph				GAL To	30	7																		84043	0	JUL	JUN	MAY	APR	MAR	FEB	JAN	DEC	NOV	OCT	SEP	AUG		7	6	5	4	3	2	1	12	11	10	9	8	0	731	857	563	41	0	0	0	0	0	380	846	750	0	868	717	56	83	0	0	0	0	66	359	807	1124	
108256	002	MT AIREY VILLAGE HOA		 MT AIREY VILLAGE HOA	c/o BRANDON MOORE	187 W MAIN ST				LEHI UT 84043-2145	UT	84043-2145	87	ENT SPV MTA DR ON INVERNESS	Water			Sewer	Penalty			Garbage Service	Garbage Fuel Charge		Storm Drain	Deployed Abatement	Deposit	Miscellaneous							45.81																			0	33.75	33.75CR			45.81	45.81	08/08/2022	08/31/2022	07/01/2022	07/31/2022	57						6430						4745346						1						07/19/2022						598						06/20/2022						617						18						GAL							Past Due balances must be paid by 08/15/2022  in order to avoid a $50 fee and disconnection of water service.	If you would like to enroll in paperless billing or pay your bills online please visit www.eaglemountaincity.com	108256	07/10/2007		Single Graph				GAL To	30	7																		84043	0	JUL	JUN	MAY	APR	MAR	FEB	JAN	DEC	NOV	OCT	SEP	AUG		7	6	5	4	3	2	1	12	11	10	9	8	0	18	7	0	0	0	0	0	0	0	5	19	18	0	20	15	0	0	0	0	0	0	0	34	57	63	
108256	005	MT AIREY VILLAGE HOA		 MT AIREY VILLAGE HOA	c/o BRANDON MOORE	187 W MAIN ST				LEHI UT 84043-2145	UT	84043-2145	87	9254 N PRAIRIE DUNES WAY/ SPV	Water			Sewer	Penalty			Garbage Service	Garbage Fuel Charge		Storm Drain	Deployed Abatement	Deposit	Miscellaneous							25.50																			0	25.50	25.50CR			25.50	25.50	08/08/2022	08/31/2022	07/01/2022	07/31/2022																			0												0												0						0													Past Due balances must be paid by 08/15/2022  in order to avoid a $50 fee and disconnection of water service.	If you would like to enroll in paperless billing or pay your bills online please visit www.eaglemountaincity.com	108256	04/26/2013		Single Graph				GAL To	30	7																		84043	0	JUL	JUN	MAY	APR	MAR	FEB	JAN	DEC	NOV	OCT	SEP	AUG		7	6	5	4	3	2	1	12	11	10	9	8	0	0	0	0	0	0	0	0	0	0	0	8	0	0	1	0	0	-32	5	3	3	3	0	0	0	0	
108256	004	MT AIREY VILLAGE HOA		 MT AIREY VILLAGE HOA	c/o BRANDON MOORE	187 W MAIN ST				LEHI UT 84043-2145	UT	84043-2145	87	9248 N PRAIRIE DUNES WAY/ SPV PARK	Water			Sewer	Penalty			Garbage Service	Garbage Fuel Charge		Storm Drain	Deployed Abatement	Deposit	Miscellaneous							25.50																			0	25.50	25.50CR			25.50	25.50	08/08/2022	08/31/2022	07/01/2022	07/31/2022																			0												0												0						0													Past Due balances must be paid by 08/15/2022  in order to avoid a $50 fee and disconnection of water service.	If you would like to enroll in paperless billing or pay your bills online please visit www.eaglemountaincity.com	108256	04/26/2013		Single Graph				GAL To	30	7																		84043	0	JUL	JUN	MAY	APR	MAR	FEB	JAN	DEC	NOV	OCT	SEP	AUG		7	6	5	4	3	2	1	12	11	10	9	8	0	0	0	0	0	0	0	0	0	0	14	0	0	0	0	0	0	175	0	0	0	0	0	23	30	43	
108256	001	MT AIREY VILLAGE HOA		 MT AIREY VILLAGE HOA	c/o BRANDON MOORE	187 W MAIN ST				LEHI UT 84043-2145	UT	84043-2145	87	SPRING VALLEY PARK	Water			Sewer	Penalty			Garbage Service	Garbage Fuel Charge		Storm Drain	Deployed Abatement	Deposit	Miscellaneous							308.46																			0	320.02	320.02CR			308.46	308.46	08/08/2022	08/31/2022	07/01/2022	07/31/2022	57						00004						35310801						1						07/19/2022						10907						06/20/2022						11169						262						GAL							Past Due balances must be paid by 08/15/2022  in order to avoid a $50 fee and disconnection of water service.	If you would like to enroll in paperless billing or pay your bills online please visit www.eaglemountaincity.com	108256	03/01/2009		Single Graph				GAL To	30	7																		84043	0	JUL	JUN	MAY	APR	MAR	FEB	JAN	DEC	NOV	OCT	SEP	AUG		7	6	5	4	3	2	1	12	11	10	9	8	0	262	272	195	0	0	0	0	0	0	68	200	200	0	268	45	227	29	0	0	0	0	38	178	266	306	
108256	003	MT AIREY VILLAGE HOA		 MT AIREY VILLAGE HOA	c/o BRANDON MOORE	187 W MAIN ST				LEHI UT 84043-2145	UT	84043-2145	87	9188 N PRAIRIE DUNES WAY/ SPV	Water			Sewer	Penalty			Garbage Service	Garbage Fuel Charge		Storm Drain	Deployed Abatement	Deposit	Miscellaneous							545.63																			0	299.06	299.06CR			545.63	545.63	08/08/2022	08/31/2022	07/01/2022	07/31/2022	57						00069						43873738						1						07/19/2022						15889						06/20/2022						16370						481						GAL							Past Due balances must be paid by 08/15/2022  in order to avoid a $50 fee and disconnection of water service.	If you would like to enroll in paperless billing or pay your bills online please visit www.eaglemountaincity.com	108256	07/25/2012		Single Graph				GAL To	30	7																		84043	0	JUL	JUN	MAY	APR	MAR	FEB	JAN	DEC	NOV	OCT	SEP	AUG		7	6	5	4	3	2	1	12	11	10	9	8	0	481	253	157	0	0	0	0	0	0	139	204	350	0	459	380	180	46	0	0	0	0	65	311	375	525	
129198	002	BARNEY	TIFFANY	TIFFANY BARNEY		470 N WILLOW HAVEN AVE				LEHI UT 84043-3121	UT	84043-3121	70	9758 N AARON AVE/ SPRM C2 225	Water			Sewer	Penalty			Garbage Service	Garbage Fuel Charge		Storm Drain	Deployed Abatement	Deposit	Miscellaneous							29.82			45.75				9.50			8.25									0	199.48	199.48CR			93.32	93.32	08/08/2022	08/31/2022	07/01/2022	07/31/2022	74						00225						91727929						1						07/20/2022						6						06/20/2022						10						4						GAL							Past Due balances must be paid by 08/15/2022  in order to avoid a $50 fee and disconnection of water service.	If you would like to enroll in paperless billing or pay your bills online please visit www.eaglemountaincity.com	129198	04/01/2022		Single Graph				GAL To	31	7																		84043	0	JUL	JUN	MAY	APR	MAR	FEB	JAN	DEC	NOV	OCT	SEP	AUG		7	6	5	4	3	2	1	12	11	10	9	8	0	4	4	2	0	0	0	0	0	0	0	0	0	0	0	0	0	0	0	0	0	0	0	0	0	0	
129198	001	BARNEY	TIFFANY	TIFFANY BARNEY		470 N WILLOW HAVEN AVE				LEHI UT 84043-3121	UT	84043-3121	70	9746 N AARON AVE/ SPRM C2 227	Water			Sewer	Penalty			Garbage Service	Garbage Fuel Charge		Storm Drain	Deployed Abatement	Deposit	Miscellaneous							29.82			45.75				9.50			8.25									0	91.16	91.16CR			93.32	93.32	08/08/2022	08/31/2022	07/01/2022	07/31/2022	74						00227						92076258						1						07/19/2022						4						06/20/2022						8						4						GAL							Past Due balances must be paid by 08/15/2022  in order to avoid a $50 fee and disconnection of water service.	If you would like to enroll in paperless billing or pay your bills online please visit www.eaglemountaincity.com	129198	04/01/2022		Single Graph				GAL To	31	7																		84043	0	JUL	JUN	MAY	APR	MAR	FEB	JAN	DEC	NOV	OCT	SEP	AUG		7	6	5	4	3	2	1	12	11	10	9	8	0	4	2	2	0	0	0	0	0	0	0	0	0	0	0	0	0	0	0	0	0	0	0	0	0	0	
109523	017	HOOKS HOMES		 HOOKS HOMES		333 E MAIN ST UNIT 857				LEHI UT 84043-4233	UT	84043-4233	07	4051 E GOLDEN EAGLE RD/ KV 44	Water			Sewer	Penalty			Garbage Service	Garbage Fuel Charge		Storm Drain	Deployed Abatement	Deposit	Miscellaneous							122.06			45.75				32.00			8.25									0	249.52	249.52CR	15.00		208.06	223.06	08/08/2022	08/31/2022	07/01/2022	07/31/2022	47						00044						30021294						1						07/18/2022						5306						06/17/2022						5394						88						GAL							Past Due balances must be paid by 08/15/2022  in order to avoid a $50 fee and disconnection of water service.	If you would like to enroll in paperless billing or pay your bills online please visit www.eaglemountaincity.com	109523	05/03/2022	15.00	Single Graph				GAL To	31	7																		84043	0	JUL	JUN	MAY	APR	MAR	FEB	JAN	DEC	NOV	OCT	SEP	AUG		7	6	5	4	3	2	1	12	11	10	9	8	0	88	29	2	0	0	0	0	0	0	0	0	0	0	0	0	0	0	0	0	0	0	0	0	0	0	
109523	016	HOOKS HOMES		 HOOKS HOMES		333 E MAIN ST UNIT 857				LEHI UT 84043-4233	UT	84043-4233	07	3986 E DILLONS DR/ TC 156	Water			Sewer	Penalty			Garbage Service	Garbage Fuel Charge		Storm Drain	Deployed Abatement	Deposit	Miscellaneous							42.51			45.75				20.75			8.25									0	325.85	325.85CR			117.26	117.26	08/08/2022	08/31/2022	07/01/2022	07/31/2022	37						00156						30021280						3						07/19/2022						3299						06/20/2022						3315						15						Decatherm							Past Due balances must be paid by 08/15/2022  in order to avoid a $50 fee and disconnection of water service.	If you would like to enroll in paperless billing or pay your bills online please visit www.eaglemountaincity.com	109523	05/04/2022		Single Graph				GAL To	31	7																		84043	0	JUL	JUN	MAY	APR	MAR	FEB	JAN	DEC	NOV	OCT	SEP	AUG		7	6	5	4	3	2	1	12	11	10	9	8	0	15	16	106	0	0	0	0	0	0	0	0	0	0	0	0	0	0	0	0	0	0	0	0	0	0	
109523	018	HOOKS HOMES		 HOOKS HOMES		333 E MAIN ST UNIT 857				LEHI UT 84043-4233	UT	84043-4233	07	7729 N DECRESCENDO DR/ SLV 245	Water			Sewer	Penalty			Garbage Service	Garbage Fuel Charge		Storm Drain	Deployed Abatement	Deposit	Miscellaneous							35.22			45.75				14.50			8.25									0	105.88	210.88CR			103.72	-1.28	08/08/2022	08/31/2022	07/01/2022	07/31/2022	53						00245						85944531						1						07/18/2022						263						06/17/2022						272						9						GAL							Past Due balances must be paid by 08/15/2022  in order to avoid a $50 fee and disconnection of water service.	If you would like to enroll in paperless billing or pay your bills online please visit www.eaglemountaincity.com	109523	05/03/2022		Single Graph				GAL To	31	7																		84043	0	JUL	JUN	MAY	APR	MAR	FEB	JAN	DEC	NOV	OCT	SEP	AUG		7	6	5	4	3	2	1	12	11	10	9	8	0	9	11	2	0	0	0	0	0	0	0	0	0	0	0	0	0	0	0	0	0	0	0	0	0	0	
130040	003	BYBEE / HH TOWNS LLC	RYAN	RYAN BYBEE / HH TOWNS LLC		2801 N THANKSGIVING WAY STE 100				LEHI UT 84043-5297	UT	84043-5297	25	7299 N ROCKY LN/ HHM B2 207	Water			Sewer	Penalty			Garbage Service	Garbage Fuel Charge		Storm Drain	Deployed Abatement	Deposit	Miscellaneous							27.66			45.75				9.50			8.25									0	92.24	92.24CR			91.16	91.16	08/08/2022	08/31/2022	07/01/2022	07/31/2022	75						00207						90286582						1						07/20/2022						10						06/20/2022						12						2						GAL							Past Due balances must be paid by 08/15/2022  in order to avoid a $50 fee and disconnection of water service.	If you would like to enroll in paperless billing or pay your bills online please visit www.eaglemountaincity.com	130040	04/18/2022		Single Graph				GAL To	31	7																		84043	0	JUL	JUN	MAY	APR	MAR	FEB	JAN	DEC	NOV	OCT	SEP	AUG		7	6	5	4	3	2	1	12	11	10	9	8	0	2	3	2	0	0	0	0	0	0	0	0	0	0	0	0	0	0	0	0	0	0	0	0	0	0	
130040	002	BYBEE / HH TOWNS LLC	RYAN	RYAN BYBEE / HH TOWNS LLC		2801 N THANKSGIVING WAY STE 100				LEHI UT 84043-5297	UT	84043-5297	25	7295 N ROCKY LN/ HHM B2 208	Water			Sewer	Penalty			Garbage Service	Garbage Fuel Charge		Storm Drain	Deployed Abatement	Deposit	Miscellaneous							30.90			45.75				14.50			8.25									0	121.64	75.00CR			99.40	146.04	08/08/2022	08/31/2022	07/01/2022	07/31/2022	75						00208						90286584						1						07/20/2022						13						06/20/2022						18						5						GAL							Past Due balances must be paid by 08/15/2022  in order to avoid a $50 fee and disconnection of water service.	If you would like to enroll in paperless billing or pay your bills online please visit www.eaglemountaincity.com	130040	04/18/2022	46.64	Single Graph				GAL To	31	7																		84043	0	JUL	JUN	MAY	APR	MAR	FEB	JAN	DEC	NOV	OCT	SEP	AUG		7	6	5	4	3	2	1	12	11	10	9	8	0	5	5	3	0	0	0	0	0	0	0	0	0	0	0	0	0	0	0	0	0	0	0	0	0	0	
130040	001	BYBEE / HH TOWNS LLC	RYAN	RYAN BYBEE / HH TOWNS LLC		2801 N THANKSGIVING WAY STE 100				LEHI UT 84043-5297	UT	84043-5297	25	7291 N ROCKY LN/ HHM B2 209	Water			Sewer	Penalty			Garbage Service	Garbage Fuel Charge		Storm Drain	Deployed Abatement	Deposit	Miscellaneous							26.58			45.75				9.50			8.25									0	92.24	92.24CR			90.08	90.08	08/08/2022	08/31/2022	07/01/2022	07/31/2022	75						00209						90286583						1						07/20/2022						13						06/20/2022						14						1						GAL							Past Due balances must be paid by 08/15/2022  in order to avoid a $50 fee and disconnection of water service.	If you would like to enroll in paperless billing or pay your bills online please visit www.eaglemountaincity.com	130040	04/01/2022		Single Graph				GAL To	31	7																		84043	0	JUL	JUN	MAY	APR	MAR	FEB	JAN	DEC	NOV	OCT	SEP	AUG		7	6	5	4	3	2	1	12	11	10	9	8	0	1	3	3	2	0	0	0	0	0	0	0	0	0	0	0	0	0	0	0	0	0	0	0	0	0	
130040	000	BYBEE / HH TOWNS LLC	RYAN	RYAN BYBEE / HH TOWNS LLC		2801 N THANKSGIVING WAY STE 100				LEHI UT 84043-5297	UT	84043-5297	25	7303 N ROCKY LN/ HHM B2 206	Water			Sewer	Penalty			Garbage Service	Garbage Fuel Charge		Storm Drain	Deployed Abatement	Deposit	Miscellaneous							29.82			45.75				9.50			8.25									0	94.40	94.40CR			93.32	93.32	08/08/2022	08/31/2022	07/01/2022	07/31/2022	75						00206						90286586						1						07/20/2022						17						06/20/2022						21						4						GAL							Past Due balances must be paid by 08/15/2022  in order to avoid a $50 fee and disconnection of water service.	If you would like to enroll in paperless billing or pay your bills online please visit www.eaglemountaincity.com	130040	03/24/2022		Single Graph				GAL To	31	7																		84043	0	JUL	JUN	MAY	APR	MAR	FEB	JAN	DEC	NOV	OCT	SEP	AUG		7	6	5	4	3	2	1	12	11	10	9	8	0	4	5	5	7	0	0	0	0	0	0	0	0	0	0	0	0	0	0	0	0	0	0	0	0	0	
109523	018	RESE PROPERTY MANAGEMENT		 RESE PROPERTY MANAGEMENT		3281 N 1120 E				LEHI UT 84043-6854	UT	84043-6854	99	7729 N DECRESCENDO DR/ SLV 245	Water			Sewer	Penalty			Garbage Service	Garbage Fuel Charge		Storm Drain	Deployed Abatement	Deposit	Miscellaneous							35.22			45.75				14.50			8.25									0	105.88	210.88CR			103.72	-1.28	08/08/2022	08/31/2022	07/01/2022	07/31/2022	53						00245						85944531						1						07/18/2022						263						06/17/2022						272						9						GAL							Past Due balances must be paid by 08/15/2022  in order to avoid a $50 fee and disconnection of water service.	If you would like to enroll in paperless billing or pay your bills online please visit www.eaglemountaincity.com	130550	05/03/2022		Single Graph				GAL To	31	7																		84043	0	JUL	JUN	MAY	APR	MAR	FEB	JAN	DEC	NOV	OCT	SEP	AUG		7	6	5	4	3	2	1	12	11	10	9	8	0	9	11	2	0	0	0	0	0	0	0	0	0	0	0	0	0	0	0	0	0	0	0	0	0	0	
109523	017	RESE PROPERTY MANAGEMENT		 RESE PROPERTY MANAGEMENT		3281 N 1120 E				LEHI UT 84043-6854	UT	84043-6854	99	4051 E GOLDEN EAGLE RD/ KV 44	Water			Sewer	Penalty			Garbage Service	Garbage Fuel Charge		Storm Drain	Deployed Abatement	Deposit	Miscellaneous							122.06			45.75				32.00			8.25									0	249.52	249.52CR	15.00		208.06	223.06	08/08/2022	08/31/2022	07/01/2022	07/31/2022	47						00044						30021294						1						07/18/2022						5306						06/17/2022						5394						88						GAL							Past Due balances must be paid by 08/15/2022  in order to avoid a $50 fee and disconnection of water service.	If you would like to enroll in paperless billing or pay your bills online please visit www.eaglemountaincity.com	130549	05/03/2022	15.00	Single Graph				GAL To	31	7																		84043	0	JUL	JUN	MAY	APR	MAR	FEB	JAN	DEC	NOV	OCT	SEP	AUG		7	6	5	4	3	2	1	12	11	10	9	8	0	88	29	2	0	0	0	0	0	0	0	0	0	0	0	0	0	0	0	0	0	0	0	0	0	0	
130061	001	MOORE	CRISTAL	CRISTAL MOORE		1173 E SARATOGA RD				SARATOGA SPGS UT 84043-8010	UT	84043-8010	73	4856 E LAKE CORNER DR/ SL 2423	Water			Sewer	Penalty			Garbage Service	Garbage Fuel Charge		Storm Drain	Deployed Abatement	Deposit	Miscellaneous							35.22			45.75				14.50			8.25									0	104.80	0.00CR			103.72	208.52	08/08/2022	08/31/2022	07/01/2022	07/31/2022	53						02423						91727835						1						07/19/2022						18						06/20/2022						27						9						GAL							Past Due balances must be paid by 08/15/2022  in order to avoid a $50 fee and disconnection of water service.	If you would like to enroll in paperless billing or pay your bills online please visit www.eaglemountaincity.com	130061	04/04/2022	104.80	Single Graph				GAL To	31	7																		84043	0	JUL	JUN	MAY	APR	MAR	FEB	JAN	DEC	NOV	OCT	SEP	AUG		7	6	5	4	3	2	1	12	11	10	9	8	0	9	10	8	0	0	0	0	0	0	0	0	0	0	0	0	0	0	0	0	0	0	0	0	0	0	
130061	000	MOORE	CRISTAL	CRISTAL MOORE		1173 E SARATOGA RD				SARATOGA SPGS UT 84043-8010	UT	84043-8010	73	4818 E LAKE CORNER DR/ SL 2432	Water			Sewer	Penalty			Garbage Service	Garbage Fuel Charge		Storm Drain	Deployed Abatement	Deposit	Miscellaneous							37.38			45.75				14.50			8.25									0	109.12	109.12CR			105.88	105.88	08/08/2022	08/31/2022	07/01/2022	07/31/2022	53						02432						92075310						1						07/19/2022						28						06/20/2022						39						11						GAL							Past Due balances must be paid by 08/15/2022  in order to avoid a $50 fee and disconnection of water service.	If you would like to enroll in paperless billing or pay your bills online please visit www.eaglemountaincity.com	130061	03/25/2022		Single Graph				GAL To	31	7																		84043	0	JUL	JUN	MAY	APR	MAR	FEB	JAN	DEC	NOV	OCT	SEP	AUG		7	6	5	4	3	2	1	12	11	10	9	8	0	11	14	9	5	0	0	0	0	0	0	0	0	0	0	0	0	0	0	0	0	0	0	0	0	0	
129623	000	MOORE	CRISTAL	CRISTAL MOORE		1173 E SARATOGA RD				SARATOGA SPGS UT 84043-8010	UT	84043-8010	73	4843 E LAKE CORNER DR/ SLM 2458	Water			Sewer	Penalty			Garbage Service	Garbage Fuel Charge		Storm Drain	Deployed Abatement	Deposit	Miscellaneous							27.66			45.75				14.50			8.25									0	95.08	95.08CR			96.16	96.16	08/08/2022	08/31/2022	07/01/2022	07/31/2022	53						02458						90977313						1						07/19/2022						6						06/20/2022						8						2						GAL							Past Due balances must be paid by 08/15/2022  in order to avoid a $50 fee and disconnection of water service.	If you would like to enroll in paperless billing or pay your bills online please visit www.eaglemountaincity.com	129623	02/03/2022		Single Graph				GAL To	31	7																		84043	0	JUL	JUN	MAY	APR	MAR	FEB	JAN	DEC	NOV	OCT	SEP	AUG		7	6	5	4	3	2	1	12	11	10	9	8	0	2	1	1	4	0	0	0	0	0	0	0	0	0	0	0	0	0	0	0	0	0	0	0	0	0	
006784	001	SMITH	STANLEY	STANLEY SMITH		9303 W 8800 N				LEHI UT 84043-9777	UT	84043-9777	03	9235 N BELLE ST/ AV AG LNDSCP	Water			Sewer	Penalty			Garbage Service	Garbage Fuel Charge		Storm Drain	Deployed Abatement	Deposit	Miscellaneous							25.50																			0	51.00	0.00CR			25.50	76.50	08/08/2022	08/31/2022	07/01/2022	07/31/2022	71						00000						82997858						1						07/20/2022						108						06/20/2022						108						0						GAL							Past Due balances must be paid by 08/15/2022  in order to avoid a $50 fee and disconnection of water service.	If you would like to enroll in paperless billing or pay your bills online please visit www.eaglemountaincity.com	6784	08/01/2018	51.00	Single Graph				GAL To	30	7																		84043	0	JUL	JUN	MAY	APR	MAR	FEB	JAN	DEC	NOV	OCT	SEP	AUG		7	6	5	4	3	2	1	12	11	10	9	8	0	0	0	0	0	0	0	0	0	0	0	0	0	0	0	15	16	0	0	0	0	0	11	0	0	0	
006784	000	SMITH	STANLEY	STANLEY SMITH		9303 W 8800 N				LEHI UT 84043-9777	UT	84043-9777	03	CANYON WASH DR TO NR	Water			Sewer	Penalty			Garbage Service	Garbage Fuel Charge		Storm Drain	Deployed Abatement	Deposit	Miscellaneous							30.90																			0	94.20	0.00CR	15.00		30.90	140.10	08/08/2022	08/31/2022	07/01/2022	07/31/2022	02						20002						76075609						1						07/20/2022						345						06/20/2022						350						5						GAL							Past Due balances must be paid by 08/15/2022  in order to avoid a $50 fee and disconnection of water service.	If you would like to enroll in paperless billing or pay your bills online please visit www.eaglemountaincity.com	6784	03/01/2002	109.20	Single Graph				GAL To	30	7																		84043	0	JUL	JUN	MAY	APR	MAR	FEB	JAN	DEC	NOV	OCT	SEP	AUG		7	6	5	4	3	2	1	12	11	10	9	8	0	5	20	20	0	0	0	0	0	0	0	0	0	0	0	9	0	0	0	0	0	0	12	12	0	0	
130049	000	DODGE	ROGER	ROGER DODGE		4112 S PELICAN LN				SARATOGA SPRINGS UT 84045-3819	UT	84045-3819	12	4824 E LAKE CORNER DR/ SL 2429	Water			Sewer	Penalty			Garbage Service	Garbage Fuel Charge		Storm Drain	Deployed Abatement	Deposit	Miscellaneous							27.66			45.75				9.50			8.25									0	89.00	89.00CR			91.16	91.16	08/08/2022	08/31/2022	07/01/2022	07/31/2022	53						04824						92075955						1						07/19/2022						0						03/09/2022						2						2						GAL							Past Due balances must be paid by 08/15/2022  in order to avoid a $50 fee and disconnection of water service.	If you would like to enroll in paperless billing or pay your bills online please visit www.eaglemountaincity.com	130049	03/24/2022		Single Graph				GAL To	31	7																		84045	0	JUL	JUN	MAY	APR	MAR	FEB	JAN	DEC	NOV	OCT	SEP	AUG		7	6	5	4	3	2	1	12	11	10	9	8	0	2	0	0	0	0	0	0	0	0	0	0	0	0	0	0	0	0	0	0	0	0	0	0	0	0	
130049	001	DODGE	ROGER	ROGER DODGE		4112 S PELICAN LN				SARATOGA SPRINGS UT 84045-3819	UT	84045-3819	12	4890 E LAKE CORNER DR/ SL 2417	Water			Sewer	Penalty			Garbage Service	Garbage Fuel Charge		Storm Drain	Deployed Abatement	Deposit	Miscellaneous							28.74			45.75				9.50			8.25									0	89.00	89.00CR			92.24	92.24	08/08/2022	08/31/2022	07/01/2022	07/31/2022	53						02417						90977292						1						07/19/2022						0						06/20/2022						3						3						GAL							Past Due balances must be paid by 08/15/2022  in order to avoid a $50 fee and disconnection of water service.	If you would like to enroll in paperless billing or pay your bills online please visit www.eaglemountaincity.com	130049	03/24/2022		Single Graph				GAL To	31	7																		84045	0	JUL	JUN	MAY	APR	MAR	FEB	JAN	DEC	NOV	OCT	SEP	AUG		7	6	5	4	3	2	1	12	11	10	9	8	0	3	0	0	0	0	0	0	0	0	0	0	0	0	0	0	0	0	0	0	0	0	0	0	0	0	
129485	001	CARD	JUILE	JUILE CARD		317 W FARMSIDE DR				SARATOGA SPRINGS UT 84045-4850	UT	84045-4850	17	7289 N HIDDEN LOOP RD/ SLM 2855	Water			Sewer	Penalty			Garbage Service	Garbage Fuel Charge		Storm Drain	Deployed Abatement	Deposit	Miscellaneous							13.98			25.09				5.21			4.52									0		0.00CR			48.80	48.80	08/08/2022	08/31/2022	07/15/2022	07/31/2022																			0												0												0						0													Past Due balances must be paid by 08/15/2022  in order to avoid a $50 fee and disconnection of water service.	If you would like to enroll in paperless billing or pay your bills online please visit www.eaglemountaincity.com	129485	07/15/2022		Single Graph				GAL To	31	7																		84045	0	JUL	JUN	MAY	APR	MAR	FEB	JAN	DEC	NOV	OCT	SEP	AUG		7	6	5	4	3	2	1	12	11	10	9	8	0	0	0	0	0	0	0	0	0	0	0	0	0	0	0	0	0	0	0	0	0	0	0	0	0	0	
129485	000	CARD	JUILE	JUILE CARD		317 W FARMSIDE DR				SARATOGA SPRINGS UT 84045-4850	UT	84045-4850	17	4805 E LAKE CORNER DR/ SLM 2465	Water			Sewer	Penalty			Garbage Service	Garbage Fuel Charge		Storm Drain	Deployed Abatement	Deposit	Miscellaneous							28.74			45.75				9.50												0	85.07	85.07CR			83.99	83.99	08/08/2022	08/31/2022	07/01/2022	07/31/2022	53						02465						91727772						1						07/18/2022						15						06/20/2022						18						3						GAL							Past Due balances must be paid by 08/15/2022  in order to avoid a $50 fee and disconnection of water service.	If you would like to enroll in paperless billing or pay your bills online please visit www.eaglemountaincity.com	129485	01/21/2022		Single Graph				GAL To	31	7																		84045	0	JUL	JUN	MAY	APR	MAR	FEB	JAN	DEC	NOV	OCT	SEP	AUG		7	6	5	4	3	2	1	12	11	10	9	8	0	3	4	3	4	3	1	0	0	0	0	0	0	0	0	0	0	0	0	0	0	0	0	0	0	0	
129415	003	PATTERSON	WAYNE	WAYNE PATTERSON		1809 W TERRA VISTA DR UNIT 204				SARATOGA SPRINGS UT 84045-5246	UT	84045-5246	54	3946 N DATEMAN DR/ EPT E 568	Water			Sewer	Penalty			Garbage Service	Garbage Fuel Charge		Storm Drain	Deployed Abatement	Deposit	Miscellaneous							9.05			16.23				3.37			2.93									0		0.00CR			31.58	31.58	08/08/2022	08/31/2022	07/21/2022	07/31/2022																			0												0												0						0													Past Due balances must be paid by 08/15/2022  in order to avoid a $50 fee and disconnection of water service.	If you would like to enroll in paperless billing or pay your bills online please visit www.eaglemountaincity.com	129415	07/21/2022		Single Graph				GAL To	31	7																		84045	0	JUL	JUN	MAY	APR	MAR	FEB	JAN	DEC	NOV	OCT	SEP	AUG		7	6	5	4	3	2	1	12	11	10	9	8	0	0	0	0	0	0	0	0	0	0	0	0	0	0	0	0	0	0	0	0	0	0	0	0	0	0	
129415	000	PATTERSON	WAYNE	WAYNE PATTERSON		1809 W TERRA VISTA DR UNIT 204				SARATOGA SPRINGS UT 84045-5246	UT	84045-5246	54	3539 N SPARROW LN/ EV A1 142	Water			Sewer	Penalty			Garbage Service	Garbage Fuel Charge		Storm Drain	Deployed Abatement	Deposit	Miscellaneous							82.74			45.75				9.50			8.25									0	247.32	247.32CR			146.24	146.24	08/08/2022	08/31/2022	07/01/2022	07/31/2022	02						27142						90184820						1						07/20/2022						4						06/20/2022						57						53						GAL							Past Due balances must be paid by 08/15/2022  in order to avoid a $50 fee and disconnection of water service.	If you would like to enroll in paperless billing or pay your bills online please visit www.eaglemountaincity.com	129415	01/14/2022		Single Graph				GAL To	31	7																		84045	0	JUL	JUN	MAY	APR	MAR	FEB	JAN	DEC	NOV	OCT	SEP	AUG		7	6	5	4	3	2	1	12	11	10	9	8	0	53	2	2	0	0	0	0	0	0	0	0	0	0	0	0	0	0	0	0	0	0	0	0	0	0	
129415	002	PATTERSON	WAYNE	WAYNE PATTERSON		1809 W TERRA VISTA DR UNIT 204				SARATOGA SPRINGS UT 84045-5246	UT	84045-5246	54	2381 E COBBLE CREEK LN/ EPT E 573	Water			Sewer	Penalty			Garbage Service	Garbage Fuel Charge		Storm Drain	Deployed Abatement	Deposit	Miscellaneous							9.05			16.23				3.06			2.93									0		0.00CR			31.27	31.27	08/08/2022	08/31/2022	07/21/2022	07/31/2022																			0												0												0						0													Past Due balances must be paid by 08/15/2022  in order to avoid a $50 fee and disconnection of water service.	If you would like to enroll in paperless billing or pay your bills online please visit www.eaglemountaincity.com	129415	07/21/2022		Single Graph				GAL To	31	7																		84045	0	JUL	JUN	MAY	APR	MAR	FEB	JAN	DEC	NOV	OCT	SEP	AUG		7	6	5	4	3	2	1	12	11	10	9	8	0	0	0	0	0	0	0	0	0	0	0	0	0	0	0	0	0	0	0	0	0	0	0	0	0	0	
129415	004	PATTERSON	WAYNE	WAYNE PATTERSON		1809 W TERRA VISTA DR UNIT 204				SARATOGA SPRINGS UT 84045-5246	UT	84045-5246	54	2421 E COBBLE CREEK LN/ EPT E 570	Water			Sewer	Penalty			Garbage Service	Garbage Fuel Charge		Storm Drain	Deployed Abatement	Deposit	Miscellaneous							27.77			26.56				5.52			4.79									0		0.00CR			64.64	64.64	08/08/2022	08/31/2022	07/14/2022	07/31/2022	27						00570						92075725						1						07/20/2022						4						07/14/2022						16						12						GAL							Past Due balances must be paid by 08/15/2022  in order to avoid a $50 fee and disconnection of water service.	If you would like to enroll in paperless billing or pay your bills online please visit www.eaglemountaincity.com	129415	07/14/2022		Single Graph				GAL To	31	7																		84045	0	JUL	JUN	MAY	APR	MAR	FEB	JAN	DEC	NOV	OCT	SEP	AUG		7	6	5	4	3	2	1	12	11	10	9	8	0	12	0	0	0	0	0	0	0	0	0	0	0	0	0	0	0	0	0	0	0	0	0	0	0	0	
129415	001	PATTERSON	WAYNE	WAYNE PATTERSON		1809 W TERRA VISTA DR UNIT 204				SARATOGA SPRINGS UT 84045-5246	UT	84045-5246	54	1632 E SHADOW DR/ EV A1 101	Water			Sewer	Penalty			Garbage Service	Garbage Fuel Charge		Storm Drain	Deployed Abatement	Deposit	Miscellaneous							65.46			45.75				9.50			8.25									0	198.40	198.40CR			128.96	128.96	08/08/2022	08/31/2022	07/01/2022	07/31/2022	27						00101						88691599						1						07/20/2022						12						06/20/2022						49						37						GAL							Past Due balances must be paid by 08/15/2022  in order to avoid a $50 fee and disconnection of water service.	If you would like to enroll in paperless billing or pay your bills online please visit www.eaglemountaincity.com	129415	01/14/2022		Single Graph				GAL To	31	7																		84045	0	JUL	JUN	MAY	APR	MAR	FEB	JAN	DEC	NOV	OCT	SEP	AUG		7	6	5	4	3	2	1	12	11	10	9	8	0	37	2	3	2	2	3	0	0	0	0	0	0	0	0	0	0	0	0	0	0	0	0	0	0	0	
131166	000	PATTERSON	WAYNE	WAYNE PATTERSON	c/o EMPIRE BLU	1809 W TERRA VISTA DR UNIT 204				SARATOGA SPRINGS UT 84045-5246	UT	84045-5246	54	2372 E COBBLE CREEK LN/ EPT E 577	Water			Sewer	Penalty			Garbage Service	Garbage Fuel Charge		Storm Drain	Deployed Abatement	Deposit	Miscellaneous							9.05			16.23				3.06			2.93		40.00							0		0.00CR		40.00	31.27	71.27	08/08/2022	08/31/2022	07/21/2022	07/31/2022																			0												0												0						0													Past Due balances must be paid by 08/15/2022  in order to avoid a $50 fee and disconnection of water service.	If you would like to enroll in paperless billing or pay your bills online please visit www.eaglemountaincity.com	131166	07/21/2022	40.00	Single Graph				GAL To	31	7																		84045	0	JUL	JUN	MAY	APR	MAR	FEB	JAN	DEC	NOV	OCT	SEP	AUG		7	6	5	4	3	2	1	12	11	10	9	8	0	0	0	0	0	0	0	0	0	0	0	0	0	0	0	0	0	0	0	0	0	0	0	0	0	0	
128156	002	WILLIAMSON	RABECCA	RABECCA WILLIAMSON		2783 S SUNRISE PEAK CIR				SARATOGA SPRINGS UT 84045-6669	UT	84045-6669	83	4304 E GRASSLAND WAY/ ERM K3 N33	Water			Sewer	Penalty			Garbage Service	Garbage Fuel Charge		Storm Drain	Deployed Abatement	Deposit	Miscellaneous							29.82			45.75				14.50			8.25									0	98.32	98.32CR			98.32	98.32	08/08/2022	08/31/2022	07/01/2022	07/31/2022	12						00033						85780277						1						07/19/2022						172						06/20/2022						176						4						GAL							Past Due balances must be paid by 08/15/2022  in order to avoid a $50 fee and disconnection of water service.	If you would like to enroll in paperless billing or pay your bills online please visit www.eaglemountaincity.com	128156	11/10/2021		Single Graph				GAL To	31	7																		84045	0	JUL	JUN	MAY	APR	MAR	FEB	JAN	DEC	NOV	OCT	SEP	AUG		7	6	5	4	3	2	1	12	11	10	9	8	0	4	4	5	7	6	6	5	0	0	0	0	0	0	0	0	0	0	0	0	0	0	0	0	0	0	
128156	001	WILLIAMSON	RABECCA	RABECCA WILLIAMSON		2783 S SUNRISE PEAK CIR				SARATOGA SPRINGS UT 84045-6669	UT	84045-6669	83	7109 N CHEROKEE ST/ KV 79	Water			Sewer	Penalty			Garbage Service	Garbage Fuel Charge		Storm Drain	Deployed Abatement	Deposit	Miscellaneous							37.17			45.75				20.75			8.25									0	-33.84	0.00CR			111.92	78.08	08/08/2022	08/31/2022	07/01/2022	07/31/2022	47						00079						29610110						1						07/18/2022						3560						06/17/2022						3571						10						GAL							Past Due balances must be paid by 08/15/2022  in order to avoid a $50 fee and disconnection of water service.	If you would like to enroll in paperless billing or pay your bills online please visit www.eaglemountaincity.com	128156	11/10/2021		Single Graph				GAL To	31	7																		84045	0	JUL	JUN	MAY	APR	MAR	FEB	JAN	DEC	NOV	OCT	SEP	AUG		7	6	5	4	3	2	1	12	11	10	9	8	0	10	21	10	10	9	10	13	10	3	0	0	0	0	0	0	0	0	0	0	0	0	0	0	0	0	
129042	000	HOME BASICS REAL ESTATE		 HOME BASICS REAL ESTATE		383 N STATE ST STE 101				OREM UT 84057-4777	UT	84057-4777	26	4886 E CLOVER LEAF LN/ SLM 1929	Water			Sewer	Penalty			Garbage Service	Garbage Fuel Charge		Storm Drain	Deployed Abatement	Deposit	Miscellaneous							31.98			45.75				14.50			8.25									0	99.40	99.40CR			100.48	100.48	08/08/2022	08/31/2022	07/01/2022	07/31/2022	53						01929						86399926						1						07/18/2022						144						06/17/2022						150						6						GAL							Past Due balances must be paid by 08/15/2022  in order to avoid a $50 fee and disconnection of water service.	If you would like to enroll in paperless billing or pay your bills online please visit www.eaglemountaincity.com	107076	12/06/2021		Single Graph				GAL To	31	7																		84005	0	JUL	JUN	MAY	APR	MAR	FEB	JAN	DEC	NOV	OCT	SEP	AUG		7	6	5	4	3	2	1	12	11	10	9	8	0	6	5	1	5	5	4	7	2	0	0	0	0	0	0	0	0	0	0	0	0	0	0	0	0	0	
106175	002	HOME BASICS REAL ESTATE		 HOME BASICS REAL ESTATE		383 N STATE ST STE 101				OREM UT 84057-4777	UT	84057-4777	26	7718 N RIVERWOOD WAY/ SL 101	Water			Sewer	Penalty			Garbage Service	Garbage Fuel Charge		Storm Drain	Deployed Abatement	Deposit	Miscellaneous							72.31			45.75				20.75			8.25									0	144.68	144.68CR			147.06	147.06	08/08/2022	08/31/2022	07/01/2022	07/31/2022	53						00101						33559927						1						07/18/2022						3413						06/17/2022						3456						43						GAL							Past Due balances must be paid by 08/15/2022  in order to avoid a $50 fee and disconnection of water service.	If you would like to enroll in paperless billing or pay your bills online please visit www.eaglemountaincity.com	129974	02/01/2022		Single Graph				GAL To	31	7																		84057	0	JUL	JUN	MAY	APR	MAR	FEB	JAN	DEC	NOV	OCT	SEP	AUG		7	6	5	4	3	2	1	12	11	10	9	8	0	43	41	10	10	7	4	0	0	0	0	0	0	0	0	0	0	0	0	0	0	0	0	0	0	0	
106175	003	HOME BASICS REAL ESTATE		 HOME BASICS REAL ESTATE		383 N STATE ST STE 101				OREM UT 84057-4777	UT	84057-4777	26	7707 N MEADOW CREEK RD/ SL 124	Water			Sewer	Penalty			Garbage Service	Garbage Fuel Charge		Storm Drain	Deployed Abatement	Deposit	Miscellaneous							73.44			45.75				20.75			8.25									0	152.60	152.60CR			148.19	148.19	08/08/2022	08/31/2022	07/01/2022	07/31/2022	53						00124						33816615						2						07/18/2022						2915						06/17/2022						2959						44						Kilowatt							Past Due balances must be paid by 08/15/2022  in order to avoid a $50 fee and disconnection of water service.	If you would like to enroll in paperless billing or pay your bills online please visit www.eaglemountaincity.com	129972	02/01/2022		Single Graph				GAL To	31	7																		84057	0	JUL	JUN	MAY	APR	MAR	FEB	JAN	DEC	NOV	OCT	SEP	AUG		7	6	5	4	3	2	1	12	11	10	9	8	0	44	48	8	8	7	0	0	0	0	0	0	0	0	0	0	0	0	0	0	0	0	0	0	0	0	
106947	001	HOME BASICS REAL ESTATE		 HOME BASICS REAL ESTATE		383 N STATE ST STE 101				OREM UT 84057-4777	UT	84057-4777	26	7718 N WILLOW WALK LN/ SL 134	Water			Sewer	Penalty			Garbage Service	Garbage Fuel Charge		Storm Drain	Deployed Abatement	Deposit	Miscellaneous							51.73			45.75				20.75			8.25									0	115.87	116.00CR			126.48	126.35	08/08/2022	08/31/2022	07/01/2022	07/31/2022	53						00134						34477647						2						07/18/2022						2920						06/17/2022						2944						24						Kilowatt							Past Due balances must be paid by 08/15/2022  in order to avoid a $50 fee and disconnection of water service.	If you would like to enroll in paperless billing or pay your bills online please visit www.eaglemountaincity.com	129798	02/23/2022		Single Graph				GAL To	31	7																		84057	0	JUL	JUN	MAY	APR	MAR	FEB	JAN	DEC	NOV	OCT	SEP	AUG		7	6	5	4	3	2	1	12	11	10	9	8	0	24	15	13	9	13	0	0	0	0	0	0	0	0	0	0	0	0	0	0	0	0	0	0	0	0	
129036	000	HOME BASICS REAL ESTATE		 HOME BASICS REAL ESTATE		383 N STATE ST STE 101				OREM UT 84057-4777	UT	84057-4777	26	4038 E CLARK CIR/ ET 13	Water			Sewer	Penalty			Garbage Service	Garbage Fuel Charge		Storm Drain	Deployed Abatement	Deposit	Miscellaneous							25.50			45.75				14.50			8.25									0	316.60	174.00CR	15.00		94.00	251.60	08/08/2022	08/31/2022	07/01/2022	07/31/2022																			0												0												0						0													Past Due balances must be paid by 08/15/2022  in order to avoid a $50 fee and disconnection of water service.	If you would like to enroll in paperless billing or pay your bills online please visit www.eaglemountaincity.com	129765	12/06/2021	157.60	Single Graph				GAL To	31	7																		84057	0	JUL	JUN	MAY	APR	MAR	FEB	JAN	DEC	NOV	OCT	SEP	AUG		7	6	5	4	3	2	1	12	11	10	9	8	0	0	45	0	37	0	39	5	0	0	0	0	0	0	0	0	0	0	0	0	0	0	0	0	0	0	
123060	000	SCENIC MOUNTAIN HOMEOWNERS ASS		 SCENIC MOUNTAIN HOMEOWNERS ASS		PO BOX 1006				OREM UT 84059-1006	UT	84059-1006	06	9188 N SCENIC MOUNTAIN DR/ SCM LNDSCP	Water			Sewer	Penalty			Garbage Service	Garbage Fuel Charge		Storm Drain	Deployed Abatement	Deposit	Miscellaneous							80.58																			0	79.50	79.50CR			80.58	80.58	08/08/2022	08/31/2022	07/01/2022	07/31/2022	61						09188						90482078						1						07/20/2022						625						06/20/2022						676						51						GAL							Past Due balances must be paid by 08/15/2022  in order to avoid a $50 fee and disconnection of water service.	If you would like to enroll in paperless billing or pay your bills online please visit www.eaglemountaincity.com	123060	07/22/2019		Single Graph				GAL To	30	7																		84059	0	JUL	JUN	MAY	APR	MAR	FEB	JAN	DEC	NOV	OCT	SEP	AUG		7	6	5	4	3	2	1	12	11	10	9	8	0	51	50	17	16	0	0	0	0	0	9	78	78	0	83	58	25	0	0	0	0	0	0	58	93	60	
123060	001	SCENIC MOUNTAIN HOMEOWNERS ASS		 SCENIC MOUNTAIN HOMEOWNERS ASS		PO BOX 1006				OREM UT 84059-1006	UT	84059-1006	06	4398 E INVERNESS LN/ SCM LNDSCP	Water			Sewer	Penalty			Garbage Service	Garbage Fuel Charge		Storm Drain	Deployed Abatement	Deposit	Miscellaneous							147.54																			0	139.98	139.98CR			147.54	147.54	08/08/2022	08/31/2022	07/01/2022	07/31/2022	61						04398						90080654						1						07/20/2022						2497						06/20/2022						2610						113						GAL							Past Due balances must be paid by 08/15/2022  in order to avoid a $50 fee and disconnection of water service.	If you would like to enroll in paperless billing or pay your bills online please visit www.eaglemountaincity.com	123060	07/22/2019		Single Graph				GAL To	30	7																		84059	0	JUL	JUN	MAY	APR	MAR	FEB	JAN	DEC	NOV	OCT	SEP	AUG		7	6	5	4	3	2	1	12	11	10	9	8	0	113	106	44	21	0	0	0	0	0	36	209	169	0	186	188	91	11	0	0	0	0	0	42	158	234	
123060	002	SCENIC MOUNTAIN HOMEOWNERS ASS		 SCENIC MOUNTAIN HOMEOWNERS ASS		PO BOX 1006				OREM UT 84059-1006	UT	84059-1006	06	9330 N SCENIC MOUNTAIN DR/ SCM CLBHS	Water			Sewer	Penalty			Garbage Service	Garbage Fuel Charge		Storm Drain	Deployed Abatement	Deposit	Miscellaneous							39.54			45.75				15.75			8.25									0	98.36	98.36CR			109.29	109.29	08/08/2022	08/31/2022	07/01/2022	07/31/2022	61						CLBHS						88750515						1						07/20/2022						68						06/20/2022						81						13						GAL							Past Due balances must be paid by 08/15/2022  in order to avoid a $50 fee and disconnection of water service.	If you would like to enroll in paperless billing or pay your bills online please visit www.eaglemountaincity.com	123060	08/24/2021		Single Graph				GAL To	30	7																		84059	0	JUL	JUN	MAY	APR	MAR	FEB	JAN	DEC	NOV	OCT	SEP	AUG		7	6	5	4	3	2	1	12	11	10	9	8	0	13	16	32	0	1	0	0	1	1	1	7	0	0	0	0	0	0	0	0	0	0	0	0	0	0	
108353	287	CANDLELIGHT HOMES*		 CANDLELIGHT HOMES*		111 E SEGO LILY DR STE 150				SANDY UT 84070-4427	UT	84070-4427	25	4289 E HARVEST CROP DR/ ER H1 8	Water			Sewer	Penalty			Garbage Service	Garbage Fuel Charge		Storm Drain	Deployed Abatement	Deposit	Miscellaneous																										0	58.94	0.00CR				58.94	08/08/2022	08/31/2022	07/01/2022	07/31/2022																			0												0												0						0													Past Due balances must be paid by 08/15/2022  in order to avoid a $50 fee and disconnection of water service.	If you would like to enroll in paperless billing or pay your bills online please visit www.eaglemountaincity.com	108353	03/18/2019	58.94	Single Graph				GAL To	31	7																		84070	0	JUL	JUN	MAY	APR	MAR	FEB	JAN	DEC	NOV	OCT	SEP	AUG		7	6	5	4	3	2	1	12	11	10	9	8	0	0	0	0	0	0	0	0	0	0	0	0	0	0	0	0	0	0	0	0	0	0	0	0	0	0	
108353	393	CANDLELIGHT HOMES*		 CANDLELIGHT HOMES*		111 E SEGO LILY DR STE 150				SANDY UT 84070-4427	UT	84070-4427	25	7565 N PASTURE VIEW RD/ ER C1 3	Water			Sewer	Penalty			Garbage Service	Garbage Fuel Charge		Storm Drain	Deployed Abatement	Deposit	Miscellaneous																										0	51.20	0.00CR				51.20	08/08/2022	08/31/2022	07/01/2022	07/31/2022																			0												0												0						0													Past Due balances must be paid by 08/15/2022  in order to avoid a $50 fee and disconnection of water service.	If you would like to enroll in paperless billing or pay your bills online please visit www.eaglemountaincity.com	108353	01/29/2021	51.20	Single Graph				GAL To	31	7																		84070	0	JUL	JUN	MAY	APR	MAR	FEB	JAN	DEC	NOV	OCT	SEP	AUG		7	6	5	4	3	2	1	12	11	10	9	8	0	0	0	0	0	0	0	0	0	0	0	0	0	0	0	0	0	0	0	0	0	0	0	0	0	0	
108353	365	CANDLELIGHT HOMES*		 CANDLELIGHT HOMES*		111 E SEGO LILY DR STE 150				SANDY UT 84070-4427	UT	84070-4427	25	7386 N EVANS RANCH DR/ ER J1 17	Water			Sewer	Penalty			Garbage Service	Garbage Fuel Charge		Storm Drain	Deployed Abatement	Deposit	Miscellaneous																										0	66.14	0.00CR				66.14	08/08/2022	08/31/2022	07/01/2022	07/31/2022																			0												0												0						0													Past Due balances must be paid by 08/15/2022  in order to avoid a $50 fee and disconnection of water service.	If you would like to enroll in paperless billing or pay your bills online please visit www.eaglemountaincity.com	108353	06/24/2020	66.14	Single Graph				GAL To	31	7																		84070	0	JUL	JUN	MAY	APR	MAR	FEB	JAN	DEC	NOV	OCT	SEP	AUG		7	6	5	4	3	2	1	12	11	10	9	8	0	0	0	0	0	0	0	0	0	0	0	0	0	0	0	0	0	0	0	0	0	0	0	0	0	7	
108353	284	CANDLELIGHT HOMES*		 CANDLELIGHT HOMES*		111 E SEGO LILY DR STE 150				SANDY UT 84070-4427	UT	84070-4427	25	7278 N EVANS RANCH DR/ ER H1 24	Water			Sewer	Penalty			Garbage Service	Garbage Fuel Charge		Storm Drain	Deployed Abatement	Deposit	Miscellaneous																										0	79.02	0.00CR				79.02	08/08/2022	08/31/2022	07/01/2022	07/31/2022																			0												0												0						0													Past Due balances must be paid by 08/15/2022  in order to avoid a $50 fee and disconnection of water service.	If you would like to enroll in paperless billing or pay your bills online please visit www.eaglemountaincity.com	108353	03/05/2019	79.02	Single Graph				GAL To	31	7																		84070	0	JUL	JUN	MAY	APR	MAR	FEB	JAN	DEC	NOV	OCT	SEP	AUG		7	6	5	4	3	2	1	12	11	10	9	8	0	0	0	0	0	0	0	0	0	0	0	0	0	0	0	0	0	0	0	0	0	0	0	0	0	0	
003431	001	CHRISTIANSEN	ROD & MAREENA	ROD & MAREENA CHRISTIANSEN		4185 W NIKE DR				WEST JORDAN UT 84088-5915	UT	84088-5915	85	3291 E AUTUMN LN/ MR 133	Water			Sewer	Penalty			Garbage Service	Garbage Fuel Charge		Storm Drain	Deployed Abatement	Deposit	Miscellaneous							107.79							15.75			8.25									0	154.18	154.18CR			131.79	131.79	08/08/2022	08/31/2022	07/01/2022	07/31/2022	03						00133						35816236						2						07/19/2022						6382						06/20/2022						6458						76						Kilowatt							Past Due balances must be paid by 08/15/2022  in order to avoid a $50 fee and disconnection of water service.	If you would like to enroll in paperless billing or pay your bills online please visit www.eaglemountaincity.com	3431	08/18/2009		Single Graph				GAL To	31	7																		84088	0	JUL	JUN	MAY	APR	MAR	FEB	JAN	DEC	NOV	OCT	SEP	AUG		7	6	5	4	3	2	1	12	11	10	9	8	0	76	96	24	15	15	14	20	13	13	56	73	84	0	108	95	68	18	12	15	14	13	15	25	68	92	
003431	000	CHRISTIANSEN	ROD & MAREENA	ROD & MAREENA CHRISTIANSEN		4185 W NIKE DR				WEST JORDAN UT 84088-5915	UT	84088-5915	85	3319 E AUTUMN LN/ MR 134	Water			Sewer	Penalty			Garbage Service	Garbage Fuel Charge		Storm Drain	Deployed Abatement	Deposit	Miscellaneous							222.81							9.50			8.25									0	208.19	208.19CR			240.56	240.56	08/08/2022	08/31/2022	07/01/2022	07/31/2022	03						00134						88750505						1						07/20/2022						1254						06/20/2022						1433						179						GAL							Past Due balances must be paid by 08/15/2022  in order to avoid a $50 fee and disconnection of water service.	If you would like to enroll in paperless billing or pay your bills online please visit www.eaglemountaincity.com	3431	10/20/1999		Single Graph			300780	GAL To	31	7																		84088	0	JUL	JUN	MAY	APR	MAR	FEB	JAN	DEC	NOV	OCT	SEP	AUG		7	6	5	4	3	2	1	12	11	10	9	8	0	179	151	69	8	7	7	10	7	28	76	153	183	0	216	167	67	8	6	7	9	7	7	40	130	410	
120452	002	OSTLER	ANGELA	ANGELA OSTLER		576 W AUDUBON LN				SOUTH JORDAN UT 84095-4417	UT	84095-4417	76	4613 E GOLDEN AUTUMN VIEW/ SL 2625	Water			Sewer	Penalty			Garbage Service	Garbage Fuel Charge		Storm Drain	Deployed Abatement	Deposit	Miscellaneous							52.94			45.75				9.50			8.25									0	89.00	0.00CR	15.00		116.44	220.44	08/08/2022	08/31/2022	07/01/2022	07/31/2022	53						02625						21181005						1						07/18/2022						0						06/10/2022						25						25						GAL							Past Due balances must be paid by 08/15/2022  in order to avoid a $50 fee and disconnection of water service.	If you would like to enroll in paperless billing or pay your bills online please visit www.eaglemountaincity.com	120452	02/11/2022	104.00	Single Graph				GAL To	31	7																		84095	0	JUL	JUN	MAY	APR	MAR	FEB	JAN	DEC	NOV	OCT	SEP	AUG		7	6	5	4	3	2	1	12	11	10	9	8	0	25	0	0	0	0	0	0	0	0	0	0	0	0	0	0	0	0	0	0	0	0	0	0	0	0	
120120	008	OSTLER	ANGELA	ANGELA OSTLER		576 W AUDUBON LN				SOUTH JORDAN UT 84095-4417	UT	84095-4417	76	7284 N SILVER CREEK WAY/ SL 1853	Water			Sewer	Penalty			Garbage Service	Garbage Fuel Charge		Storm Drain	Deployed Abatement	Deposit	Miscellaneous							31.37			36.90				12.70			6.65									0		0.00CR			87.62	87.62	08/08/2022	08/31/2022	07/07/2022	07/31/2022	53						01853						87504017						1						07/20/2022						238						07/05/2022						248						10						GAL							Past Due balances must be paid by 08/15/2022  in order to avoid a $50 fee and disconnection of water service.	If you would like to enroll in paperless billing or pay your bills online please visit www.eaglemountaincity.com	120120	07/07/2022		Single Graph				GAL To	31	7																		84095	0	JUL	JUN	MAY	APR	MAR	FEB	JAN	DEC	NOV	OCT	SEP	AUG		7	6	5	4	3	2	1	12	11	10	9	8	0	10	0	0	0	0	0	0	0	0	0	0	0	0	0	0	0	0	0	0	0	0	0	0	0	0	
120120	005	OSTLER	ANGELA	ANGELA OSTLER		576 W AUDUBON LN				SOUTH JORDAN UT 84095-4417	UT	84095-4417	76	4565 E HARVEST CROP DR/ SL 1734	Water			Sewer	Penalty			Garbage Service	Garbage Fuel Charge		Storm Drain	Deployed Abatement	Deposit	Miscellaneous							81.66			45.75				20.75			8.25									0	147.77	147.77CR			156.41	156.41	08/08/2022	08/31/2022	07/01/2022	07/31/2022	53						01734						83442829						1						07/19/2022						388						06/20/2022						440						52						GAL							Past Due balances must be paid by 08/15/2022  in order to avoid a $50 fee and disconnection of water service.	If you would like to enroll in paperless billing or pay your bills online please visit www.eaglemountaincity.com	120120	11/08/2021		Single Graph				GAL To	31	7																		84095	0	JUL	JUN	MAY	APR	MAR	FEB	JAN	DEC	NOV	OCT	SEP	AUG		7	6	5	4	3	2	1	12	11	10	9	8	0	52	44	17	8	6	5	3	4	0	6	0	0	0	0	0	0	0	0	0	0	0	0	0	0	0	
120120	007	OSTLER	ANGELA	ANGELA OSTLER		576 W AUDUBON LN				SOUTH JORDAN UT 84095-4417	UT	84095-4417	76	4707 E SILVER RIDGE RD/ SL 1711	Water			Sewer	Penalty			Garbage Service	Garbage Fuel Charge		Storm Drain	Deployed Abatement	Deposit	Miscellaneous							73.02			45.75				20.75			8.25									0	128.33	128.33CR			147.77	147.77	08/08/2022	08/31/2022	07/01/2022	07/31/2022	53						01711						86327161						1						07/20/2022						567						06/20/2022						611						44						GAL							Past Due balances must be paid by 08/15/2022  in order to avoid a $50 fee and disconnection of water service.	If you would like to enroll in paperless billing or pay your bills online please visit www.eaglemountaincity.com	120120	03/18/2022		Single Graph				GAL To	31	7																		84095	0	JUL	JUN	MAY	APR	MAR	FEB	JAN	DEC	NOV	OCT	SEP	AUG		7	6	5	4	3	2	1	12	11	10	9	8	0	44	26	10	6	0	0	0	0	0	0	0	0	0	0	0	0	0	0	0	0	0	0	0	0	0	
120120	006	OSTLER	ANGELA	ANGELA OSTLER		576 W AUDUBON LN				SOUTH JORDAN UT 84095-4417	UT	84095-4417	76	4743 E SILVER RIDGE RD/ SL 1708	Water			Sewer	Penalty			Garbage Service	Garbage Fuel Charge		Storm Drain	Deployed Abatement	Deposit	Miscellaneous							44.94			45.75				22.00			8.25									0	118.78	118.78CR			120.94	120.94	08/08/2022	08/31/2022	07/01/2022	07/31/2022	53						01708						85383000						1						07/19/2022						567						06/17/2022						585						18						GAL							Past Due balances must be paid by 08/15/2022  in order to avoid a $50 fee and disconnection of water service.	If you would like to enroll in paperless billing or pay your bills online please visit www.eaglemountaincity.com	120120	02/09/2022		Single Graph				GAL To	31	7																		84095	0	JUL	JUN	MAY	APR	MAR	FEB	JAN	DEC	NOV	OCT	SEP	AUG		7	6	5	4	3	2	1	12	11	10	9	8	0	18	16	6	6	4	1	0	0	0	0	0	0	0	0	0	0	0	0	0	0	0	0	0	0	0	
122217	000	ASPEN TREE HOMES*		 ASPEN TREE HOMES*		6530 S COTTONWOOD ST				MURRAY UT 84107-7008	UT	84107-7008	30	2993 E LAKE VISTA DR/ LVE A2 211	Water			Sewer	Penalty			Garbage Service	Garbage Fuel Charge		Storm Drain	Deployed Abatement	Deposit	Miscellaneous																										0	66.14	0.00CR				66.14	08/08/2022	08/31/2022	07/01/2022	07/31/2022																			0												0												0						0													Past Due balances must be paid by 08/15/2022  in order to avoid a $50 fee and disconnection of water service.	If you would like to enroll in paperless billing or pay your bills online please visit www.eaglemountaincity.com	122217	11/14/2019	66.14	Single Graph				GAL To	31	7																		84107	0	JUL	JUN	MAY	APR	MAR	FEB	JAN	DEC	NOV	OCT	SEP	AUG		7	6	5	4	3	2	1	12	11	10	9	8	0	0	0	0	0	0	0	0	0	0	0	0	0	0	0	0	0	0	0	0	0	0	0	0	0	0	
122217	001	ASPEN TREE HOMES*		 ASPEN TREE HOMES*		6530 S COTTONWOOD ST				MURRAY UT 84107-7008	UT	84107-7008	30	3018 E LAKE VISTA DR/ LVE A2 221	Water			Sewer	Penalty			Garbage Service	Garbage Fuel Charge		Storm Drain	Deployed Abatement	Deposit	Miscellaneous																										0	64.01	0.00CR				64.01	08/08/2022	08/31/2022	07/01/2022	07/31/2022																			0												0												0						0													Past Due balances must be paid by 08/15/2022  in order to avoid a $50 fee and disconnection of water service.	If you would like to enroll in paperless billing or pay your bills online please visit www.eaglemountaincity.com	122217	01/29/2020	64.01	Single Graph				GAL To	31	7																		84107	0	JUL	JUN	MAY	APR	MAR	FEB	JAN	DEC	NOV	OCT	SEP	AUG		7	6	5	4	3	2	1	12	11	10	9	8	0	0	0	0	0	0	0	0	0	0	0	0	0	0	0	0	0	0	0	0	0	0	0	0	0	0	
106800	272	IVORY HOMES*		 IVORY HOMES*		978 E WOODOAK LN				SALT LAKE CTY UT 84117-7265	UT	84117-7265	78	1713 E ERICKSON KNOLL LN/ OL CLBHS	Water			Sewer	Penalty			Garbage Service	Garbage Fuel Charge		Storm Drain	Deployed Abatement	Deposit	Miscellaneous							455.08			45.75							8.25									0	565.96	0.00CR	15.00		509.08	1090.04	08/08/2022	08/31/2022	07/01/2022	07/31/2022	18						CLBHS						91993076						1						07/20/2022						2274						06/20/2022						2672						397						GAL							Past Due balances must be paid by 08/15/2022  in order to avoid a $50 fee and disconnection of water service.	If you would like to enroll in paperless billing or pay your bills online please visit www.eaglemountaincity.com	106800	12/23/2020	580.96	Single Graph				GAL To	31	7																		84117	0	JUL	JUN	MAY	APR	MAR	FEB	JAN	DEC	NOV	OCT	SEP	AUG		7	6	5	4	3	2	1	12	11	10	9	8	0	397	450	413	17	4	0	0	30	13	209	378	360	0	185	58	100	42	2	2	4	0	0	0	0	0	
106800	196	IVORY HOMES*		 IVORY HOMES*		978 E WOODOAK LN				SALT LAKE CTY UT 84117-7265	UT	84117-7265	78	6417 N VERNON DR/ OL B3 351	Water			Sewer	Penalty			Garbage Service	Garbage Fuel Charge		Storm Drain	Deployed Abatement	Deposit	Miscellaneous							52.50			45.75							8.25									0	117.30	117.30CR			106.50	106.50	08/08/2022	08/31/2022	07/01/2022	07/31/2022	18						0B351						88495245						1						07/20/2022						531						06/20/2022						556						25						GAL							Past Due balances must be paid by 08/15/2022  in order to avoid a $50 fee and disconnection of water service.	If you would like to enroll in paperless billing or pay your bills online please visit www.eaglemountaincity.com	106800	04/28/2020		Single Graph				GAL To	31	7																		84117	0	JUL	JUN	MAY	APR	MAR	FEB	JAN	DEC	NOV	OCT	SEP	AUG		7	6	5	4	3	2	1	12	11	10	9	8	0	25	35	27	3	0	1	0	0	1	18	33	24	0	43	30	24	0	0	1	0	1	2	56	52	67	
106800	302	IVORY HOMES*		 IVORY HOMES*		978 E WOODOAK LN				SALT LAKE CTY UT 84117-7265	UT	84117-7265	78	1694 E ERICKSON KNOLLS LN	Water			Sewer	Penalty			Garbage Service	Garbage Fuel Charge		Storm Drain	Deployed Abatement	Deposit	Miscellaneous							41.70			45.75							8.25									0	96.78	96.78CR			95.70	95.70	08/08/2022	08/31/2022	07/01/2022	07/31/2022	18						0B349						89984153						1						07/20/2022						157						06/20/2022						172						15						GAL							Past Due balances must be paid by 08/15/2022  in order to avoid a $50 fee and disconnection of water service.	If you would like to enroll in paperless billing or pay your bills online please visit www.eaglemountaincity.com	106800	04/23/2021		Single Graph				GAL To	31	7																		84117	0	JUL	JUN	MAY	APR	MAR	FEB	JAN	DEC	NOV	OCT	SEP	AUG		7	6	5	4	3	2	1	12	11	10	9	8	0	15	16	8	0	0	0	1	0	0	12	20	15	0	41	21	23	0	0	0	0	0	0	0	0	0	
106800	327	IVORY HOMES*		 IVORY HOMES*		978 E WOODOAK LN				SALT LAKE CTY UT 84117-7265	UT	84117-7265	78	1735 E ERICKSON KNOLL LN/ OL LNDSCP	Water			Sewer	Penalty			Garbage Service	Garbage Fuel Charge		Storm Drain	Deployed Abatement	Deposit	Miscellaneous							25.50																			0	238.47	238.47CR			25.50	25.50	08/08/2022	08/31/2022	07/01/2022	07/31/2022																			0												0												0						0													Past Due balances must be paid by 08/15/2022  in order to avoid a $50 fee and disconnection of water service.	If you would like to enroll in paperless billing or pay your bills online please visit www.eaglemountaincity.com	106800	08/24/2021		Single Graph				GAL To	31	7																		84117	0	JUL	JUN	MAY	APR	MAR	FEB	JAN	DEC	NOV	OCT	SEP	AUG		7	6	5	4	3	2	1	12	11	10	9	8	0	0	202	185	0	0	0	0	0	0	0	108	0	0	0	0	0	0	0	0	0	0	0	0	0	0	
103159	000	LARA	JOHN	JOHN LARA		5528 S 900 E STE 125				MURRAY UT 84117	UT	84117		4062 E OFALLONS WAY/ PC 248	Water			Sewer	Penalty			Garbage Service	Garbage Fuel Charge		Storm Drain	Deployed Abatement	Deposit	Miscellaneous							41.52			45.75				14.50			8.25									0	108.48	108.48CR			110.02	110.02	08/08/2022	08/31/2022	07/01/2022	07/31/2022	36						00248						35543877						1						07/18/2022						1973						06/17/2022						1988						14						GAL							Past Due balances must be paid by 08/15/2022  in order to avoid a $50 fee and disconnection of water service.	If you would like to enroll in paperless billing or pay your bills online please visit www.eaglemountaincity.com	103159	08/19/2006		Single Graph			3601140	GAL To	31	7																		84117	0	JUL	JUN	MAY	APR	MAR	FEB	JAN	DEC	NOV	OCT	SEP	AUG		7	6	5	4	3	2	1	12	11	10	9	8	0	14	13	5	6	2	2	3	2	3	12	23	27	0	26	25	14	7	6	7	8	6	6	11	33	37	
103159	001	LARA	JOHN	JOHN LARA		5528 S 900 E STE 125				MURRAY UT 84117	UT	84117		4737 E BRITTANY WAY/ SL 55	Water			Sewer	Penalty			Garbage Service	Garbage Fuel Charge		Storm Drain	Deployed Abatement	Deposit	Miscellaneous							87.66			45.75				15.75			8.25									0	96.42	96.42CR			157.41	157.41	08/08/2022	08/31/2022	07/01/2022	07/31/2022	53						00055						36315026						1						07/18/2022						2117						06/16/2022						2175						57						GAL							Past Due balances must be paid by 08/15/2022  in order to avoid a $50 fee and disconnection of water service.	If you would like to enroll in paperless billing or pay your bills online please visit www.eaglemountaincity.com	103159	05/02/2022		Single Graph				GAL To	31	7																		84117	0	JUL	JUN	MAY	APR	MAR	FEB	JAN	DEC	NOV	OCT	SEP	AUG		7	6	5	4	3	2	1	12	11	10	9	8	0	57	0	0	0	0	0	0	0	0	0	0	0	0	0	0	0	0	0	0	0	0	0	0	0	0	
102948	000	HOLIDAY OIL		 HOLIDAY OIL		3115 W 2100 S				WEST VALLEY CITY UT 84119-1211	UT	84119-1211	15	3476 E PONY EXPRESS PKWY/ HOLIDAY CARWASH	Water			Sewer	Penalty			Garbage Service	Garbage Fuel Charge		Storm Drain	Deployed Abatement	Deposit	Miscellaneous							250.21			45.75							24.75									0	300.98	300.98CR			320.71	320.71	08/08/2022	08/31/2022	07/01/2022	07/31/2022	45						03000						30079356						1						07/20/2022						6878						06/20/2022						7084						206						GAL							Past Due balances must be paid by 08/15/2022  in order to avoid a $50 fee and disconnection of water service.	If you would like to enroll in paperless billing or pay your bills online please visit www.eaglemountaincity.com	102948	06/06/2006		Single Graph				GAL To	30	7																		84119	0	JUL	JUN	MAY	APR	MAR	FEB	JAN	DEC	NOV	OCT	SEP	AUG		7	6	5	4	3	2	1	12	11	10	9	8	0	206	188	193	78	40	35	46	37	46	80	63	163	0	160	125	94	99	65	60	81	59	65	98	154	173	
102948	001	HOLIDAY OIL		 HOLIDAY OIL		3115 W 2100 S				WEST VALLEY CITY UT 84119-1211	UT	84119-1211	15	3476 E PONY EXPRESS PKWY/ HOLIDAY	Water			Sewer	Penalty			Garbage Service	Garbage Fuel Charge		Storm Drain	Deployed Abatement	Deposit	Miscellaneous							145.08			45.75							8.25									0	187.66	187.66CR			199.08	199.08	08/08/2022	08/31/2022	07/01/2022	07/31/2022	45						03000						32993965						1						07/20/2022						24847						06/20/2022						24958						110						GAL							Past Due balances must be paid by 08/15/2022  in order to avoid a $50 fee and disconnection of water service.	If you would like to enroll in paperless billing or pay your bills online please visit www.eaglemountaincity.com	102948	06/06/2006		Single Graph				GAL To	30	7																		84119	0	JUL	JUN	MAY	APR	MAR	FEB	JAN	DEC	NOV	OCT	SEP	AUG		7	6	5	4	3	2	1	12	11	10	9	8	0	110	100	90	140	131	134	140	68	68	72	110	115	0	137	124	108	97	126	137	164	30	82	109	147	107	
102948	002	HOLIDAY OIL		 HOLIDAY OIL		3115 W 2100 S				WEST VALLEY CITY UT 84119-1211	UT	84119-1211	15	1482 E EAGLE MOUNTAIN BLVD/ HOLIDAY	Water			Sewer	Penalty			Garbage Service	Garbage Fuel Charge		Storm Drain	Deployed Abatement	Deposit	Miscellaneous							236.34			91.50							16.50									0	469.62	469.62CR			344.34	344.34	08/08/2022	08/31/2022	07/01/2022	07/31/2022	24	24					00GAS	00GAS					79436125C	79436132IRR					1	1					07/20/2022	07/20/2022					4649	991					06/20/2022	06/20/2022					4742	1046					93	55					GAL	GAL						Past Due balances must be paid by 08/15/2022  in order to avoid a $50 fee and disconnection of water service.	If you would like to enroll in paperless billing or pay your bills online please visit www.eaglemountaincity.com	102948	10/28/2016		Single Graph				GAL To	30	7																		84119	0	JUL	JUN	MAY	APR	MAR	FEB	JAN	DEC	NOV	OCT	SEP	AUG		7	6	5	4	3	2	1	12	11	10	9	8	0	148	264	199	119	228	95	170	49	111	96	203	188	0	139	170	159	162	132	137	143	89	90	150	186	195	
102948	003	HOLIDAY OIL		 HOLIDAY OIL		3115 W 2100 S				WEST VALLEY CITY UT 84119-1211	UT	84119-1211	15	9295 N SUNSET DR/ HOLIDAY	Water			Sewer	Penalty			Garbage Service	Garbage Fuel Charge		Storm Drain	Deployed Abatement	Deposit	Miscellaneous							198.96			45.75							8.25									0	268.08	268.08CR			252.96	252.96	08/08/2022	08/31/2022	07/01/2022	07/31/2022	03	03					00001	00001					91292739	912992738					1	1					07/20/2022	07/20/2022					1097	631					06/20/2022	06/20/2022					1165	700					68	69					GAL	GAL						Past Due balances must be paid by 08/15/2022  in order to avoid a $50 fee and disconnection of water service.	If you would like to enroll in paperless billing or pay your bills online please visit www.eaglemountaincity.com	102948	06/01/2021		Single Graph				GAL To	30	7																		84119	0	JUL	JUN	MAY	APR	MAR	FEB	JAN	DEC	NOV	OCT	SEP	AUG		7	6	5	4	3	2	1	12	11	10	9	8	0	137	151	122	110	97	81	98	58	65	69	110	760	0	6	0	0	0	0	0	0	0	0	0	0	0	
129625	000	EREKSON	ELAINE	ELAINE EREKSON	c/o TWIN CEDAR APARTMENTS LLC	4388 S WANDER LN				SALT LAKE CITY UT 84124-3628	UT	84124-3628	88	8045 N PLUM CREEK DR/ PLCK F 4	Water			Sewer	Penalty			Garbage Service	Garbage Fuel Charge		Storm Drain	Deployed Abatement	Deposit	Miscellaneous							29.82			45.75							8.25									0	90.30	90.30CR	157.06		83.82	240.88	08/08/2022	08/31/2022	07/01/2022	07/31/2022	51						00004						89875770						1						07/20/2022						51						06/20/2022						55						4						GAL							Past Due balances must be paid by 08/15/2022  in order to avoid a $50 fee and disconnection of water service.	If you would like to enroll in paperless billing or pay your bills online please visit www.eaglemountaincity.com	129625	02/04/2022	157.06	Single Graph				GAL To	31	7																		84124	0	JUL	JUN	MAY	APR	MAR	FEB	JAN	DEC	NOV	OCT	SEP	AUG		7	6	5	4	3	2	1	12	11	10	9	8	0	4	10	7	0	0	0	0	0	0	0	0	0	0	0	0	0	0	0	0	0	0	0	0	0	0	
129619	000	EREKSON	ELAINE	ELAINE EREKSON	c/o TWIN CEDAR APARTMENTS LLC	4388 S WANDER LN				SALT LAKE CITY UT 84124-3628	UT	84124-3628	88	7255 N UTE DR/ FMS 59	Water			Sewer	Penalty			Garbage Service	Garbage Fuel Charge		Storm Drain	Deployed Abatement	Deposit	Miscellaneous							73.82			45.75				14.50			8.25									0	118.45	118.45CR			142.32	142.32	08/08/2022	08/31/2022	07/01/2022	07/31/2022	49						00059						29199551						1						07/18/2022						3324						06/17/2022						3369						44						GAL							Past Due balances must be paid by 08/15/2022  in order to avoid a $50 fee and disconnection of water service.	If you would like to enroll in paperless billing or pay your bills online please visit www.eaglemountaincity.com	129619	02/04/2022		Single Graph				GAL To	31	7																		841243628	0	JUL	JUN	MAY	APR	MAR	FEB	JAN	DEC	NOV	OCT	SEP	AUG		7	6	5	4	3	2	1	12	11	10	9	8	0	44	22	10	8	5	4	0	0	0	0	0	0	0	0	0	0	0	0	0	0	0	0	0	0	0	
124546	001	HOME RIVER GROUP LLC		 HOME RIVER GROUP LLC		PO BOX 520294				SALT LAKE CITY UT 84152-0294	UT	84152-0294	94	3858 E CASCADE RD/ PLCK 1	Water			Sewer	Penalty			Garbage Service	Garbage Fuel Charge		Storm Drain	Deployed Abatement	Deposit	Miscellaneous																										0	82.33	0.00CR				82.33	08/08/2022	08/31/2022	07/01/2022	07/31/2022																			0												0												0						0													Past Due balances must be paid by 08/15/2022  in order to avoid a $50 fee and disconnection of water service.	If you would like to enroll in paperless billing or pay your bills online please visit www.eaglemountaincity.com	124546	08/04/2020	82.33	Single Graph				GAL To	31	7																		84152	0	JUL	JUN	MAY	APR	MAR	FEB	JAN	DEC	NOV	OCT	SEP	AUG		7	6	5	4	3	2	1	12	11	10	9	8	0	0	0	0	0	0	0	0	0	0	0	0	0	0	5	2	3	4	2	2	4	2	6	4	5	5	
124546	002	HOME RIVER GROUP LLC		 HOME RIVER GROUP LLC		PO BOX 520294				SALT LAKE CITY UT 84152-0294	UT	84152-0294	94	2262 E BOBCAT WAY/ MR 210	Water			Sewer	Penalty			Garbage Service	Garbage Fuel Charge		Storm Drain	Deployed Abatement	Deposit	Miscellaneous							34.14			45.75				14.50			8.25									0	102.64	102.64CR			102.64	102.64	08/08/2022	08/31/2022	07/01/2022	07/31/2022	03						00210						84485827						1						07/20/2022						553						06/20/2022						561						8						GAL							Past Due balances must be paid by 08/15/2022  in order to avoid a $50 fee and disconnection of water service.	If you would like to enroll in paperless billing or pay your bills online please visit www.eaglemountaincity.com	124546	10/12/2020		Single Graph				GAL To	31	7																		84152	0	JUL	JUN	MAY	APR	MAR	FEB	JAN	DEC	NOV	OCT	SEP	AUG		7	6	5	4	3	2	1	12	11	10	9	8	0	8	8	6	10	8	6	7	4	7	12	13	7	0	8	8	7	8	4	6	7	7	2	0	0	0	
119369	003	UTAH DEPT OF TRANSPORTATION		 UTAH DEPT OF TRANSPORTATION		PO BOX 520294				SALT LAKE CITY UT 84152-0294	UT	84152-0294	94	2076 E SUNNYVALE DR/ VV SD 203	Water			Sewer	Penalty			Garbage Service	Garbage Fuel Charge		Storm Drain	Deployed Abatement	Deposit	Miscellaneous							69.78							9.50			8.25									0	105.89	105.89CR			87.53	87.53	08/08/2022	08/31/2022	07/01/2022	07/31/2022	06						00203						79527381						1						07/20/2022						2057						06/20/2022						2098						41						GAL							Past Due balances must be paid by 08/15/2022  in order to avoid a $50 fee and disconnection of water service.	If you would like to enroll in paperless billing or pay your bills online please visit www.eaglemountaincity.com	119369	08/15/2019		Single Graph				GAL To	31	7																		84152	0	JUL	JUN	MAY	APR	MAR	FEB	JAN	DEC	NOV	OCT	SEP	AUG		7	6	5	4	3	2	1	12	11	10	9	8	0	41	58	3	4	3	3	5	4	4	2	20	64	0	54	46	51	4	4	3	5	4	4	68	56	68	
119369	002	UTAH DEPT OF TRANSPORTATION		 UTAH DEPT OF TRANSPORTATION		PO BOX 520294				SALT LAKE CITY UT 84152-0294	UT	84152-0294	94	2028 E SUNNYVALE CIR/ VV SD 206	Water			Sewer	Penalty			Garbage Service	Garbage Fuel Charge		Storm Drain	Deployed Abatement	Deposit	Miscellaneous							76.26							9.50			8.25									0	70.25	70.25CR			94.01	94.01	08/08/2022	08/31/2022	07/01/2022	07/31/2022	06						00206						81302457						1						07/20/2022						1423						06/20/2022						1470						47						GAL							Past Due balances must be paid by 08/15/2022  in order to avoid a $50 fee and disconnection of water service.	If you would like to enroll in paperless billing or pay your bills online please visit www.eaglemountaincity.com	119369	08/15/2019		Single Graph				GAL To	31	7																		84152	0	JUL	JUN	MAY	APR	MAR	FEB	JAN	DEC	NOV	OCT	SEP	AUG		7	6	5	4	3	2	1	12	11	10	9	8	0	47	25	25	8	4	4	4	4	5	33	49	24	0	71	46	17	28	4	4	5	4	7	48	53	79	
119369	004	UTAH DEPT OF TRANSPORTATION		 UTAH DEPT OF TRANSPORTATION		PO BOX 520294				SALT LAKE CITY UT 84152-0294	UT	84152-0294	94	2094 E SUNNYVALE DR/ VV SD 202	Water			Sewer	Penalty			Garbage Service	Garbage Fuel Charge		Storm Drain	Deployed Abatement	Deposit	Miscellaneous							47.10							14.50			8.25									0	55.81	55.81CR			69.85	69.85	08/08/2022	08/31/2022	07/01/2022	07/31/2022	06						00202						79795207						1						07/20/2022						589						06/20/2022						609						20						GAL							Past Due balances must be paid by 08/15/2022  in order to avoid a $50 fee and disconnection of water service.	If you would like to enroll in paperless billing or pay your bills online please visit www.eaglemountaincity.com	119369	08/15/2019		Single Graph				GAL To	31	7																		84152	0	JUL	JUN	MAY	APR	MAR	FEB	JAN	DEC	NOV	OCT	SEP	AUG		7	6	5	4	3	2	1	12	11	10	9	8	0	20	7	5	4	3	3	3	3	3	9	34	12	0	9	7	3	3	4	2	5	3	4	26	20	31	
119369	000	UTAH DEPT OF TRANSPORTATION		 UTAH DEPT OF TRANSPORTATION		PO BOX 520294				SALT LAKE CITY UT 84152-0294	UT	84152-0294	94	9156 N CEDAR PASS RD/ CPR 39	Water			Sewer	Penalty			Garbage Service	Garbage Fuel Charge		Storm Drain	Deployed Abatement	Deposit	Miscellaneous							29.24							20.75			8.25									0	58.30	58.30CR			58.24	58.24	08/08/2022	08/31/2022	07/01/2022	07/31/2022	05						00039						40903003						3						07/20/2022						1293						06/20/2022						1297						3						Decatherm							Past Due balances must be paid by 08/15/2022  in order to avoid a $50 fee and disconnection of water service.	If you would like to enroll in paperless billing or pay your bills online please visit www.eaglemountaincity.com	119369	09/25/2017		Single Graph				GAL To	31	7																		84152	0	JUL	JUN	MAY	APR	MAR	FEB	JAN	DEC	NOV	OCT	SEP	AUG		7	6	5	4	3	2	1	12	11	10	9	8	0	3	3	2	3	3	2	4	3	0	0	8	8	0	10	12	8	6	5	4	5	4	4	10	17	24	
119369	008	UTAH DEPT OF TRANSPORTATION		 UTAH DEPT OF TRANSPORTATION		PO BOX 520294				SALT LAKE CITY UT 84152-0294	UT	84152-0294	94	9155 N CEDAR PASS RD/ CPR 1	Water			Sewer	Penalty			Garbage Service	Garbage Fuel Charge		Storm Drain	Deployed Abatement	Deposit	Miscellaneous							57.47							14.50			8.25									0	86.20	86.20CR			80.22	80.22	08/08/2022	08/31/2022	07/01/2022	07/31/2022	05						00001						36094920						1						07/20/2022						5676						06/20/2022						5706						29						GAL							Past Due balances must be paid by 08/15/2022  in order to avoid a $50 fee and disconnection of water service.	If you would like to enroll in paperless billing or pay your bills online please visit www.eaglemountaincity.com	119369	08/15/2019		Single Graph				GAL To	31	7																		84152	0	JUL	JUN	MAY	APR	MAR	FEB	JAN	DEC	NOV	OCT	SEP	AUG		7	6	5	4	3	2	1	12	11	10	9	8	0	29	35	22	16	12	11	15	10	11	10	13	17	0	20	28	15	15	11	12	24	41	27	54	72	124	
119369	009	UTAH DEPT OF TRANSPORTATION		 UTAH DEPT OF TRANSPORTATION		PO BOX 520294				SALT LAKE CITY UT 84152-0294	UT	84152-0294	94	9482 N BOBCAT WAY/ MR 209	Water			Sewer	Penalty			Garbage Service	Garbage Fuel Charge		Storm Drain	Deployed Abatement	Deposit	Miscellaneous							48.13							14.50			8.25									0	98.56	98.56CR			70.88	70.88	08/08/2022	08/31/2022	07/01/2022	07/31/2022	03						00209						35711166						3						07/20/2022						1773						06/20/2022						1794						20						Decatherm							Past Due balances must be paid by 08/15/2022  in order to avoid a $50 fee and disconnection of water service.	If you would like to enroll in paperless billing or pay your bills online please visit www.eaglemountaincity.com	119369	08/15/2019		Single Graph				GAL To	31	7																		84152	0	JUL	JUN	MAY	APR	MAR	FEB	JAN	DEC	NOV	OCT	SEP	AUG		7	6	5	4	3	2	1	12	11	10	9	8	0	20	46	6	9	4	6	7	6	6	6	7	11	0	11	11	14	8	4	5	9	6	7	9	19	24	
111659	020	AH4R I UT LLC		 AH4R I UT LLC		PO BOX 4698				LOGAN UT 84323-4698	UT	84323-4698	98	4042 E SMITH RANCH RD/ TC 168	Water			Sewer	Penalty			Garbage Service	Garbage Fuel Charge		Storm Drain	Deployed Abatement	Deposit	Miscellaneous							71.05			45.75				14.50			8.25									0	96.70	96.70CR			139.55	139.55	08/08/2022	08/31/2022	07/01/2022	07/31/2022	37						00168						18623186						1						07/19/2022						1812						06/20/2022						1855						42						GAL							Past Due balances must be paid by 08/15/2022  in order to avoid a $50 fee and disconnection of water service.	If you would like to enroll in paperless billing or pay your bills online please visit www.eaglemountaincity.com	111659	02/18/2015		Single Graph				GAL To	31	7																		84323	0	JUL	JUN	MAY	APR	MAR	FEB	JAN	DEC	NOV	OCT	SEP	AUG		7	6	5	4	3	2	1	12	11	10	9	8	0	42	2	2	3	2	2	3	2	2	2	3	3	0	18	3	3	3	1	2	3	2	3	16	15	21	
111659	029	AH4R I UT LLC		 AH4R I UT LLC		PO BOX 4698				LOGAN UT 84323-4698	UT	84323-4698	98	1347 E HAWK WAY/ EPK 179	Water			Sewer	Penalty			Garbage Service	Garbage Fuel Charge		Storm Drain	Deployed Abatement	Deposit	Miscellaneous							57.90			45.75							8.25									0	103.26	103.26CR			111.90	111.90	08/08/2022	08/31/2022	07/01/2022	07/31/2022	18						00179						85533498						1						07/20/2022						781						06/20/2022						811						30						GAL							Past Due balances must be paid by 08/15/2022  in order to avoid a $50 fee and disconnection of water service.	If you would like to enroll in paperless billing or pay your bills online please visit www.eaglemountaincity.com	111659	08/14/2017		Single Graph				GAL To	31	7																		84323	0	JUL	JUN	MAY	APR	MAR	FEB	JAN	DEC	NOV	OCT	SEP	AUG		7	6	5	4	3	2	1	12	11	10	9	8	0	30	22	15	13	9	12	13	9	11	23	38	32	0	43	36	31	2	4	3	4	5	4	39	41	34	
111659	036	AH4R I UT LLC		 AH4R I UT LLC		PO BOX 4698				LOGAN UT 84323-4698	UT	84323-4698	98	2346 E TUMBLEWEED RD/ CDC A2 225	Water			Sewer	Penalty			Garbage Service	Garbage Fuel Charge		Storm Drain	Deployed Abatement	Deposit	Miscellaneous							25.50			45.75				14.50			8.25									0	94.00	94.00CR			94.00	94.00	08/08/2022	08/31/2022	07/01/2022	07/31/2022																			0												0												0						0													Past Due balances must be paid by 08/15/2022  in order to avoid a $50 fee and disconnection of water service.	If you would like to enroll in paperless billing or pay your bills online please visit www.eaglemountaincity.com	111659	01/23/2020		Single Graph					31	7																		84323	0														0	0	0	0	0	0	0	0	0	0	0	0	0	0	0	0	0	0	0	0	0	0	0	0	0	0	0	0	0	0	0	0	0	0	0	0	0	0	
112338	032	AH4RPFIVE LLC		 AH4RPFIVE LLC		PO BOX 4698				LOGAN UT 84323-4698	UT	84323-4698	98	4452 N HERITAGE DR/ PA 1	Water			Sewer	Penalty			Garbage Service	Garbage Fuel Charge		Storm Drain	Deployed Abatement	Deposit	Miscellaneous							93.54			45.75				9.50			8.25									0	109.52	109.52CR			157.04	157.04	08/08/2022	08/31/2022	07/01/2022	07/31/2022	17						00001						89575029						1						07/20/2022						79						06/20/2022						142						63						GAL							Past Due balances must be paid by 08/15/2022  in order to avoid a $50 fee and disconnection of water service.	If you would like to enroll in paperless billing or pay your bills online please visit www.eaglemountaincity.com	112338	09/09/2014		Single Graph				GAL To	31	7																		84323	0	JUL	JUN	MAY	APR	MAR	FEB	JAN	DEC	NOV	OCT	SEP	AUG		7	6	5	4	3	2	1	12	11	10	9	8	0	63	19	2	4	4	3	4	3	5	4	6	3	0	6	6	4	1	2	0	0	1	2	2	22	43	
112338	036	AH4RPFIVE LLC		 AH4RPFIVE LLC		PO BOX 4698				LOGAN UT 84323-4698	UT	84323-4698	98	3965 E PAWNEE RD/ KV 145	Water			Sewer	Penalty			Garbage Service	Garbage Fuel Charge		Storm Drain	Deployed Abatement	Deposit	Miscellaneous							25.50			45.75				20.75			8.25									0	111.05	222.10CR			100.25	-10.80	08/08/2022	08/31/2022	07/01/2022	07/31/2022																			0												0												0						0													Past Due balances must be paid by 08/15/2022  in order to avoid a $50 fee and disconnection of water service.	If you would like to enroll in paperless billing or pay your bills online please visit www.eaglemountaincity.com	112338	07/07/2015		Single Graph				GAL To	31	7																		84323	0	JUL	JUN	MAY	APR	MAR	FEB	JAN	DEC	NOV	OCT	SEP	AUG		7	6	5	4	3	2	1	12	11	10	9	8	0	0	10	0	14	2	2	3	2	3	3	33	16	0	22	12	15	5	2	3	4	3	3	5	21	45	
112048	026	AH4RPTHREE LLC		 AH4RPTHREE LLC		PO BOX 4698				LOGAN UT 84323-4698	UT	84323-4698	98	3501 E BAY CT/ FS 10	Water			Sewer	Penalty			Garbage Service	Garbage Fuel Charge		Storm Drain	Deployed Abatement	Deposit	Miscellaneous							58.98			45.75				20.75			8.25									0	107.81	107.81CR			133.73	133.73	08/08/2022	08/31/2022	07/01/2022	07/31/2022	33						00010						84485826						1						07/20/2022						567						06/20/2022						598						31						GAL							Past Due balances must be paid by 08/15/2022  in order to avoid a $50 fee and disconnection of water service.	If you would like to enroll in paperless billing or pay your bills online please visit www.eaglemountaincity.com	112048	01/30/2015		Single Graph				GAL To	31	7																		84323	0	JUL	JUN	MAY	APR	MAR	FEB	JAN	DEC	NOV	OCT	SEP	AUG		7	6	5	4	3	2	1	12	11	10	9	8	0	31	7	5	5	4	4	6	3	4	4	20	18	0	18	15	2	1	1	1	2	3	4	20	33	38	
112048	029	AH4RPTHREE LLC		 AH4RPTHREE LLC		PO BOX 4698				LOGAN UT 84323-4698	UT	84323-4698	98	7576 N SNOWY OWL RD/ DS 47	Water			Sewer	Penalty			Garbage Service	Garbage Fuel Charge		Storm Drain	Deployed Abatement	Deposit	Miscellaneous							35.03			45.75				20.75			8.25									0	100.42	100.42CR			109.78	109.78	08/08/2022	08/31/2022	07/01/2022	07/31/2022	10						00047						35961431						1						07/18/2022						1735						06/20/2022						1744						8						GAL							Past Due balances must be paid by 08/15/2022  in order to avoid a $50 fee and disconnection of water service.	If you would like to enroll in paperless billing or pay your bills online please visit www.eaglemountaincity.com	112048	08/17/2015		Single Graph				GAL To	31	7																		84323	0	JUL	JUN	MAY	APR	MAR	FEB	JAN	DEC	NOV	OCT	SEP	AUG		7	6	5	4	3	2	1	12	11	10	9	8	0	8	0	0	2	4	4	5	4	5	4	5	5	0	6	7	6	4	3	3	5	4	9	17	14	19	
112048	017	AH4RPTHREE LLC		 AH4RPTHREE LLC		PO BOX 4698				LOGAN UT 84323-4698	UT	84323-4698	98	7788 N KOOKABURRA CT/ CHR 69	Water			Sewer	Penalty			Garbage Service	Garbage Fuel Charge		Storm Drain	Deployed Abatement	Deposit	Miscellaneous							25.50			45.75				14.50			8.25									0	117.76	117.76CR			94.00	94.00	08/08/2022	08/31/2022	07/01/2022	07/31/2022																			0												0												0						0													Past Due balances must be paid by 08/15/2022  in order to avoid a $50 fee and disconnection of water service.	If you would like to enroll in paperless billing or pay your bills online please visit www.eaglemountaincity.com	112048	07/31/2013		Single Graph				GAL To	31	7																		84323	0	JUL	JUN	MAY	APR	MAR	FEB	JAN	DEC	NOV	OCT	SEP	AUG		7	6	5	4	3	2	1	12	11	10	9	8	0	0	22	0	13	0	12	66	7	13	9	11	8	0	12	148	0	561	191	157	191	111	35	27	36	50	
112700	073	AMERICAN HOMES 4 RENT		 AMERICAN HOMES 4 RENT		PO BOX 4698				LOGAN UT 84323-4698	UT	84323-4698	98	4428 N POPLAR DR/ CDC A3 317	Water			Sewer	Penalty			Garbage Service	Garbage Fuel Charge		Storm Drain	Deployed Abatement	Deposit	Miscellaneous							56.82			45.75							8.25									0	114.06	114.06CR			110.82	110.82	08/08/2022	08/31/2022	07/01/2022	07/31/2022	17						00317						87900262						1						07/20/2022						501						06/20/2022						530						29						GAL							Past Due balances must be paid by 08/15/2022  in order to avoid a $50 fee and disconnection of water service.	If you would like to enroll in paperless billing or pay your bills online please visit www.eaglemountaincity.com	112700	02/21/2020		Single Graph				GAL To	31	7																		84323	0	JUL	JUN	MAY	APR	MAR	FEB	JAN	DEC	NOV	OCT	SEP	AUG		7	6	5	4	3	2	1	12	11	10	9	8	0	29	32	18	5	4	5	6	5	5	18	42	37	0	54	45	14	9	5	5	5	5	10	17	43	44	
112700	121	AMERICAN HOMES 4 RENT		 AMERICAN HOMES 4 RENT		PO BOX 4698				LOGAN UT 84323-4698	UT	84323-4698	98	2343 E BUCKSKIN WAY/ CDC A4 432	Water			Sewer	Penalty			Garbage Service	Garbage Fuel Charge		Storm Drain	Deployed Abatement	Deposit	Miscellaneous							52.50			45.75				9.50			8.25									0	120.32	120.32CR			116.00	116.00	08/08/2022	08/31/2022	07/01/2022	07/31/2022	17						00432						89174154						1						07/20/2022						205						06/20/2022						230						25						GAL							Past Due balances must be paid by 08/15/2022  in order to avoid a $50 fee and disconnection of water service.	If you would like to enroll in paperless billing or pay your bills online please visit www.eaglemountaincity.com	112700	10/06/2020		Single Graph				GAL To	31	7																		84323	0	JUL	JUN	MAY	APR	MAR	FEB	JAN	DEC	NOV	OCT	SEP	AUG		7	6	5	4	3	2	1	12	11	10	9	8	0	25	29	10	4	3	3	4	2	5	10	26	11	0	27	13	21	28	5	3	1	0	0	0	0	0	
112700	089	AMERICAN HOMES 4 RENT		 AMERICAN HOMES 4 RENT		PO BOX 4698				LOGAN UT 84323-4698	UT	84323-4698	98	2409 E WILD HORSE WAY/ CDC A3 311	Water			Sewer	Penalty			Garbage Service	Garbage Fuel Charge		Storm Drain	Deployed Abatement	Deposit	Miscellaneous							25.50			45.75				9.50			8.25									0	114.92	114.92CR			89.00	89.00	08/08/2022	08/31/2022	07/01/2022	07/31/2022																			0												0												0						0													Past Due balances must be paid by 08/15/2022  in order to avoid a $50 fee and disconnection of water service.	If you would like to enroll in paperless billing or pay your bills online please visit www.eaglemountaincity.com	112700	03/17/2020		Single Graph				GAL To	31	7																		84323	0	JUL	JUN	MAY	APR	MAR	FEB	JAN	DEC	NOV	OCT	SEP	AUG		7	6	5	4	3	2	1	12	11	10	9	8	0	0	24	0	0	0	7	3	1	2	3	10	16	0	25	16	8	9	2	1	3	3	4	16	20	43	
112700	129	AMERICAN HOMES 4 RENT		 AMERICAN HOMES 4 RENT		PO BOX 4698				LOGAN UT 84323-4698	UT	84323-4698	98	2373 E BUCKSKIN WAY/ CDC A4 435	Water			Sewer	Penalty			Garbage Service	Garbage Fuel Charge		Storm Drain	Deployed Abatement	Deposit	Miscellaneous							76.26			45.75				14.50			8.25									0	130.72	130.72CR			144.76	144.76	08/08/2022	08/31/2022	07/01/2022	07/31/2022	17						00435						88979494						1						07/20/2022						239						06/20/2022						286						47						GAL							Past Due balances must be paid by 08/15/2022  in order to avoid a $50 fee and disconnection of water service.	If you would like to enroll in paperless billing or pay your bills online please visit www.eaglemountaincity.com	112700	10/28/2020		Single Graph				GAL To	31	7																		84323	0	JUL	JUN	MAY	APR	MAR	FEB	JAN	DEC	NOV	OCT	SEP	AUG		7	6	5	4	3	2	1	12	11	10	9	8	0	47	34	6	0	2	2	6	4	4	3	40	28	0	34	19	19	21	4	4	5	4	0	0	0	0	
112700	056	AMERICAN HOMES 4 RENT		 AMERICAN HOMES 4 RENT		PO BOX 4698				LOGAN UT 84323-4698	UT	84323-4698	98	2446 E TUMBLEWEED RD/ CDC A2 216	Water			Sewer	Penalty			Garbage Service	Garbage Fuel Charge		Storm Drain	Deployed Abatement	Deposit	Miscellaneous							73.02			45.75				20.75			8.25									0	134.81	134.81CR			147.77	147.77	08/08/2022	08/31/2022	07/01/2022	07/31/2022	17						00216						87663983						1						07/20/2022						560						06/20/2022						604						44						GAL							Past Due balances must be paid by 08/15/2022  in order to avoid a $50 fee and disconnection of water service.	If you would like to enroll in paperless billing or pay your bills online please visit www.eaglemountaincity.com	112700	01/23/2020		Single Graph				GAL To	31	7																		84323	0	JUL	JUN	MAY	APR	MAR	FEB	JAN	DEC	NOV	OCT	SEP	AUG		7	6	5	4	3	2	1	12	11	10	9	8	0	44	32	20	17	15	16	16	15	13	9	12	37	0	25	23	19	12	8	23	3	6	10	22	39	58	
112700	020	AMERICAN HOMES 4 RENT		 AMERICAN HOMES 4 RENT		PO BOX 4698				LOGAN UT 84323-4698	UT	84323-4698	98	2308 E TUMBLEWEED RD/ CDC A1 29	Water			Sewer	Penalty			Garbage Service	Garbage Fuel Charge		Storm Drain	Deployed Abatement	Deposit	Miscellaneous							55.74			45.75				14.50			8.25									0	103.72	103.72CR			124.24	124.24	08/08/2022	08/31/2022	07/01/2022	07/31/2022	17						00029						86960923						1						07/20/2022						1082						06/16/2022						1110						28						GAL							Past Due balances must be paid by 08/15/2022  in order to avoid a $50 fee and disconnection of water service.	If you would like to enroll in paperless billing or pay your bills online please visit www.eaglemountaincity.com	112700	09/25/2019		Single Graph				GAL To	31	7																		84323	0	JUL	JUN	MAY	APR	MAR	FEB	JAN	DEC	NOV	OCT	SEP	AUG		7	6	5	4	3	2	1	12	11	10	9	8	0	28	9	8	25	19	20	29	23	23	16	27	25	0	50	119	77	83	29	122	1	36	36	49	45	50	
112700	171	AMERICAN HOMES 4 RENT		 AMERICAN HOMES 4 RENT		PO BOX 4698				LOGAN UT 84323-4698	UT	84323-4698	98	2398 E SURRY WAY/ CDC A4 418	Water			Sewer	Penalty			Garbage Service	Garbage Fuel Charge		Storm Drain	Deployed Abatement	Deposit	Miscellaneous							79.50			45.75				14.50			8.25									0	100.48	100.48CR			148.00	148.00	08/08/2022	08/31/2022	07/01/2022	07/31/2022	17						00418						90852768						1						07/15/2022						60						06/16/2022						110						50						GAL							Past Due balances must be paid by 08/15/2022  in order to avoid a $50 fee and disconnection of water service.	If you would like to enroll in paperless billing or pay your bills online please visit www.eaglemountaincity.com	112700	10/06/2021		Single Graph				GAL To	31	7																		84323	0	JUL	JUN	MAY	APR	MAR	FEB	JAN	DEC	NOV	OCT	SEP	AUG		7	6	5	4	3	2	1	12	11	10	9	8	0	50	6	6	8	12	6	6	5	19	0	0	0	0	0	0	0	0	0	0	0	0	0	0	0	0	
112700	076	AMERICAN HOMES 4 RENT		 AMERICAN HOMES 4 RENT		PO BOX 4698				LOGAN UT 84323-4698	UT	84323-4698	98	2418 E WILD HORSE WAY/ CDC A3 320	Water			Sewer	Penalty			Garbage Service	Garbage Fuel Charge		Storm Drain	Deployed Abatement	Deposit	Miscellaneous							50.34			45.75				14.50			8.25									0	113.44	113.44CR			118.84	118.84	08/08/2022	08/31/2022	07/01/2022	07/31/2022	17						00320						87991035						1						07/20/2022						273						06/20/2022						296						23						GAL							Past Due balances must be paid by 08/15/2022  in order to avoid a $50 fee and disconnection of water service.	If you would like to enroll in paperless billing or pay your bills online please visit www.eaglemountaincity.com	112700	02/19/2020		Single Graph				GAL To	31	7																		84323	0	JUL	JUN	MAY	APR	MAR	FEB	JAN	DEC	NOV	OCT	SEP	AUG		7	6	5	4	3	2	1	12	11	10	9	8	0	23	18	7	5	4	7	6	5	4	4	4	13	0	34	11	11	8	4	4	6	4	11	21	25	36	
112700	075	AMERICAN HOMES 4 RENT		 AMERICAN HOMES 4 RENT		PO BOX 4698				LOGAN UT 84323-4698	UT	84323-4698	98	2430 E WILD HORSE WAY/ CDC A3 319	Water			Sewer	Penalty			Garbage Service	Garbage Fuel Charge		Storm Drain	Deployed Abatement	Deposit	Miscellaneous							52.50			45.75				25.75			8.25									0	129.01	129.01CR			132.25	132.25	08/08/2022	08/31/2022	07/01/2022	07/31/2022	17						00319						87991030						1						07/20/2022						303						06/17/2022						328						25						GAL							Past Due balances must be paid by 08/15/2022  in order to avoid a $50 fee and disconnection of water service.	If you would like to enroll in paperless billing or pay your bills online please visit www.eaglemountaincity.com	112700	02/20/2020		Single Graph				GAL To	31	7																		84323	0	JUL	JUN	MAY	APR	MAR	FEB	JAN	DEC	NOV	OCT	SEP	AUG		7	6	5	4	3	2	1	12	11	10	9	8	0	25	22	3	0	3	3	5	3	3	3	18	35	0	40	19	10	7	4	4	6	4	5	21	31	49	
112700	052	AMERICAN HOMES 4 RENT		 AMERICAN HOMES 4 RENT		PO BOX 4698				LOGAN UT 84323-4698	UT	84323-4698	98	2390 E TUMBLEWEED RD/ CDC A2 221	Water			Sewer	Penalty			Garbage Service	Garbage Fuel Charge		Storm Drain	Deployed Abatement	Deposit	Miscellaneous							41.70			45.75				9.50			8.25									0	95.48	95.48CR			105.20	105.20	08/08/2022	08/31/2022	07/01/2022	07/31/2022	17						00221						86622302						1						07/20/2022						274						06/16/2022						289						15						GAL							Past Due balances must be paid by 08/15/2022  in order to avoid a $50 fee and disconnection of water service.	If you would like to enroll in paperless billing or pay your bills online please visit www.eaglemountaincity.com	112700	01/08/2020		Single Graph				GAL To	31	7																		84323	0	JUL	JUN	MAY	APR	MAR	FEB	JAN	DEC	NOV	OCT	SEP	AUG		7	6	5	4	3	2	1	12	11	10	9	8	0	15	6	4	3	3	2	4	3	2	6	13	10	0	29	19	10	17	2	4	6	4	6	11	21	30	
112700	059	AMERICAN HOMES 4 RENT		 AMERICAN HOMES 4 RENT		PO BOX 4698				LOGAN UT 84323-4698	UT	84323-4698	98	2326 E TUMBLEWEED RD/ CDC A2 227	Water			Sewer	Penalty			Garbage Service	Garbage Fuel Charge		Storm Drain	Deployed Abatement	Deposit	Miscellaneous							55.74			45.75				14.50			8.25									0	109.12	109.12CR			124.24	124.24	08/08/2022	08/31/2022	07/01/2022	07/31/2022	17						00227						87534228						1						07/20/2022						281						06/20/2022						309						28						GAL							Past Due balances must be paid by 08/15/2022  in order to avoid a $50 fee and disconnection of water service.	If you would like to enroll in paperless billing or pay your bills online please visit www.eaglemountaincity.com	112700	01/24/2020		Single Graph				GAL To	31	7																		84323	0	JUL	JUN	MAY	APR	MAR	FEB	JAN	DEC	NOV	OCT	SEP	AUG		7	6	5	4	3	2	1	12	11	10	9	8	0	28	14	6	5	2	1	3	0	0	4	18	16	0	19	10	9	6	4	4	6	3	6	13	25	46	
112700	106	AMERICAN HOMES 4 RENT		 AMERICAN HOMES 4 RENT		PO BOX 4698				LOGAN UT 84323-4698	UT	84323-4698	98	2379 E SURRY WAY/ CDC A4 409	Water			Sewer	Penalty			Garbage Service	Garbage Fuel Charge		Storm Drain	Deployed Abatement	Deposit	Miscellaneous							58.98			45.75				25.75			8.25									0	123.61	123.61CR			138.73	138.73	08/08/2022	08/31/2022	07/01/2022	07/31/2022	17						00409						88920395						1						07/20/2022						326						06/16/2022						357						31						GAL							Past Due balances must be paid by 08/15/2022  in order to avoid a $50 fee and disconnection of water service.	If you would like to enroll in paperless billing or pay your bills online please visit www.eaglemountaincity.com	112700	08/18/2020		Single Graph				GAL To	31	7																		84323	0	JUL	JUN	MAY	APR	MAR	FEB	JAN	DEC	NOV	OCT	SEP	AUG		7	6	5	4	3	2	1	12	11	10	9	8	0	31	17	9	6	4	4	6	4	4	7	19	16	0	18	16	23	25	13	55	9	5	7	59	0	0	
112700	117	AMERICAN HOMES 4 RENT		 AMERICAN HOMES 4 RENT		PO BOX 4698				LOGAN UT 84323-4698	UT	84323-4698	98	2344 E SURRY WAY/ CDC A4 423	Water			Sewer	Penalty			Garbage Service	Garbage Fuel Charge		Storm Drain	Deployed Abatement	Deposit	Miscellaneous							44.94			45.75				9.50			8.25									0	99.80	99.80CR			108.44	108.44	08/08/2022	08/31/2022	07/01/2022	07/31/2022	17						00423						88867502						1						07/20/2022						171						06/16/2022						189						18						GAL							Past Due balances must be paid by 08/15/2022  in order to avoid a $50 fee and disconnection of water service.	If you would like to enroll in paperless billing or pay your bills online please visit www.eaglemountaincity.com	112700	09/18/2020		Single Graph				GAL To	31	7																		84323	0	JUL	JUN	MAY	APR	MAR	FEB	JAN	DEC	NOV	OCT	SEP	AUG		7	6	5	4	3	2	1	12	11	10	9	8	0	18	10	6	1	1	0	1	3	3	6	18	16	0	20	17	16	9	3	3	4	3	12	19	0	0	
112700	062	AMERICAN HOMES 4 RENT		 AMERICAN HOMES 4 RENT		PO BOX 4698				LOGAN UT 84323-4698	UT	84323-4698	98	2286 E TUMBLEWEED RD/ CDC A1 27	Water			Sewer	Penalty			Garbage Service	Garbage Fuel Charge		Storm Drain	Deployed Abatement	Deposit	Miscellaneous							69.78			45.75				14.50			8.25									0	108.04	108.04CR			138.28	138.28	08/08/2022	08/31/2022	07/01/2022	07/31/2022	17						00027						87151527						1						07/20/2022						583						06/17/2022						624						41						GAL							Past Due balances must be paid by 08/15/2022  in order to avoid a $50 fee and disconnection of water service.	If you would like to enroll in paperless billing or pay your bills online please visit www.eaglemountaincity.com	112700	02/01/2020		Single Graph				GAL To	31	7																		84323	0	JUL	JUN	MAY	APR	MAR	FEB	JAN	DEC	NOV	OCT	SEP	AUG		7	6	5	4	3	2	1	12	11	10	9	8	0	41	13	6	6	4	4	7	4	5	13	29	25	0	30	25	25	10	5	5	5	8	8	34	52	61	
112700	115	AMERICAN HOMES 4 RENT		 AMERICAN HOMES 4 RENT		PO BOX 4698				LOGAN UT 84323-4698	UT	84323-4698	98	2354 E SURRY WAY/ CDC A4 422	Water			Sewer	Penalty			Garbage Service	Garbage Fuel Charge		Storm Drain	Deployed Abatement	Deposit	Miscellaneous							50.34			45.75				14.50			8.25									0	112.36	112.36CR			118.84	118.84	08/08/2022	08/31/2022	07/01/2022	07/31/2022	17						00422						88920366						1						07/15/2022						169						06/16/2022						192						23						GAL							Past Due balances must be paid by 08/15/2022  in order to avoid a $50 fee and disconnection of water service.	If you would like to enroll in paperless billing or pay your bills online please visit www.eaglemountaincity.com	112700	09/17/2020		Single Graph				GAL To	31	7																		84323	0	JUL	JUN	MAY	APR	MAR	FEB	JAN	DEC	NOV	OCT	SEP	AUG		7	6	5	4	3	2	1	12	11	10	9	8	0	23	17	7	4	2	2	3	2	4	4	4	17	0	20	16	17	8	3	3	4	4	12	16	0	0	
112700	138	AMERICAN HOMES 4 RENT		 AMERICAN HOMES 4 RENT		PO BOX 4698				LOGAN UT 84323-4698	UT	84323-4698	98	2370 E BUCKSKIN WAY/ CDC A4 446	Water			Sewer	Penalty			Garbage Service	Garbage Fuel Charge		Storm Drain	Deployed Abatement	Deposit	Miscellaneous							47.10			45.75				14.50			8.25									0	116.68	116.68CR			115.60	115.60	08/08/2022	08/31/2022	07/01/2022	07/31/2022	17						00446						88979439						1						07/20/2022						206						06/20/2022						226						20						GAL							Past Due balances must be paid by 08/15/2022  in order to avoid a $50 fee and disconnection of water service.	If you would like to enroll in paperless billing or pay your bills online please visit www.eaglemountaincity.com	112700	11/13/2020		Single Graph				GAL To	31	7																		84323	0	JUL	JUN	MAY	APR	MAR	FEB	JAN	DEC	NOV	OCT	SEP	AUG		7	6	5	4	3	2	1	12	11	10	9	8	0	20	21	7	3	3	3	2	3	3	7	22	24	0	33	63	3	3	3	2	0	1	0	0	0	0	
112700	047	AMERICAN HOMES 4 RENT		 AMERICAN HOMES 4 RENT		PO BOX 4698				LOGAN UT 84323-4698	UT	84323-4698	98	2285 E BUCKSKIN WAY/ CDC A1 22	Water			Sewer	Penalty			Garbage Service	Garbage Fuel Charge		Storm Drain	Deployed Abatement	Deposit	Miscellaneous							48.18			45.75				15.75			8.25									0	114.69	114.69CR			117.93	117.93	08/08/2022	08/31/2022	07/01/2022	07/31/2022	17						00022						86960821						1						07/20/2022						694						06/20/2022						715						21						GAL							Past Due balances must be paid by 08/15/2022  in order to avoid a $50 fee and disconnection of water service.	If you would like to enroll in paperless billing or pay your bills online please visit www.eaglemountaincity.com	112700	01/06/2020		Single Graph				GAL To	31	7																		84323	0	JUL	JUN	MAY	APR	MAR	FEB	JAN	DEC	NOV	OCT	SEP	AUG		7	6	5	4	3	2	1	12	11	10	9	8	0	21	18	4	5	4	4	5	5	5	7	47	14	0	51	63	16	10	5	11	6	0	6	21	37	44	
112700	169	AMERICAN HOMES 4 RENT		 AMERICAN HOMES 4 RENT		PO BOX 4698				LOGAN UT 84323-4698	UT	84323-4698	98	2075 E FICUS WAY/ LT 227	Water			Sewer	Penalty			Garbage Service	Garbage Fuel Charge		Storm Drain	Deployed Abatement	Deposit	Miscellaneous							43.06			45.75				9.50			8.25									0	99.09	99.09CR			106.56	106.56	08/08/2022	08/31/2022	07/01/2022	07/31/2022	12						00227						34476856						2						07/18/2022						1797						06/16/2022						1813						16						Kilowatt							Past Due balances must be paid by 08/15/2022  in order to avoid a $50 fee and disconnection of water service.	If you would like to enroll in paperless billing or pay your bills online please visit www.eaglemountaincity.com	112700	09/24/2021		Single Graph				GAL To	31	7																		84323	0	JUL	JUN	MAY	APR	MAR	FEB	JAN	DEC	NOV	OCT	SEP	AUG		7	6	5	4	3	2	1	12	11	10	9	8	0	16	9	3	1	0	0	0	0	0	0	0	0	0	0	0	0	0	0	0	0	0	0	0	0	0	
112700	037	AMERICAN HOMES 4 RENT		 AMERICAN HOMES 4 RENT		PO BOX 4698				LOGAN UT 84323-4698	UT	84323-4698	98	2455 E TUMBLEWEED RD/ CDC A2 212	Water			Sewer	Penalty			Garbage Service	Garbage Fuel Charge		Storm Drain	Deployed Abatement	Deposit	Miscellaneous							52.50			45.75				14.50			8.25									0	111.28	111.28CR			121.00	121.00	08/08/2022	08/31/2022	07/01/2022	07/31/2022	17						00212						87663994						1						07/20/2022						304						06/20/2022						329						25						GAL							Past Due balances must be paid by 08/15/2022  in order to avoid a $50 fee and disconnection of water service.	If you would like to enroll in paperless billing or pay your bills online please visit www.eaglemountaincity.com	112700	12/05/2019		Single Graph				GAL To	31	7																		84323	0	JUL	JUN	MAY	APR	MAR	FEB	JAN	DEC	NOV	OCT	SEP	AUG		7	6	5	4	3	2	1	12	11	10	9	8	0	25	16	6	7	5	4	7	4	4	11	24	10	0	22	13	2	5	1	1	3	5	5	19	29	22	
112700	060	AMERICAN HOMES 4 RENT		 AMERICAN HOMES 4 RENT		PO BOX 4698				LOGAN UT 84323-4698	UT	84323-4698	98	2336 E TUMBLEWEED RD/ CDC A2 226	Water			Sewer	Penalty			Garbage Service	Garbage Fuel Charge		Storm Drain	Deployed Abatement	Deposit	Miscellaneous							56.82			45.75				14.50			8.25									0	111.28	111.28CR			125.32	125.32	08/08/2022	08/31/2022	07/01/2022	07/31/2022	17						00226						87151519						1						07/20/2022						737						06/17/2022						766						29						GAL							Past Due balances must be paid by 08/15/2022  in order to avoid a $50 fee and disconnection of water service.	If you would like to enroll in paperless billing or pay your bills online please visit www.eaglemountaincity.com	112700	01/24/2020		Single Graph				GAL To	31	7																		84323	0	JUL	JUN	MAY	APR	MAR	FEB	JAN	DEC	NOV	OCT	SEP	AUG		7	6	5	4	3	2	1	12	11	10	9	8	0	29	16	92	90	45	39	42	26	21	15	26	27	0	31	39	14	10	5	7	14	2	7	15	26	46	
112700	074	AMERICAN HOMES 4 RENT		 AMERICAN HOMES 4 RENT		PO BOX 4698				LOGAN UT 84323-4698	UT	84323-4698	98	2444 E WILD HORSE WAY/ CDC A3 318	Water			Sewer	Penalty			Garbage Service	Garbage Fuel Charge		Storm Drain	Deployed Abatement	Deposit	Miscellaneous							55.74			45.75				20.75			8.25									0	107.81	107.81CR			130.49	130.49	08/08/2022	08/31/2022	07/01/2022	07/31/2022	17						00318						87991046						1						07/20/2022						369						06/20/2022						397						28						GAL							Past Due balances must be paid by 08/15/2022  in order to avoid a $50 fee and disconnection of water service.	If you would like to enroll in paperless billing or pay your bills online please visit www.eaglemountaincity.com	112700	02/25/2020		Single Graph				GAL To	31	7																		84323	0	JUL	JUN	MAY	APR	MAR	FEB	JAN	DEC	NOV	OCT	SEP	AUG		7	6	5	4	3	2	1	12	11	10	9	8	0	28	7	6	7	5	6	9	5	8	17	36	31	0	33	24	13	6	1	1	1	1	3	37	40	68	
112700	107	AMERICAN HOMES 4 RENT		 AMERICAN HOMES 4 RENT		PO BOX 4698				LOGAN UT 84323-4698	UT	84323-4698	98	2337 E SURRY WAY/ CDC A4 405	Water			Sewer	Penalty			Garbage Service	Garbage Fuel Charge		Storm Drain	Deployed Abatement	Deposit	Miscellaneous							49.26			45.75				20.75			8.25									0	119.69	119.69CR			124.01	124.01	08/08/2022	08/31/2022	07/01/2022	07/31/2022	17						00405						88920400						1						07/20/2022						243						06/16/2022						265						22						GAL							Past Due balances must be paid by 08/15/2022  in order to avoid a $50 fee and disconnection of water service.	If you would like to enroll in paperless billing or pay your bills online please visit www.eaglemountaincity.com	112700	08/18/2020		Single Graph				GAL To	31	7																		84323	0	JUL	JUN	MAY	APR	MAR	FEB	JAN	DEC	NOV	OCT	SEP	AUG		7	6	5	4	3	2	1	12	11	10	9	8	0	22	18	11	5	4	3	2	1	2	12	10	17	0	23	17	20	11	4	4	5	1	3	33	37	0	
112700	051	AMERICAN HOMES 4 RENT		 AMERICAN HOMES 4 RENT		PO BOX 4698				LOGAN UT 84323-4698	UT	84323-4698	98	2378 E TUMBLEWEED RD/ CDC A2 222	Water			Sewer	Penalty			Garbage Service	Garbage Fuel Charge		Storm Drain	Deployed Abatement	Deposit	Miscellaneous							50.34			45.75				14.50			8.25									0	114.52	114.52CR			118.84	118.84	08/08/2022	08/31/2022	07/01/2022	07/31/2022	17						00222						86622303						1						07/20/2022						270						06/20/2022						293						23						GAL							Past Due balances must be paid by 08/15/2022  in order to avoid a $50 fee and disconnection of water service.	If you would like to enroll in paperless billing or pay your bills online please visit www.eaglemountaincity.com	112700	01/08/2020		Single Graph				GAL To	31	7																		84323	0	JUL	JUN	MAY	APR	MAR	FEB	JAN	DEC	NOV	OCT	SEP	AUG		7	6	5	4	3	2	1	12	11	10	9	8	0	23	19	8	4	1	1	2	2	3	12	28	23	0	26	16	7	5	2	1	3	2	2	8	25	20	
112700	058	AMERICAN HOMES 4 RENT		 AMERICAN HOMES 4 RENT		PO BOX 4698				LOGAN UT 84323-4698	UT	84323-4698	98	2412 E TUMBLEWEED RD/ CDC A2 219	Water			Sewer	Penalty			Garbage Service	Garbage Fuel Charge		Storm Drain	Deployed Abatement	Deposit	Miscellaneous							47.10			45.75				14.50			8.25									0	109.12	109.12CR			115.60	115.60	08/08/2022	08/31/2022	07/01/2022	07/31/2022	17						00219						87503952						1						07/20/2022						508						06/20/2022						528						20						GAL							Past Due balances must be paid by 08/15/2022  in order to avoid a $50 fee and disconnection of water service.	If you would like to enroll in paperless billing or pay your bills online please visit www.eaglemountaincity.com	112700	01/28/2020		Single Graph				GAL To	31	7																		84323	0	JUL	JUN	MAY	APR	MAR	FEB	JAN	DEC	NOV	OCT	SEP	AUG		7	6	5	4	3	2	1	12	11	10	9	8	0	20	14	6	4	2	3	3	3	2	9	8	33	0	35	11	91	106	2	3	4	2	3	7	34	52	
112700	173	AMERICAN HOMES 4 RENT		 AMERICAN HOMES 4 RENT		PO BOX 4698				LOGAN UT 84323-4698	UT	84323-4698	98	2426 E SURRY WAY/ CDC A4 416	Water			Sewer	Penalty			Garbage Service	Garbage Fuel Charge		Storm Drain	Deployed Abatement	Deposit	Miscellaneous							65.46			45.75				20.75			8.25									0	100.67	100.67CR			140.21	140.21	08/08/2022	08/31/2022	07/01/2022	07/31/2022	17						00416						90852774						1						07/15/2022						8						06/16/2022						45						37						GAL							Past Due balances must be paid by 08/15/2022  in order to avoid a $50 fee and disconnection of water service.	If you would like to enroll in paperless billing or pay your bills online please visit www.eaglemountaincity.com	112700	10/07/2021		Single Graph				GAL To	31	7																		84323	0	JUL	JUN	MAY	APR	MAR	FEB	JAN	DEC	NOV	OCT	SEP	AUG		7	6	5	4	3	2	1	12	11	10	9	8	0	37	3	3	2	0	0	0	0	0	0	0	0	0	0	0	0	0	0	0	0	0	0	0	0	0	
112700	110	AMERICAN HOMES 4 RENT		 AMERICAN HOMES 4 RENT		PO BOX 4698				LOGAN UT 84323-4698	UT	84323-4698	98	2367 E SURRY WAY/ CDC A4 408	Water			Sewer	Penalty			Garbage Service	Garbage Fuel Charge		Storm Drain	Deployed Abatement	Deposit	Miscellaneous							50.34			45.75				14.50			8.25									0	113.44	113.44CR			118.84	118.84	08/08/2022	08/31/2022	07/01/2022	07/31/2022	17						00408						88844515						1						07/15/2022						306						06/16/2022						329						23						GAL							Past Due balances must be paid by 08/15/2022  in order to avoid a $50 fee and disconnection of water service.	If you would like to enroll in paperless billing or pay your bills online please visit www.eaglemountaincity.com	112700	09/02/2020		Single Graph				GAL To	31	7																		84323	0	JUL	JUN	MAY	APR	MAR	FEB	JAN	DEC	NOV	OCT	SEP	AUG		7	6	5	4	3	2	1	12	11	10	9	8	0	23	18	8	4	3	4	4	4	4	13	34	63	0	45	15	21	9	3	4	5	3	7	35	0	0	
112700	048	AMERICAN HOMES 4 RENT		 AMERICAN HOMES 4 RENT		PO BOX 4698				LOGAN UT 84323-4698	UT	84323-4698	98	2425 E TUMBLEWEED RD/ CDC A2 209	Water			Sewer	Penalty			Garbage Service	Garbage Fuel Charge		Storm Drain	Deployed Abatement	Deposit	Miscellaneous							41.70			45.75				15.75			8.25									0	116.85	116.85CR			111.45	111.45	08/08/2022	08/31/2022	07/01/2022	07/31/2022	17						00209						87503920						1						07/20/2022						286						06/20/2022						301						15						GAL							Past Due balances must be paid by 08/15/2022  in order to avoid a $50 fee and disconnection of water service.	If you would like to enroll in paperless billing or pay your bills online please visit www.eaglemountaincity.com	112700	01/03/2020		Single Graph				GAL To	31	7																		84323	0	JUL	JUN	MAY	APR	MAR	FEB	JAN	DEC	NOV	OCT	SEP	AUG		7	6	5	4	3	2	1	12	11	10	9	8	0	15	20	9	5	5	4	6	4	5	4	6	14	0	21	11	13	10	5	4	1	4	2	9	29	13	
112700	139	AMERICAN HOMES 4 RENT		 AMERICAN HOMES 4 RENT		PO BOX 4698				LOGAN UT 84323-4698	UT	84323-4698	98	2382 E BUCKSKIN WAY/ CDC A4 445	Water			Sewer	Penalty			Garbage Service	Garbage Fuel Charge		Storm Drain	Deployed Abatement	Deposit	Miscellaneous							55.74			45.75				9.50			8.25									0	106.28	106.28CR			119.24	119.24	08/08/2022	08/31/2022	07/01/2022	07/31/2022	17						00445						88979434						1						07/20/2022						197						06/16/2022						225						28						GAL							Past Due balances must be paid by 08/15/2022  in order to avoid a $50 fee and disconnection of water service.	If you would like to enroll in paperless billing or pay your bills online please visit www.eaglemountaincity.com	112700	11/13/2020		Single Graph				GAL To	31	7																		84323	0	JUL	JUN	MAY	APR	MAR	FEB	JAN	DEC	NOV	OCT	SEP	AUG		7	6	5	4	3	2	1	12	11	10	9	8	0	28	16	7	4	1	2	3	2	2	7	20	21	0	29	74	3	3	0	1	1	1	0	0	0	0	
121057	006	AMERICAN HOMES 4 RENT		 AMERICAN HOMES 4 RENT		PO BOX 4698				LOGAN UT 84323-4698	UT	84323-4698	98	4370 N POPLAR ST/ CDC A4 484	Water			Sewer	Penalty			Garbage Service	Garbage Fuel Charge		Storm Drain	Deployed Abatement	Deposit	Miscellaneous							25.50			45.75				9.50			8.25									0	105.20	105.20CR			89.00	89.00	08/08/2022	08/31/2022	07/01/2022	07/31/2022																			0												0												0						0													Past Due balances must be paid by 08/15/2022  in order to avoid a $50 fee and disconnection of water service.	If you would like to enroll in paperless billing or pay your bills online please visit www.eaglemountaincity.com	121057	05/02/2022		Single Graph				GAL To	31	7																		84323	0	JUL	JUN	MAY	APR	MAR	FEB	JAN	DEC	NOV	OCT	SEP	AUG		7	6	5	4	3	2	1	12	11	10	9	8	0	0	15	0	0	0	0	0	0	0	0	0	0	0	0	0	0	0	0	0	0	0	0	0	0	0	
112700	035	AMERICAN HOMES 4 RENT		 AMERICAN HOMES 4 RENT		PO BOX 4698				LOGAN UT 84323-4698	UT	84323-4698	98	2367 E TUMBLEWEED RD/ CDC A2 204	Water			Sewer	Penalty			Garbage Service	Garbage Fuel Charge		Storm Drain	Deployed Abatement	Deposit	Miscellaneous							97.98			45.75				14.50			8.25									0	181.30	181.30CR			166.48	166.48	08/08/2022	08/31/2022	07/01/2022	07/31/2022	21						00204						85944411						1						07/20/2022						709						06/16/2022						776						67						GAL							Past Due balances must be paid by 08/15/2022  in order to avoid a $50 fee and disconnection of water service.	If you would like to enroll in paperless billing or pay your bills online please visit www.eaglemountaincity.com	112700	12/13/2019		Single Graph				GAL To	31	7																		84323	0	JUL	JUN	MAY	APR	MAR	FEB	JAN	DEC	NOV	OCT	SEP	AUG		7	6	5	4	3	2	1	12	11	10	9	8	0	67	80	56	54	27	25	25	18	18	20	28	24	0	27	24	24	11	5	5	5	3	7	33	39	42	
112700	105	AMERICAN HOMES 4 RENT		 AMERICAN HOMES 4 RENT		PO BOX 4698				LOGAN UT 84323-4698	UT	84323-4698	98	2347 E SURRY WAY/ CDC A4 406	Water			Sewer	Penalty			Garbage Service	Garbage Fuel Charge		Storm Drain	Deployed Abatement	Deposit	Miscellaneous							40.62			45.75				9.50			8.25									0	108.44	108.44CR			104.12	104.12	08/08/2022	08/31/2022	07/01/2022	07/31/2022	17						00406						88920414						1						07/15/2022						232						06/16/2022						246						14						GAL							Past Due balances must be paid by 08/15/2022  in order to avoid a $50 fee and disconnection of water service.	If you would like to enroll in paperless billing or pay your bills online please visit www.eaglemountaincity.com	112700	08/11/2020		Single Graph				GAL To	31	7																		84323	0	JUL	JUN	MAY	APR	MAR	FEB	JAN	DEC	NOV	OCT	SEP	AUG		7	6	5	4	3	2	1	12	11	10	9	8	0	14	18	6	5	4	3	6	3	2	5	18	45	0	9	14	14	7	1	1	3	2	2	11	53	0	
112700	036	AMERICAN HOMES 4 RENT		 AMERICAN HOMES 4 RENT		PO BOX 4698				LOGAN UT 84323-4698	UT	84323-4698	98	2389 E TUMBLEWEED RD/ CDC A2 206	Water			Sewer	Penalty			Garbage Service	Garbage Fuel Charge		Storm Drain	Deployed Abatement	Deposit	Miscellaneous							76.26			45.75				14.50			8.25									0	118.84	118.84CR			144.76	144.76	08/08/2022	08/31/2022	07/01/2022	07/31/2022	17						00206						87151696						1						07/20/2022						337						06/16/2022						384						47						GAL							Past Due balances must be paid by 08/15/2022  in order to avoid a $50 fee and disconnection of water service.	If you would like to enroll in paperless billing or pay your bills online please visit www.eaglemountaincity.com	112700	10/29/2019		Single Graph				GAL To	31	7																		84323	0	JUL	JUN	MAY	APR	MAR	FEB	JAN	DEC	NOV	OCT	SEP	AUG		7	6	5	4	3	2	1	12	11	10	9	8	0	47	23	8	4	4	4	6	4	3	11	23	20	0	23	18	15	10	4	4	8	3	10	17	17	29	
112700	116	AMERICAN HOMES 4 RENT		 AMERICAN HOMES 4 RENT		PO BOX 4698				LOGAN UT 84323-4698	UT	84323-4698	98	2364 E SURRY WAY/ CDC A4 421	Water			Sewer	Penalty			Garbage Service	Garbage Fuel Charge		Storm Drain	Deployed Abatement	Deposit	Miscellaneous							50.34			45.75				14.50			8.25									0	112.36	112.36CR			118.84	118.84	08/08/2022	08/31/2022	07/01/2022	07/31/2022	17						00421						88867467						1						07/18/2022						131						06/16/2022						154						23						GAL							Past Due balances must be paid by 08/15/2022  in order to avoid a $50 fee and disconnection of water service.	If you would like to enroll in paperless billing or pay your bills online please visit www.eaglemountaincity.com	112700	09/18/2020		Single Graph				GAL To	31	7																		84323	0	JUL	JUN	MAY	APR	MAR	FEB	JAN	DEC	NOV	OCT	SEP	AUG		7	6	5	4	3	2	1	12	11	10	9	8	0	23	17	7	2	2	1	2	2	2	2	2	13	0	10	16	15	7	2	2	3	4	10	10	0	0	
121057	008	AMERICAN HOMES 4 RENT		 AMERICAN HOMES 4 RENT		PO BOX 4698				LOGAN UT 84323-4698	UT	84323-4698	98	4390 N POPLAR DR/ CDC A4 486	Water			Sewer	Penalty			Garbage Service	Garbage Fuel Charge		Storm Drain	Deployed Abatement	Deposit	Miscellaneous							25.50			45.75				9.50			8.25									0	109.68	0.00CR			89.00	198.68	08/08/2022	08/31/2022	07/01/2022	07/31/2022																			0												0												0						0													Past Due balances must be paid by 08/15/2022  in order to avoid a $50 fee and disconnection of water service.	If you would like to enroll in paperless billing or pay your bills online please visit www.eaglemountaincity.com	121057	06/01/2022	109.68	Single Graph				GAL To	31	7																		84323	0	JUL	JUN	MAY	APR	MAR	FEB	JAN	DEC	NOV	OCT	SEP	AUG		7	6	5	4	3	2	1	12	11	10	9	8	0	0	20	0	0	0	0	0	0	0	0	0	0	0	0	0	0	0	0	0	0	0	0	0	0	0	
112700	113	AMERICAN HOMES 4 RENT		 AMERICAN HOMES 4 RENT		PO BOX 4698				LOGAN UT 84323-4698	UT	84323-4698	98	2336 E SURRY WAY/ CDC A4 424	Water			Sewer	Penalty			Garbage Service	Garbage Fuel Charge		Storm Drain	Deployed Abatement	Deposit	Miscellaneous							37.38			45.75				14.50			8.25									0	114.52	114.52CR			105.88	105.88	08/08/2022	08/31/2022	07/01/2022	07/31/2022	17						00424						88867498						1						07/20/2022						304						06/20/2022						315						11						GAL							Past Due balances must be paid by 08/15/2022  in order to avoid a $50 fee and disconnection of water service.	If you would like to enroll in paperless billing or pay your bills online please visit www.eaglemountaincity.com	112700	09/25/2020		Single Graph				GAL To	31	7																		84323	0	JUL	JUN	MAY	APR	MAR	FEB	JAN	DEC	NOV	OCT	SEP	AUG		7	6	5	4	3	2	1	12	11	10	9	8	0	11	19	10	5	4	4	5	49	48	22	7	6	0	21	21	22	12	5	5	8	5	9	17	0	0	
121057	003	AMERICAN HOMES 4 RENT		 AMERICAN HOMES 4 RENT		PO BOX 4698				LOGAN UT 84323-4698	UT	84323-4698	98	4348 N POPLAR ST/ CDC A4 482	Water			Sewer	Penalty			Garbage Service	Garbage Fuel Charge		Storm Drain	Deployed Abatement	Deposit	Miscellaneous							29.82			45.75				9.50			8.25									0	91.16	91.16CR			93.32	93.32	08/08/2022	08/31/2022	07/01/2022	07/31/2022	81						00482						92075692						1						07/20/2022						2						06/15/2022						6						4						GAL							Past Due balances must be paid by 08/15/2022  in order to avoid a $50 fee and disconnection of water service.	If you would like to enroll in paperless billing or pay your bills online please visit www.eaglemountaincity.com	121057	05/02/2022		Single Graph				GAL To	31	7																		84323	0	JUL	JUN	MAY	APR	MAR	FEB	JAN	DEC	NOV	OCT	SEP	AUG		7	6	5	4	3	2	1	12	11	10	9	8	0	4	2	0	0	0	0	0	0	0	0	0	0	0	0	0	0	0	0	0	0	0	0	0	0	0	
121057	004	AMERICAN HOMES 4 RENT		 AMERICAN HOMES 4 RENT		PO BOX 4698				LOGAN UT 84323-4698	UT	84323-4698	98	4338 N POPLAR ST/ CDC A4 481	Water			Sewer	Penalty			Garbage Service	Garbage Fuel Charge		Storm Drain	Deployed Abatement	Deposit	Miscellaneous							25.50			45.75				20.75			8.25									0	108.83	108.83CR			100.25	100.25	08/08/2022	08/31/2022	07/01/2022	07/31/2022																			0												0												0						0													Past Due balances must be paid by 08/15/2022  in order to avoid a $50 fee and disconnection of water service.	If you would like to enroll in paperless billing or pay your bills online please visit www.eaglemountaincity.com	121057	05/02/2022		Single Graph				GAL To	31	7																		84323	0	JUL	JUN	MAY	APR	MAR	FEB	JAN	DEC	NOV	OCT	SEP	AUG		7	6	5	4	3	2	1	12	11	10	9	8	0	0	15	0	0	0	0	0	0	0	0	0	0	0	0	0	0	0	0	0	0	0	0	0	0	0	
112700	030	AMERICAN HOMES 4 RENT		 AMERICAN HOMES 4 RENT		PO BOX 4698				LOGAN UT 84323-4698	UT	84323-4698	98	2445 E TUMBLEWEED RD/ CDC A2 211	Water			Sewer	Penalty			Garbage Service	Garbage Fuel Charge		Storm Drain	Deployed Abatement	Deposit	Miscellaneous							42.78			45.75				14.50			8.25									0	137.20	137.20CR			111.28	111.28	08/08/2022	08/31/2022	07/01/2022	07/31/2022	17						00211						87503921						1						07/20/2022						276						06/20/2022						292						16						GAL							Past Due balances must be paid by 08/15/2022  in order to avoid a $50 fee and disconnection of water service.	If you would like to enroll in paperless billing or pay your bills online please visit www.eaglemountaincity.com	112700	11/08/2019		Single Graph				GAL To	31	7																		84323	0	JUL	JUN	MAY	APR	MAR	FEB	JAN	DEC	NOV	OCT	SEP	AUG		7	6	5	4	3	2	1	12	11	10	9	8	0	16	40	6	5	3	4	6	3	3	1	2	10	0	4	3	17	3	2	3	3	3	4	18	19	27	
121057	005	AMERICAN HOMES 4 RENT		 AMERICAN HOMES 4 RENT		PO BOX 4698				LOGAN UT 84323-4698	UT	84323-4698	98	4360 N POPLAR ST/ CDC A4 483	Water			Sewer	Penalty			Garbage Service	Garbage Fuel Charge		Storm Drain	Deployed Abatement	Deposit	Miscellaneous							25.50			45.75				9.50			8.25									0	105.20	105.20CR			89.00	89.00	08/08/2022	08/31/2022	07/01/2022	07/31/2022																			0												0												0						0													Past Due balances must be paid by 08/15/2022  in order to avoid a $50 fee and disconnection of water service.	If you would like to enroll in paperless billing or pay your bills online please visit www.eaglemountaincity.com	121057	05/02/2022		Single Graph				GAL To	31	7																		84323	0	JUL	JUN	MAY	APR	MAR	FEB	JAN	DEC	NOV	OCT	SEP	AUG		7	6	5	4	3	2	1	12	11	10	9	8	0	0	15	0	0	0	0	0	0	0	0	0	0	0	0	0	0	0	0	0	0	0	0	0	0	0	
121057	002	AMERICAN HOMES 4 RENT		 AMERICAN HOMES 4 RENT		PO BOX 4698				LOGAN UT 84323-4698	UT	84323-4698	98	2388 E FRONTIER ST/ CDC A4 470	Water			Sewer	Penalty			Garbage Service	Garbage Fuel Charge		Storm Drain	Deployed Abatement	Deposit	Miscellaneous							25.50			45.75				14.50			8.25									0	91.74	91.74CR			94.00	94.00	08/08/2022	08/31/2022	07/01/2022	07/31/2022																			0												0												0						0													Past Due balances must be paid by 08/15/2022  in order to avoid a $50 fee and disconnection of water service.	If you would like to enroll in paperless billing or pay your bills online please visit www.eaglemountaincity.com	121057	04/29/2022		Single Graph					31	7																		84323	0														0	0	0	0	0	0	0	0	0	0	0	0	0	0	0	0	0	0	0	0	0	0	0	0	0	0	0	0	0	0	0	0	0	0	0	0	0	0	
112700	066	AMERICAN HOMES 4 RENT		 AMERICAN HOMES 4 RENT		PO BOX 4698				LOGAN UT 84323-4698	UT	84323-4698	98	2321 E TUMBLEWEED RD/ CDC A2 201	Water			Sewer	Penalty			Garbage Service	Garbage Fuel Charge		Storm Drain	Deployed Abatement	Deposit	Miscellaneous							49.26			45.75				25.75			8.25									0	126.85	126.85CR			129.01	129.01	08/08/2022	08/31/2022	07/01/2022	07/31/2022	17						00201						87534229						1						07/20/2022						475						06/20/2022						497						22						GAL							Past Due balances must be paid by 08/15/2022  in order to avoid a $50 fee and disconnection of water service.	If you would like to enroll in paperless billing or pay your bills online please visit www.eaglemountaincity.com	112700	02/14/2020		Single Graph				GAL To	31	7																		84323	0	JUL	JUN	MAY	APR	MAR	FEB	JAN	DEC	NOV	OCT	SEP	AUG		7	6	5	4	3	2	1	12	11	10	9	8	0	22	20	11	5	4	3	5	4	4	9	31	28	0	36	24	16	13	6	14	1	8	6	33	50	60	
112700	086	AMERICAN HOMES 4 RENT		 AMERICAN HOMES 4 RENT		PO BOX 4698				LOGAN UT 84323-4698	UT	84323-4698	98	2401 E WILD HORSE WAY/ CDC A3 310	Water			Sewer	Penalty			Garbage Service	Garbage Fuel Charge		Storm Drain	Deployed Abatement	Deposit	Miscellaneous							25.50			45.75				14.50			8.25									0	152.32	152.32CR			94.00	94.00	08/08/2022	08/31/2022	07/01/2022	07/31/2022																			0												0												0						0													Past Due balances must be paid by 08/15/2022  in order to avoid a $50 fee and disconnection of water service.	If you would like to enroll in paperless billing or pay your bills online please visit www.eaglemountaincity.com	112700	03/17/2020		Single Graph				GAL To	31	7																		84323	0	JUL	JUN	MAY	APR	MAR	FEB	JAN	DEC	NOV	OCT	SEP	AUG		7	6	5	4	3	2	1	12	11	10	9	8	0	0	54	0	7	0	6	3	3	3	10	34	65	0	15	15	6	13	2	6	3	3	5	16	23	37	
112700	177	AMERICAN HOMES 4 RENT		 AMERICAN HOMES 4 RENT		PO BOX 4698				LOGAN UT 84323-4698	UT	84323-4698	98	2437 E BUCKSKIN WAY/ CDC A4 440	Water			Sewer	Penalty			Garbage Service	Garbage Fuel Charge		Storm Drain	Deployed Abatement	Deposit	Miscellaneous							93.54			45.75				14.50			8.25									0	96.16	96.16CR			162.04	162.04	08/08/2022	08/31/2022	07/01/2022	07/31/2022	17						00440						90852757						1						07/15/2022						2						06/16/2022						65						63						GAL							Past Due balances must be paid by 08/15/2022  in order to avoid a $50 fee and disconnection of water service.	If you would like to enroll in paperless billing or pay your bills online please visit www.eaglemountaincity.com	112700	10/26/2021		Single Graph				GAL To	31	7																		84323	0	JUL	JUN	MAY	APR	MAR	FEB	JAN	DEC	NOV	OCT	SEP	AUG		7	6	5	4	3	2	1	12	11	10	9	8	0	63	2	0	0	0	0	0	0	0	0	0	0	0	0	0	0	0	0	0	0	0	0	0	0	0	
112700	012	AMERICAN HOMES 4 RENT		 AMERICAN HOMES 4 RENT		PO BOX 4698				LOGAN UT 84323-4698	UT	84323-4698	98	4323 N MORGAN WAY/ CDC A1 18	Water			Sewer	Penalty			Garbage Service	Garbage Fuel Charge		Storm Drain	Deployed Abatement	Deposit	Miscellaneous							48.18			45.75				22.00			8.25									0	117.70	117.70CR			124.18	124.18	08/08/2022	08/31/2022	07/01/2022	07/31/2022	17						00018						87151604						1						07/20/2022						549						06/16/2022						570						21						GAL							Past Due balances must be paid by 08/15/2022  in order to avoid a $50 fee and disconnection of water service.	If you would like to enroll in paperless billing or pay your bills online please visit www.eaglemountaincity.com	112700	08/27/2019		Single Graph				GAL To	31	7																		84323	0	JUL	JUN	MAY	APR	MAR	FEB	JAN	DEC	NOV	OCT	SEP	AUG		7	6	5	4	3	2	1	12	11	10	9	8	0	21	15	20	4	3	3	4	4	4	11	23	20	0	24	24	29	12	3	3	4	5	5	16	38	55	
112700	093	AMERICAN HOMES 4 RENT		 AMERICAN HOMES 4 RENT		PO BOX 4698				LOGAN UT 84323-4698	UT	84323-4698	98	2433 E WILD HORSE WAY/ CDC A3 313	Water			Sewer	Penalty			Garbage Service	Garbage Fuel Charge		Storm Drain	Deployed Abatement	Deposit	Miscellaneous							25.50			45.75				14.50			8.25									0	126.40	126.40CR			94.00	94.00	08/08/2022	08/31/2022	07/01/2022	07/31/2022																			0												0												0						0													Past Due balances must be paid by 08/15/2022  in order to avoid a $50 fee and disconnection of water service.	If you would like to enroll in paperless billing or pay your bills online please visit www.eaglemountaincity.com	112700	04/07/2020		Single Graph				GAL To	31	7																		84323	0	JUL	JUN	MAY	APR	MAR	FEB	JAN	DEC	NOV	OCT	SEP	AUG		7	6	5	4	3	2	1	12	11	10	9	8	0	0	30	0	5	0	2	5	3	1	6	17	27	0	33	30	11	0	3	5	5	5	4	13	22	43	
112700	118	AMERICAN HOMES 4 RENT		 AMERICAN HOMES 4 RENT		PO BOX 4698				LOGAN UT 84323-4698	UT	84323-4698	98	2374 E SURRY WAY/ CDC A4 420	Water			Sewer	Penalty			Garbage Service	Garbage Fuel Charge		Storm Drain	Deployed Abatement	Deposit	Miscellaneous							188.40			45.75				14.50			8.25									0	217.78	217.78CR			256.90	256.90	08/08/2022	08/31/2022	07/01/2022	07/31/2022	17						00420						88867525						1						07/20/2022						488						06/16/2022						633						145						GAL							Past Due balances must be paid by 08/15/2022  in order to avoid a $50 fee and disconnection of water service.	If you would like to enroll in paperless billing or pay your bills online please visit www.eaglemountaincity.com	112700	09/24/2020		Single Graph				GAL To	31	7																		84323	0	JUL	JUN	MAY	APR	MAR	FEB	JAN	DEC	NOV	OCT	SEP	AUG		7	6	5	4	3	2	1	12	11	10	9	8	0	145	112	79	6	2	2	3	3	4	35	77	44	0	35	28	19	4	3	4	5	3	11	9	0	0	
115978	011	AMH 2014-3		 AMH 2014-3		PO BOX 4698				LOGAN UT 84323-4698	UT	84323-4698	98	4028 E DILLONS DR/ TC 150	Water			Sewer	Penalty			Garbage Service	Garbage Fuel Charge		Storm Drain	Deployed Abatement	Deposit	Miscellaneous							25.50			45.75				20.75			8.25									0	124.01	124.01CR			100.25	100.25	08/08/2022	08/31/2022	07/01/2022	07/31/2022																			0												0												0						0													Past Due balances must be paid by 08/15/2022  in order to avoid a $50 fee and disconnection of water service.	If you would like to enroll in paperless billing or pay your bills online please visit www.eaglemountaincity.com	115978	11/17/2017		Single Graph				GAL To	31	7																		84323	0	JUL	JUN	MAY	APR	MAR	FEB	JAN	DEC	NOV	OCT	SEP	AUG		7	6	5	4	3	2	1	12	11	10	9	8	0	0	22	0	22	0	24	0	10	8	19	16	11	0	11	9	9	7	8	5	0	1	13	4	10	10	
115978	001	AMH 2014-3		 AMH 2014-3		PO BOX 4698				LOGAN UT 84323-4698	UT	84323-4698	98	7772 N DECRESCENDO DR/ SLV 296	Water			Sewer	Penalty			Garbage Service	Garbage Fuel Charge		Storm Drain	Deployed Abatement	Deposit	Miscellaneous							25.50			45.75				15.75			8.25									0	119.01	119.01CR			95.25	95.25	08/08/2022	08/31/2022	07/01/2022	07/31/2022																			0												0												0						0													Past Due balances must be paid by 08/15/2022  in order to avoid a $50 fee and disconnection of water service.	If you would like to enroll in paperless billing or pay your bills online please visit www.eaglemountaincity.com	115978	10/09/2015		Single Graph				GAL To	31	7																		84323	0	JUL	JUN	MAY	APR	MAR	FEB	JAN	DEC	NOV	OCT	SEP	AUG		7	6	5	4	3	2	1	12	11	10	9	8	0	0	22	0	10	0	10	4	6	7	8	19	22	0	38	25	17	6	8	7	4	5	9	13	25	59	
115978	007	AMH 2014-3		 AMH 2014-3		PO BOX 4698				LOGAN UT 84323-4698	UT	84323-4698	98	3771 E ROYAL TROON DR/ EG 411	Water			Sewer	Penalty			Garbage Service	Garbage Fuel Charge		Storm Drain	Deployed Abatement	Deposit	Miscellaneous							38.46			45.75				14.50			8.25									0	105.88	105.88CR			106.96	106.96	08/08/2022	08/31/2022	07/01/2022	07/31/2022	48						00411						87741570						1						07/20/2022						1189						06/20/2022						1201						12						GAL							Past Due balances must be paid by 08/15/2022  in order to avoid a $50 fee and disconnection of water service.	If you would like to enroll in paperless billing or pay your bills online please visit www.eaglemountaincity.com	115978	09/13/2016		Single Graph				GAL To	31	7																		84323	0	JUL	JUN	MAY	APR	MAR	FEB	JAN	DEC	NOV	OCT	SEP	AUG		7	6	5	4	3	2	1	12	11	10	9	8	0	12	11	9	10	9	8	9	6	9	19	32	26	0	30	21	6	4	6	90	151	142	186	151	108	77	
115978	006	AMH 2014-3		 AMH 2014-3		PO BOX 4698				LOGAN UT 84323-4698	UT	84323-4698	98	3686 E BLACKHAWK RD/ RSV 103	Water			Sewer	Penalty			Garbage Service	Garbage Fuel Charge		Storm Drain	Deployed Abatement	Deposit	Miscellaneous							52.50			45.75				14.50			8.25									0	115.60	115.60CR			121.00	121.00	08/08/2022	08/31/2022	07/01/2022	07/31/2022	35						00103						89218326						1						07/20/2022						302						06/20/2022						327						25						GAL							Past Due balances must be paid by 08/15/2022  in order to avoid a $50 fee and disconnection of water service.	If you would like to enroll in paperless billing or pay your bills online please visit www.eaglemountaincity.com	115978	08/29/2016		Single Graph				GAL To	31	7																		84323	0	JUL	JUN	MAY	APR	MAR	FEB	JAN	DEC	NOV	OCT	SEP	AUG		7	6	5	4	3	2	1	12	11	10	9	8	0	25	20	32	13	9	11	11	12	12	27	35	30	0	54	36	7	7	5	24	5	10	11	46	46	34	
115978	005	AMH 2014-3		 AMH 2014-3		PO BOX 4698				LOGAN UT 84323-4698	UT	84323-4698	98	7857 N SMITH RANCH RD/ RSV 51	Water			Sewer	Penalty			Garbage Service	Garbage Fuel Charge		Storm Drain	Deployed Abatement	Deposit	Miscellaneous							50.93			45.75				20.75			8.25									0	130.01	130.01CR			125.68	125.68	08/08/2022	08/31/2022	07/01/2022	07/31/2022	35						00051						18425871						1						07/19/2022						3637						06/20/2022						3661						23						GAL							Past Due balances must be paid by 08/15/2022  in order to avoid a $50 fee and disconnection of water service.	If you would like to enroll in paperless billing or pay your bills online please visit www.eaglemountaincity.com	115978	06/28/2016		Single Graph				GAL To	31	7																		84323	0	JUL	JUN	MAY	APR	MAR	FEB	JAN	DEC	NOV	OCT	SEP	AUG		7	6	5	4	3	2	1	12	11	10	9	8	0	23	27	5	3	2	2	3	2	2	18	27	24	0	29	9	11	2	2	2	2	2	7	21	23	24	
115978	002	AMH 2014-3		 AMH 2014-3		PO BOX 4698				LOGAN UT 84323-4698	UT	84323-4698	98	7418 N UTE DR/ FMS 36	Water			Sewer	Penalty			Garbage Service	Garbage Fuel Charge		Storm Drain	Deployed Abatement	Deposit	Miscellaneous							58.08			45.75				14.50			8.25									0	115.30	115.30CR			126.58	126.58	08/08/2022	08/31/2022	07/01/2022	07/31/2022	49						00036						24620420						3						07/18/2022						3211						06/17/2022						3241						30						Decatherm							Past Due balances must be paid by 08/15/2022  in order to avoid a $50 fee and disconnection of water service.	If you would like to enroll in paperless billing or pay your bills online please visit www.eaglemountaincity.com	115978	02/26/2016		Single Graph				GAL To	31	7																		84323	0	JUL	JUN	MAY	APR	MAR	FEB	JAN	DEC	NOV	OCT	SEP	AUG		7	6	5	4	3	2	1	12	11	10	9	8	0	30	19	5	16	34	25	25	17	13	20	19	23	0	28	24	12	3	2	3	3	2	3	25	7	48	
115978	004	AMH 2014-3		 AMH 2014-3		PO BOX 4698				LOGAN UT 84323-4698	UT	84323-4698	98	3788 E ROSE HEARTY LN/ SHD 505	Water			Sewer	Penalty			Garbage Service	Garbage Fuel Charge		Storm Drain	Deployed Abatement	Deposit	Miscellaneous							35.95			45.75				14.50			8.25									0	151.39	151.39CR			104.45	104.45	08/08/2022	08/31/2022	07/01/2022	07/31/2022	52						00505						34477280						2						07/19/2022						2079						06/20/2022						2088						9						Kilowatt							Past Due balances must be paid by 08/15/2022  in order to avoid a $50 fee and disconnection of water service.	If you would like to enroll in paperless billing or pay your bills online please visit www.eaglemountaincity.com	115978	05/09/2016		Single Graph				GAL To	31	7																		84323	0	JUL	JUN	MAY	APR	MAR	FEB	JAN	DEC	NOV	OCT	SEP	AUG		7	6	5	4	3	2	1	12	11	10	9	8	0	9	6	4	10	5	4	5	3	3	4	18	10	0	13	9	9	5	4	5	4	3	4	49	15	83	
123824	012	AMH DEVELOPMENT LLC		 AMH DEVELOPMENT LLC		PO BOX 4698				LOGAN UT 84323-4698	UT	84323-4698	98	2359 E FRONTIER ST/ CDC A4 460	Water			Sewer	Penalty			Garbage Service	Garbage Fuel Charge		Storm Drain	Deployed Abatement	Deposit	Miscellaneous							25.50			45.75				9.50			8.25									0	89.00	89.00CR			89.00	89.00	08/08/2022	08/31/2022	07/01/2022	07/31/2022																			0												0												0						0													Past Due balances must be paid by 08/15/2022  in order to avoid a $50 fee and disconnection of water service.	If you would like to enroll in paperless billing or pay your bills online please visit www.eaglemountaincity.com	123824	01/10/2022		Single Graph					31	7																		84323	0														0	0	0	0	0	0	0	0	0	0	0	0	0	0	0	0	0	0	0	0	0	0	0	0	0	0	0	0	0	0	0	0	0	0	0	0	0	0	
123824	010	AMH DEVELOPMENT LLC		 AMH DEVELOPMENT LLC		PO BOX 4698				LOGAN UT 84323-4698	UT	84323-4698	98	2381 E FRONTIER ST/ CDC A4 462	Water			Sewer	Penalty			Garbage Service	Garbage Fuel Charge		Storm Drain	Deployed Abatement	Deposit	Miscellaneous							25.50			45.75				9.50			8.25									0	89.00	89.00CR			89.00	89.00	08/08/2022	08/31/2022	07/01/2022	07/31/2022																			0												0												0						0													Past Due balances must be paid by 08/15/2022  in order to avoid a $50 fee and disconnection of water service.	If you would like to enroll in paperless billing or pay your bills online please visit www.eaglemountaincity.com	123824	01/10/2022		Single Graph					31	7																		84323	0														0	0	0	0	0	0	0	0	0	0	0	0	0	0	0	0	0	0	0	0	0	0	0	0	0	0	0	0	0	0	0	0	0	0	0	0	0	0	
123824	003	AMH DEVELOPMENT LLC		 AMH DEVELOPMENT LLC		PO BOX 4698				LOGAN UT 84323-4698	UT	84323-4698	98	2348 E WILD HORSE WAY/ CDC A3 326	Water			Sewer	Penalty			Garbage Service	Garbage Fuel Charge		Storm Drain	Deployed Abatement	Deposit	Miscellaneous							82.74			45.75				14.50			8.25									0	146.92	146.92CR			151.24	151.24	08/08/2022	08/31/2022	07/01/2022	07/31/2022	17						00326						87534192						1						07/15/2022						478						06/20/2022						531						53						GAL							Past Due balances must be paid by 08/15/2022  in order to avoid a $50 fee and disconnection of water service.	If you would like to enroll in paperless billing or pay your bills online please visit www.eaglemountaincity.com	123824	02/13/2020		Single Graph				GAL To	31	7																		84323	0	JUL	JUN	MAY	APR	MAR	FEB	JAN	DEC	NOV	OCT	SEP	AUG		7	6	5	4	3	2	1	12	11	10	9	8	0	53	49	26	18	15	14	17	12	12	14	19	24	0	26	23	18	14	7	8	10	7	10	15	23	38	
123824	017	AMH DEVELOPMENT LLC		 AMH DEVELOPMENT LLC		PO BOX 4698				LOGAN UT 84323-4698	UT	84323-4698	98	4328 N POPLAR ST/ CDC A4 480	Water			Sewer	Penalty			Garbage Service	Garbage Fuel Charge		Storm Drain	Deployed Abatement	Deposit	Miscellaneous							28.74			45.75				13.86			8.25									0	90.08	90.08CR			96.60	96.60	08/08/2022	08/31/2022	07/01/2022	07/31/2022	81						00480						92075677						1						07/20/2022						1						06/22/2022						4						3						GAL							Past Due balances must be paid by 08/15/2022  in order to avoid a $50 fee and disconnection of water service.	If you would like to enroll in paperless billing or pay your bills online please visit www.eaglemountaincity.com	123824	05/02/2022		Single Graph				GAL To	31	7																		84323	0	JUL	JUN	MAY	APR	MAR	FEB	JAN	DEC	NOV	OCT	SEP	AUG		7	6	5	4	3	2	1	12	11	10	9	8	0	3	1	0	0	0	0	0	0	0	0	0	0	0	0	0	0	0	0	0	0	0	0	0	0	0	
123824	007	AMH DEVELOPMENT LLC		 AMH DEVELOPMENT LLC		PO BOX 4698				LOGAN UT 84323-4698	UT	84323-4698	98	2434 E BUCKSKIN WAY/ CDC A4 441	Water			Sewer	Penalty			Garbage Service	Garbage Fuel Charge		Storm Drain	Deployed Abatement	Deposit	Miscellaneous							78.42			45.75				9.50			8.25									0	93.32	93.32CR			141.92	141.92	08/08/2022	08/31/2022	07/01/2022	07/31/2022	17						00441						91727846						1						07/15/2022						15						06/20/2022						64						49						GAL							Past Due balances must be paid by 08/15/2022  in order to avoid a $50 fee and disconnection of water service.	If you would like to enroll in paperless billing or pay your bills online please visit www.eaglemountaincity.com	123824	01/07/2022		Single Graph				GAL To	31	7																		84323	0	JUL	JUN	MAY	APR	MAR	FEB	JAN	DEC	NOV	OCT	SEP	AUG		7	6	5	4	3	2	1	12	11	10	9	8	0	49	4	3	3	2	0	3	0	0	0	0	0	0	0	0	0	0	0	0	0	0	0	0	0	0	
123824	018	AMH DEVELOPMENT LLC		 AMH DEVELOPMENT LLC		PO BOX 4698				LOGAN UT 84323-4698	UT	84323-4698	98	4292 N POPLAR ST/ CDC A4 477	Water			Sewer	Penalty			Garbage Service	Garbage Fuel Charge		Storm Drain	Deployed Abatement	Deposit	Miscellaneous							3.29			5.90				2.01			1.06									0		0.00CR			12.26	12.26	08/08/2022	08/31/2022	07/28/2022	07/31/2022																			0												0												0						0													Past Due balances must be paid by 08/15/2022  in order to avoid a $50 fee and disconnection of water service.	If you would like to enroll in paperless billing or pay your bills online please visit www.eaglemountaincity.com	123824	07/28/2022		Single Graph				GAL To	31	7																		84323	0	JUL	JUN	MAY	APR	MAR	FEB	JAN	DEC	NOV	OCT	SEP	AUG		7	6	5	4	3	2	1	12	11	10	9	8	0	0	0	0	0	0	0	0	0	0	0	0	0	0	0	0	0	0	0	0	0	0	0	0	0	0	
123824	002	AMH DEVELOPMENT LLC		 AMH DEVELOPMENT LLC		PO BOX 4698				LOGAN UT 84323-4698	UT	84323-4698	98	2357 E TUMBLEWEED RD/ CDC A2 203	Water			Sewer	Penalty			Garbage Service	Garbage Fuel Charge		Storm Drain	Deployed Abatement	Deposit	Miscellaneous							25.50			45.75				17.12			8.25									0	144.76	144.76CR			96.62	96.62	08/08/2022	08/31/2022	07/01/2022	07/31/2022																			0												0												0						0													Past Due balances must be paid by 08/15/2022  in order to avoid a $50 fee and disconnection of water service.	If you would like to enroll in paperless billing or pay your bills online please visit www.eaglemountaincity.com	123824	01/22/2020		Single Graph				GAL To	31	7																		84323	0	JUL	JUN	MAY	APR	MAR	FEB	JAN	DEC	NOV	OCT	SEP	AUG		7	6	5	4	3	2	1	12	11	10	9	8	0	0	47	0	27	0	6	2	5	3	20	23	2	0	7	18	13	11	0	0	2	3	7	18	18	20	
123824	011	AMH DEVELOPMENT LLC		 AMH DEVELOPMENT LLC		PO BOX 4698				LOGAN UT 84323-4698	UT	84323-4698	98	2369 E FRONTIER ST/ CDC A4 461	Water			Sewer	Penalty			Garbage Service	Garbage Fuel Charge		Storm Drain	Deployed Abatement	Deposit	Miscellaneous							48.18			45.75				9.50			8.25									0	93.32	93.32CR			111.68	111.68	08/08/2022	08/31/2022	07/01/2022	07/31/2022	17						00461						91727748						1						07/20/2022						5						06/20/2022						26						21						GAL							Past Due balances must be paid by 08/15/2022  in order to avoid a $50 fee and disconnection of water service.	If you would like to enroll in paperless billing or pay your bills online please visit www.eaglemountaincity.com	123824	01/10/2022		Single Graph				GAL To	31	7																		84323	0	JUL	JUN	MAY	APR	MAR	FEB	JAN	DEC	NOV	OCT	SEP	AUG		7	6	5	4	3	2	1	12	11	10	9	8	0	21	4	1	0	0	-5	5	0	0	0	0	0	0	0	0	0	0	0	0	0	0	0	0	0	0	
123824	006	AMH DEVELOPMENT LLC		 AMH DEVELOPMENT LLC		PO BOX 4698				LOGAN UT 84323-4698	UT	84323-4698	98	2332 E BUCKSKIN WAY/ CDC A4 450	Water			Sewer	Penalty			Garbage Service	Garbage Fuel Charge		Storm Drain	Deployed Abatement	Deposit	Miscellaneous							51.42			45.75				9.50			8.25									0	99.80	99.80CR			114.92	114.92	08/08/2022	08/31/2022	07/01/2022	07/31/2022	17						00450						89459621						1						07/20/2022						163						06/20/2022						187						24						GAL							Past Due balances must be paid by 08/15/2022  in order to avoid a $50 fee and disconnection of water service.	If you would like to enroll in paperless billing or pay your bills online please visit www.eaglemountaincity.com	123824	02/03/2021		Single Graph				GAL To	31	7																		84323	0	JUL	JUN	MAY	APR	MAR	FEB	JAN	DEC	NOV	OCT	SEP	AUG		7	6	5	4	3	2	1	12	11	10	9	8	0	24	10	6	4	9	2	3	3	4	6	18	16	0	26	17	19	12	3	4	0	0	0	0	0	0	
130489	001	MILE HIGH BORROWER 1 LLC		 MILE HIGH BORROWER 1 LLC		PO BOX 4698				LOGAN UT 84323-4698	UT	84323-4698	98	2182 E JORDAN WAY/ PA 169	Water			Sewer	Penalty			Garbage Service	Garbage Fuel Charge		Storm Drain	Deployed Abatement	Deposit	Miscellaneous							33.06			45.75				14.50			8.25									0	3.24	3.24CR			101.56	101.56	08/08/2022	08/31/2022	07/01/2022	07/31/2022	17						00169						89575025						1						07/15/2022						196						06/20/2022						203						7						GAL							Past Due balances must be paid by 08/15/2022  in order to avoid a $50 fee and disconnection of water service.	If you would like to enroll in paperless billing or pay your bills online please visit www.eaglemountaincity.com	130489	05/02/2022		Single Graph				GAL To	31	7																		84323	0	JUL	JUN	MAY	APR	MAR	FEB	JAN	DEC	NOV	OCT	SEP	AUG		7	6	5	4	3	2	1	12	11	10	9	8	0	7	3	1	0	0	0	0	0	0	0	0	0	0	0	0	0	0	0	0	0	0	0	0	0	0	
130489	003	MILE HIGH BORROWER 1 LLC		 MILE HIGH BORROWER 1 LLC		PO BOX 4698				LOGAN UT 84323-4698	UT	84323-4698	98	1791 E TUMWATER LN/ SW 513	Water			Sewer	Penalty			Garbage Service	Garbage Fuel Charge		Storm Drain	Deployed Abatement	Deposit	Miscellaneous							29.82			45.75				14.50			8.25									0	99.40	99.40CR			98.32	98.32	08/08/2022	08/31/2022	07/01/2022	07/31/2022	62						00513						82165130						1						07/15/2022						219						06/20/2022						223						4						GAL							Past Due balances must be paid by 08/15/2022  in order to avoid a $50 fee and disconnection of water service.	If you would like to enroll in paperless billing or pay your bills online please visit www.eaglemountaincity.com	130489	05/20/2022		Single Graph				GAL To	31	7																		84323	0	JUL	JUN	MAY	APR	MAR	FEB	JAN	DEC	NOV	OCT	SEP	AUG		7	6	5	4	3	2	1	12	11	10	9	8	0	4	5	0	0	0	0	0	0	0	0	0	0	0	0	0	0	0	0	0	0	0	0	0	0	0	
129570	010	PROGRESS SALT LAKE CITY LLC PR		 PROGRESS SALT LAKE CITY LLC PR		PO BOX 4698				LOGAN UT 84323-4698	UT	84323-4698	98	4058 N POPLAR DR/ EPT 2 209	Water			Sewer	Penalty			Garbage Service	Garbage Fuel Charge		Storm Drain	Deployed Abatement	Deposit	Miscellaneous							20.57			36.90				16.73			6.65									0		0.00CR			80.85	80.85	08/08/2022	08/31/2022	07/07/2022	07/31/2022	27						00209						89709883						1						07/20/2022						38						07/07/2022						38						0						GAL							Past Due balances must be paid by 08/15/2022  in order to avoid a $50 fee and disconnection of water service.	If you would like to enroll in paperless billing or pay your bills online please visit www.eaglemountaincity.com	129570	07/07/2022		Single Graph				GAL To	31	7																		84323	0	JUL	JUN	MAY	APR	MAR	FEB	JAN	DEC	NOV	OCT	SEP	AUG		7	6	5	4	3	2	1	12	11	10	9	8	0	0	0	0	0	0	0	0	0	0	0	0	0	0	0	0	0	0	0	0	0	0	0	0	0	0	
129570	009	PROGRESS SALT LAKE CITY LLC PR		 PROGRESS SALT LAKE CITY LLC PR		PO BOX 4698				LOGAN UT 84323-4698	UT	84323-4698	98	4096 N WHITE PINE RD/ MTV 32	Water			Sewer	Penalty			Garbage Service	Garbage Fuel Charge		Storm Drain	Deployed Abatement	Deposit	Miscellaneous							61.14			45.75				27.00			8.25									0	107.58	107.58CR			142.14	142.14	08/08/2022	08/31/2022	07/01/2022	07/31/2022	25						00032						86286260						1						07/20/2022						807						06/20/2022						840						33						GAL							Past Due balances must be paid by 08/15/2022  in order to avoid a $50 fee and disconnection of water service.	If you would like to enroll in paperless billing or pay your bills online please visit www.eaglemountaincity.com	129570	04/25/2022		Single Graph				GAL To	31	7																		84323	0	JUL	JUN	MAY	APR	MAR	FEB	JAN	DEC	NOV	OCT	SEP	AUG		7	6	5	4	3	2	1	12	11	10	9	8	0	33	1	1	0	0	0	0	0	0	0	0	0	0	0	0	0	0	0	0	0	0	0	0	0	0	
129570	011	PROGRESS SALT LAKE CITY LLC PR		 PROGRESS SALT LAKE CITY LLC PR		PO BOX 4698				LOGAN UT 84323-4698	UT	84323-4698	98	1228 E BELL BUOY WAY/ HMY A4 449	Water			Sewer	Penalty			Garbage Service	Garbage Fuel Charge		Storm Drain	Deployed Abatement	Deposit	Miscellaneous							8.23			14.76				0.92			2.66									0		0.00CR			26.57	26.57	08/08/2022	08/31/2022	07/22/2022	07/31/2022																			0												0												0						0													Past Due balances must be paid by 08/15/2022  in order to avoid a $50 fee and disconnection of water service.	If you would like to enroll in paperless billing or pay your bills online please visit www.eaglemountaincity.com	129570	07/22/2022		Single Graph				GAL To	31	7																		84323	0	JUL	JUN	MAY	APR	MAR	FEB	JAN	DEC	NOV	OCT	SEP	AUG		7	6	5	4	3	2	1	12	11	10	9	8	0	0	0	0	0	0	0	0	0	0	0	0	0	0	0	0	0	0	0	0	0	0	0	0	0	0	
128359	004	TRUE NORTH BORROWER UTAH LLC		 TRUE NORTH BORROWER UTAH LLC		PO BOX 4698				LOGAN UT 84323-4698	UT	84323-4698	98	4762 E LAKE CORNER DR/ SL 2501	Water			Sewer	Penalty			Garbage Service	Garbage Fuel Charge		Storm Drain	Deployed Abatement	Deposit	Miscellaneous							25.50			45.75				9.50			8.25									0	89.00	89.00CR			89.00	89.00	08/08/2022	08/31/2022	07/01/2022	07/31/2022	53						02501						92076216						1						07/19/2022						0						06/20/2022						0						0						GAL							Past Due balances must be paid by 08/15/2022  in order to avoid a $50 fee and disconnection of water service.	If you would like to enroll in paperless billing or pay your bills online please visit www.eaglemountaincity.com	128359	05/27/2022		Single Graph				GAL To	31	7																		84323	0	JUL	JUN	MAY	APR	MAR	FEB	JAN	DEC	NOV	OCT	SEP	AUG		7	6	5	4	3	2	1	12	11	10	9	8	0	0	0	0	0	0	0	0	0	0	0	0	0	0	0	0	0	0	0	0	0	0	0	0	0	0	
128359	008	TRUE NORTH BORROWER UTAH LLC		 TRUE NORTH BORROWER UTAH LLC		PO BOX 4698				LOGAN UT 84323-4698	UT	84323-4698	98	4816 E HIDDEN STEPPE BEND/ SL 2048	Water			Sewer	Penalty			Garbage Service	Garbage Fuel Charge		Storm Drain	Deployed Abatement	Deposit	Miscellaneous							4.93			8.85				2.81			1.60									0		0.00CR			18.19	18.19	08/08/2022	08/31/2022	07/26/2022	07/31/2022																			0												0												0						0													Past Due balances must be paid by 08/15/2022  in order to avoid a $50 fee and disconnection of water service.	If you would like to enroll in paperless billing or pay your bills online please visit www.eaglemountaincity.com	128359	07/26/2022		Single Graph				GAL To	31	7																		84323	0	JUL	JUN	MAY	APR	MAR	FEB	JAN	DEC	NOV	OCT	SEP	AUG		7	6	5	4	3	2	1	12	11	10	9	8	0	0	0	0	0	0	0	0	0	0	0	0	0	0	0	0	0	0	0	0	0	0	0	0	0	0	
130533	001	YAMASA CO. LTD		 YAMASA CO. LTD		PO BOX 4698				LOGAN UT 84323-4698	UT	84323-4698	98	1752 E REVERE WAY/ PA 53	Water			Sewer	Penalty			Garbage Service	Garbage Fuel Charge		Storm Drain	Deployed Abatement	Deposit	Miscellaneous							121.91			45.75				15.75			8.25									0	132.55	132.55CR			191.66	191.66	08/08/2022	08/31/2022	07/01/2022	07/31/2022	17						00053						32484049						1						07/20/2022						3232						06/17/2022						3320						87						GAL							Past Due balances must be paid by 08/15/2022  in order to avoid a $50 fee and disconnection of water service.	If you would like to enroll in paperless billing or pay your bills online please visit www.eaglemountaincity.com	130533	05/06/2022		Single Graph				GAL To	31	7																		84323	0	JUL	JUN	MAY	APR	MAR	FEB	JAN	DEC	NOV	OCT	SEP	AUG		7	6	5	4	3	2	1	12	11	10	9	8	0	87	34	0	0	0	0	0	0	0	0	0	0	0	0	0	0	0	0	0	0	0	0	0	0	0	
130533	000	YAMASA CO. LTD		 YAMASA CO. LTD		PO BOX 4698				LOGAN UT 84323-4698	UT	84323-4698	98	7669 N POWELL ST/ TC 99	Water			Sewer	Penalty			Garbage Service	Garbage Fuel Charge		Storm Drain	Deployed Abatement	Deposit	Miscellaneous							67.86			45.75				14.50			8.25									0	128.11	128.11CR			136.36	136.36	08/08/2022	08/31/2022	07/01/2022	07/31/2022	37						00099						40511024						1						07/19/2022						2712						06/20/2022						2751						39						GAL							Past Due balances must be paid by 08/15/2022  in order to avoid a $50 fee and disconnection of water service.	If you would like to enroll in paperless billing or pay your bills online please visit www.eaglemountaincity.com	130533	04/29/2022		Single Graph				GAL To	31	7																		84323	0	JUL	JUN	MAY	APR	MAR	FEB	JAN	DEC	NOV	OCT	SEP	AUG		7	6	5	4	3	2	1	12	11	10	9	8	0	39	31	0	0	0	0	0	0	0	0	0	0	0	0	0	0	0	0	0	0	0	0	0	0	0	
106314	002	PLUM CREEK HOA		 PLUM CREEK HOA		2230 N UNIVERSITY PKWY STE 7A				PROVO UT 84604-1591	UT	84604-1591	71	3850 E CASCADE RD/ PLCK G (H)	Water			Sewer	Penalty			Garbage Service	Garbage Fuel Charge		Storm Drain	Deployed Abatement	Deposit	Miscellaneous							384.06																			0	367.86	367.86CR			384.06	384.06	08/08/2022	08/31/2022	07/01/2022	07/31/2022	51						05000						91242016						1						07/20/2022						4731						06/20/2022						5063						332						GAL							Past Due balances must be paid by 08/15/2022  in order to avoid a $50 fee and disconnection of water service.	If you would like to enroll in paperless billing or pay your bills online please visit www.eaglemountaincity.com	106314	09/01/2008		Single Graph				GAL To	30	7																		84604	0	JUL	JUN	MAY	APR	MAR	FEB	JAN	DEC	NOV	OCT	SEP	AUG		7	6	5	4	3	2	1	12	11	10	9	8	0	332	317	29	2	0	0	0	0	0	209	190	993	0	0	0	0	0	3	0	0	0	0	30	34	36	
106314	000	PLUM CREEK HOA		 PLUM CREEK HOA		2230 N UNIVERSITY PKWY STE 7A				PROVO UT 84604-1591	UT	84604-1591	71	3812 E ROCK CREEK RD/ PLCK B	Water			Sewer	Penalty			Garbage Service	Garbage Fuel Charge		Storm Drain	Deployed Abatement	Deposit	Miscellaneous							306.00			549.00							99.00									0	954.00	954.00CR			954.00	954.00	08/08/2022	08/31/2022	07/01/2022	07/31/2022																			0												0												0						0													Past Due balances must be paid by 08/15/2022  in order to avoid a $50 fee and disconnection of water service.	If you would like to enroll in paperless billing or pay your bills online please visit www.eaglemountaincity.com	106314	09/01/2008		Single Graph				GAL To	30	7																		84604	0	JUL	JUN	MAY	APR	MAR	FEB	JAN	DEC	NOV	OCT	SEP	AUG		7	6	5	4	3	2	1	12	11	10	9	8	0	0	0	0	0	0	0	0	0	0	0	0	0	0	0	0	0	46	30	40	40	150	23	241	100	118	
106314	001	PLUM CREEK HOA		 PLUM CREEK HOA		2230 N UNIVERSITY PKWY STE 7A				PROVO UT 84604-1591	UT	84604-1591	71	3821 E ROCK CREEK RD/ PLCK A	Water			Sewer	Penalty			Garbage Service	Garbage Fuel Charge		Storm Drain	Deployed Abatement	Deposit	Miscellaneous							363.58			549.00							107.25									0	1022.96	1022.96CR			1019.83	1019.83	08/08/2022	08/31/2022	07/01/2022	07/31/2022	51	51					12345	01002					35581049IRR	33475854					1	1					07/19/2022	07/19/2022					1333	7095					06/20/2022	06/17/2022					1362	7095					29						GAL	GAL						Past Due balances must be paid by 08/15/2022  in order to avoid a $50 fee and disconnection of water service.	If you would like to enroll in paperless billing or pay your bills online please visit www.eaglemountaincity.com	106314	09/01/2008		Single Graph				GAL To	30	7																		84604	0	JUL	JUN	MAY	APR	MAR	FEB	JAN	DEC	NOV	OCT	SEP	AUG		7	6	5	4	3	2	1	12	11	10	9	8	0	29	32	0	0	0	0	0	0	476	11	179	125	0	202	176	144	160	107	126	162	2746	0	0	0	0	
106314	003	PLUM CREEK HOA		 PLUM CREEK HOA		2230 N UNIVERSITY PKWY STE 7A				PROVO UT 84604-1591	UT	84604-1591	71	3826 E ROCK CREEK RD/ OPENSPACE	Water			Sewer	Penalty			Garbage Service	Garbage Fuel Charge		Storm Drain	Deployed Abatement	Deposit	Miscellaneous							165.98																			0	129.27	129.27CR			165.98	165.98	08/08/2022	08/31/2022	07/01/2022	07/31/2022	51						00313						18820321IRR						1						07/19/2022						8362						06/17/2022						8492						130						GAL							Past Due balances must be paid by 08/15/2022  in order to avoid a $50 fee and disconnection of water service.	If you would like to enroll in paperless billing or pay your bills online please visit www.eaglemountaincity.com	106314	05/13/2009		Single Graph				GAL To	30	7																		84604	0	JUL	JUN	MAY	APR	MAR	FEB	JAN	DEC	NOV	OCT	SEP	AUG		7	6	5	4	3	2	1	12	11	10	9	8	0	130	96	1	0	0	0	0	0	0	67	140	196	0	254	230	64	0	0	0	0	0	0	103	179	223	
126284	000	AMERITRUE REAL ESTATE & MANAGE		 AMERITRUE REAL ESTATE & MANAGE		95 W 200 N # 2				SPANISH FORK UT 84660-1710	UT	84660-1710	95	7440 N HUTCH LN/ SLM 1421	Water			Sewer	Penalty			Garbage Service	Garbage Fuel Charge		Storm Drain	Deployed Abatement	Deposit	Miscellaneous							39.54			45.75				14.50			8.25									0	111.28	111.28CR			108.04	108.04	08/08/2022	08/31/2022	07/01/2022	07/31/2022	53						01421						81323890						1						07/18/2022						446						06/16/2022						459						13						GAL							Past Due balances must be paid by 08/15/2022  in order to avoid a $50 fee and disconnection of water service.	If you would like to enroll in paperless billing or pay your bills online please visit www.eaglemountaincity.com	126284	12/14/2020		Single Graph				GAL To	31	7																		84660	0	JUL	JUN	MAY	APR	MAR	FEB	JAN	DEC	NOV	OCT	SEP	AUG		7	6	5	4	3	2	1	12	11	10	9	8	0	13	16	13	15	15	14	19	17	14	14	16	17	0	19	9	11	21	14	11	7	0	0	0	0	0	
126284	001	AMERITRUE REAL ESTATE & MANAGE		 AMERITRUE REAL ESTATE & MANAGE		95 W 200 N # 2				SPANISH FORK UT 84660-1710	UT	84660-1710	95	4367 E GOLDEN OAK LN/ OH A3 311	Water			Sewer	Penalty			Garbage Service	Garbage Fuel Charge		Storm Drain	Deployed Abatement	Deposit	Miscellaneous							57.90			45.75				14.50			8.25									0	132.88	132.88CR			126.40	126.40	08/08/2022	08/31/2022	07/01/2022	07/31/2022	70						00311						85382990						1						07/20/2022						479						06/20/2022						509						30						GAL							Past Due balances must be paid by 08/15/2022  in order to avoid a $50 fee and disconnection of water service.	If you would like to enroll in paperless billing or pay your bills online please visit www.eaglemountaincity.com	126284	12/21/2020		Single Graph				GAL To	31	7																		84660	0	JUL	JUN	MAY	APR	MAR	FEB	JAN	DEC	NOV	OCT	SEP	AUG		7	6	5	4	3	2	1	12	11	10	9	8	0	30	36	6	6	5	4	6	3	6	12	13	20	0	32	15	8	4	2	1	1	0	0	0	0	0	
127790	000	OVERLAND MASTER ASSOCIATION		 OVERLAND MASTER ASSOCIATION		8360 E VIA DE VENTURA STE L100				SCOTTSDALE AZ 85258-3183	AZ	85258-3183	20	6192 N SHEPS RIDGE RD/ OL LNDSCP	Water			Sewer	Penalty			Garbage Service	Garbage Fuel Charge		Storm Drain	Deployed Abatement	Deposit	Miscellaneous							25.50																			0	25.50	25.50CR			25.50	25.50	08/08/2022	08/31/2022	07/01/2022	07/31/2022	04						00000						84426373						1						07/20/2022						458						06/20/2022						458						0						GAL							Past Due balances must be paid by 08/15/2022  in order to avoid a $50 fee and disconnection of water service.	If you would like to enroll in paperless billing or pay your bills online please visit www.eaglemountaincity.com	127790	07/12/2021		Single Graph				GAL To	30	7																		85258	0	JUL	JUN	MAY	APR	MAR	FEB	JAN	DEC	NOV	OCT	SEP	AUG		7	6	5	4	3	2	1	12	11	10	9	8	0	0	0	1	0	0	0	0	0	0	16	30	26	0	7	0	0	0	0	0	0	0	0	0	0	0	
127790	001	OVERLAND MASTER ASSOCIATION		 OVERLAND MASTER ASSOCIATION		8360 E VIA DE VENTURA STE L100				SCOTTSDALE AZ 85258-3183	AZ	85258-3183	20	1756 E LOWE PEAK DR/ OL LNDSCP	Water			Sewer	Penalty			Garbage Service	Garbage Fuel Charge		Storm Drain	Deployed Abatement	Deposit	Miscellaneous							40.62																			0	41.70	41.70CR			40.62	40.62	08/08/2022	08/31/2022	07/01/2022	07/31/2022	18						00000						84362044IRR						1						07/20/2022						566						06/20/2022						580						14						GAL							Past Due balances must be paid by 08/15/2022  in order to avoid a $50 fee and disconnection of water service.	If you would like to enroll in paperless billing or pay your bills online please visit www.eaglemountaincity.com	127790	07/30/2021		Single Graph				GAL To	31	7																		85258	0	JUL	JUN	MAY	APR	MAR	FEB	JAN	DEC	NOV	OCT	SEP	AUG		7	6	5	4	3	2	1	12	11	10	9	8	0	14	15	7	0	0	0	0	0	0	12	22	10	0	0	0	0	0	0	0	0	0	0	0	0	0	
125826	011	OPENDOOR LABS INC		 OPENDOOR LABS INC		PO BOX 1057				PICO RIVERA CA 90660-1057	CA	90660-1057	57	4037 E SIOUX ST/ KV 10	Water			Sewer	Penalty			Garbage Service	Garbage Fuel Charge		Storm Drain	Deployed Abatement	Deposit	Miscellaneous							25.50			45.75				20.75			8.25									0	100.25	100.25CR			100.25	100.25	08/08/2022	08/31/2022	07/01/2022	07/31/2022	47						00010						19064528						1						07/18/2022						3048						06/17/2022						3048						0						GAL							Past Due balances must be paid by 08/15/2022  in order to avoid a $50 fee and disconnection of water service.	If you would like to enroll in paperless billing or pay your bills online please visit www.eaglemountaincity.com	125826	04/11/2022		Single Graph				GAL To	31	7																		90660	0	JUL	JUN	MAY	APR	MAR	FEB	JAN	DEC	NOV	OCT	SEP	AUG		7	6	5	4	3	2	1	12	11	10	9	8	0	0	0	0	0	0	0	0	0	0	0	0	0	0	0	0	0	0	0	0	0	0	0	0	0	0	
125826	008	OPENDOOR LABS INC		 OPENDOOR LABS INC		PO BOX 1057				PICO RIVERA CA 90660-1057	CA	90660-1057	57	1502 E RAPTOR RD/ EPK 16	Water			Sewer	Penalty			Garbage Service	Garbage Fuel Charge		Storm Drain	Deployed Abatement	Deposit	Miscellaneous							26.58			45.75				20.75			8.25									0	100.25	100.25CR			101.33	101.33	08/08/2022	08/31/2022	07/01/2022	07/31/2022	18						00016						83207206						1						07/20/2022						543						06/17/2022						544						1						GAL							Past Due balances must be paid by 08/15/2022  in order to avoid a $50 fee and disconnection of water service.	If you would like to enroll in paperless billing or pay your bills online please visit www.eaglemountaincity.com	125826	03/31/2022		Single Graph				GAL To	31	7																		90660	0	JUL	JUN	MAY	APR	MAR	FEB	JAN	DEC	NOV	OCT	SEP	AUG		7	6	5	4	3	2	1	12	11	10	9	8	0	1	0	0	0	0	0	0	0	0	0	0	0	0	0	0	0	0	0	0	0	0	0	0	0	0	
125826	009	OPENDOOR LABS INC		 OPENDOOR LABS INC		PO BOX 1057				PICO RIVERA CA 90660-1057	CA	90660-1057	57	2063 E REVERE WAY/ PA 149	Water			Sewer	Penalty			Garbage Service	Garbage Fuel Charge		Storm Drain	Deployed Abatement	Deposit	Miscellaneous							25.50			45.75				14.50			8.25									0	94.01	94.01CR			94.00	94.00	08/08/2022	08/31/2022	07/01/2022	07/31/2022	17						00149						33816653						1						07/15/2022						1949						06/16/2022						1949						0						GAL							Past Due balances must be paid by 08/15/2022  in order to avoid a $50 fee and disconnection of water service.	If you would like to enroll in paperless billing or pay your bills online please visit www.eaglemountaincity.com	125826	04/04/2022		Single Graph				GAL To	31	7																		90660	0	JUL	JUN	MAY	APR	MAR	FEB	JAN	DEC	NOV	OCT	SEP	AUG		7	6	5	4	3	2	1	12	11	10	9	8	0	0	0	0	0	0	0	0	0	0	0	0	0	0	0	0	0	0	0	0	0	0	0	0	0	0	
125826	010	OPENDOOR LABS INC		 OPENDOOR LABS INC		PO BOX 1057				PICO RIVERA CA 90660-1057	CA	90660-1057	57	4067 E OFALLONS WAY/ PC 232	Water			Sewer	Penalty			Garbage Service	Garbage Fuel Charge		Storm Drain	Deployed Abatement	Deposit	Miscellaneous							25.50			45.75				19.50			8.25									0	99.00	99.00CR			99.00	99.00	08/08/2022	08/31/2022	07/01/2022	07/31/2022	36						00232						75115489						1						07/18/2022						886						06/17/2022						886						0						GAL							Past Due balances must be paid by 08/15/2022  in order to avoid a $50 fee and disconnection of water service.	If you would like to enroll in paperless billing or pay your bills online please visit www.eaglemountaincity.com	125826	04/07/2022		Single Graph				GAL To	31	7																		90660	0	JUL	JUN	MAY	APR	MAR	FEB	JAN	DEC	NOV	OCT	SEP	AUG		7	6	5	4	3	2	1	12	11	10	9	8	0	0	0	0	1	0	0	0	0	0	0	0	0	0	0	0	0	0	0	0	0	0	0	0	0	0	
127240	007	OPENDOOR LABS INC.		 OPENDOOR LABS INC.		PO BOX 1057				PICO RIVERA CA 90660-1057	CA	90660-1057	57	7519 ADDISON AVE/ SLV 44	Water			Sewer	Penalty			Garbage Service	Garbage Fuel Charge		Storm Drain	Deployed Abatement	Deposit	Miscellaneous							26.63			45.75				9.50			8.25									0		0.00CR			90.13	90.13	08/08/2022	08/31/2022	07/01/2022	07/31/2022	53						00044						34276833						1						07/18/2022						1334						06/30/2022						1335						1						GAL							Past Due balances must be paid by 08/15/2022  in order to avoid a $50 fee and disconnection of water service.	If you would like to enroll in paperless billing or pay your bills online please visit www.eaglemountaincity.com	127240	06/30/2022		Single Graph				GAL To	31	7																		90660	0	JUL	JUN	MAY	APR	MAR	FEB	JAN	DEC	NOV	OCT	SEP	AUG		7	6	5	4	3	2	1	12	11	10	9	8	0	1	0	0	0	0	0	0	0	0	0	0	0	0	0	0	0	0	0	0	0	0	0	0	0	0	
127240	006	OPENDOOR LABS INC.		 OPENDOOR LABS INC.		PO BOX 1057				PICO RIVERA CA 90660-1057	CA	90660-1057	57	4610 N LONG WAY/ PA 42	Water			Sewer	Penalty			Garbage Service	Garbage Fuel Charge		Storm Drain	Deployed Abatement	Deposit	Miscellaneous							26.20			45.75				14.50			8.25									0		0.00CR			94.70	94.70	08/08/2022	08/31/2022	07/01/2022	07/31/2022	17						00042						36315038						3						07/15/2022						1505						06/30/2022						1505						0						Decatherm							Past Due balances must be paid by 08/15/2022  in order to avoid a $50 fee and disconnection of water service.	If you would like to enroll in paperless billing or pay your bills online please visit www.eaglemountaincity.com	127240	06/29/2022		Single Graph				GAL To	31	7																		90660	0	JUL	JUN	MAY	APR	MAR	FEB	JAN	DEC	NOV	OCT	SEP	AUG		7	6	5	4	3	2	1	12	11	10	9	8	0	0	0	0	0	0	0	0	0	0	0	0	0	0	0	0	0	0	0	0	0	0	0	0	0	0	
127240	005	OPENDOOR LABS INC.		 OPENDOOR LABS INC.		PO BOX 1057				PICO RIVERA CA 90660-1057	CA	90660-1057	57	1806 E JUNIPER DR/ LND 77	Water			Sewer	Penalty			Garbage Service	Garbage Fuel Charge		Storm Drain	Deployed Abatement	Deposit	Miscellaneous							25.50			45.75				15.75			8.25									0	86.03	86.03CR			95.25	95.25	08/08/2022	08/31/2022	07/01/2022	07/31/2022	22						00077						76372665						1						07/15/2022						594						06/15/2022						594						0						GAL							Past Due balances must be paid by 08/15/2022  in order to avoid a $50 fee and disconnection of water service.	If you would like to enroll in paperless billing or pay your bills online please visit www.eaglemountaincity.com	127240	06/03/2022		Single Graph				GAL To	31	7																		90660	0	JUL	JUN	MAY	APR	MAR	FEB	JAN	DEC	NOV	OCT	SEP	AUG		7	6	5	4	3	2	1	12	11	10	9	8	0	0	0	0	0	0	0	0	0	0	0	0	0	0	0	0	0	0	0	0	0	0	0	0	0	0	
101278	003	MASCOLI	WENDY	WENDY MASCOLI		20831 SPARKMAN LN				HUNTINGTON BEACH CA 92646-6525	CA	92646-6525	31	1815 E INDEPENDENCE WAY/ PA 46	Water			Sewer	Penalty			Garbage Service	Garbage Fuel Charge		Storm Drain	Deployed Abatement	Deposit	Miscellaneous							39.83			45.75				20.75			8.25									0	285.79	161.00CR	15.00		114.58	254.37	08/08/2022	08/31/2022	07/01/2022	07/31/2022	17						00046						32484181						1						07/15/2022						3301						06/17/2022						3315						13						GAL							Past Due balances must be paid by 08/15/2022  in order to avoid a $50 fee and disconnection of water service.	If you would like to enroll in paperless billing or pay your bills online please visit www.eaglemountaincity.com	101278	12/02/2021	139.79	Single Graph				GAL To	31	7																		92646	0	JUL	JUN	MAY	APR	MAR	FEB	JAN	DEC	NOV	OCT	SEP	AUG		7	6	5	4	3	2	1	12	11	10	9	8	0	13	8	9	5	5	7	13	3	0	0	0	0	0	0	0	0	0	0	0	0	0	0	0	0	0	
101278	002	MASCOLI	WENDY	WENDY MASCOLI		20831 SPARKMAN LN				HUNTINGTON BEACH CA 92646-6525	CA	92646-6525	31	3696 E ROYAL TROON DR/ EG 416	Water			Sewer	Penalty			Garbage Service	Garbage Fuel Charge		Storm Drain	Deployed Abatement	Deposit	Miscellaneous							56.01			45.75				14.50			8.25									0	234.13	234.13CR			124.51	124.51	08/08/2022	08/31/2022	07/01/2022	07/31/2022	48						00416						29930909						1						07/19/2022						2021						06/20/2022						2049						28						GAL							Past Due balances must be paid by 08/15/2022  in order to avoid a $50 fee and disconnection of water service.	If you would like to enroll in paperless billing or pay your bills online please visit www.eaglemountaincity.com	101278	12/02/2021		Single Graph				GAL To	31	7																		92646	0	JUL	JUN	MAY	APR	MAR	FEB	JAN	DEC	NOV	OCT	SEP	AUG		7	6	5	4	3	2	1	12	11	10	9	8	0	28	14	0	1	0	2	3	2	0	0	0	0	0	0	0	0	0	0	0	0	0	0	0	0	0	
131074	002	WINTER	HUGE	HUGE WINTER		24721 MONTE ROYALE ST				LAGUNA HILLS CA 92653-6279	CA	92653-6279	21	8075 N PLUM CREEK CIR/ PLCK D 2	Water			Sewer	Penalty			Garbage Service	Garbage Fuel Charge		Storm Drain	Deployed Abatement	Deposit	Miscellaneous							30.01			45.75							8.25									0		0.00CR			84.01	84.01	08/08/2022	08/31/2022	07/01/2022	07/31/2022	51						00202						30021281						1						07/19/2022						578						07/01/2022						582						4						GAL							Past Due balances must be paid by 08/15/2022  in order to avoid a $50 fee and disconnection of water service.	If you would like to enroll in paperless billing or pay your bills online please visit www.eaglemountaincity.com	131074	07/01/2022		Single Graph				GAL To	31	7																		92653	0	JUL	JUN	MAY	APR	MAR	FEB	JAN	DEC	NOV	OCT	SEP	AUG		7	6	5	4	3	2	1	12	11	10	9	8	0	4	0	0	0	0	0	0	0	0	0	0	0	0	0	0	0	0	0	0	0	0	0	0	0	0	
131074	001	WINTER	HUGE	HUGE WINTER		24721 MONTE ROYALE ST				LAGUNA HILLS CA 92653-6279	CA	92653-6279	21	8061 N PLUM CREEK CIR/ PLCK E 4	Water			Sewer	Penalty			Garbage Service	Garbage Fuel Charge		Storm Drain	Deployed Abatement	Deposit	Miscellaneous							26.19			45.75							8.25									0		0.00CR			80.19	80.19	08/08/2022	08/31/2022	07/01/2022	07/31/2022	51						00004						29199340						1						07/19/2022						894						07/01/2022						894						0						GAL							Past Due balances must be paid by 08/15/2022  in order to avoid a $50 fee and disconnection of water service.	If you would like to enroll in paperless billing or pay your bills online please visit www.eaglemountaincity.com	131074	07/01/2022		Single Graph				GAL To	31	7																		92653	0	JUL	JUN	MAY	APR	MAR	FEB	JAN	DEC	NOV	OCT	SEP	AUG		7	6	5	4	3	2	1	12	11	10	9	8	0	0	0	0	0	0	0	0	0	0	0	0	0	0	0	0	0	0	0	0	0	0	0	0	0	0	
131074	000	WINTER	HUGE	HUGE WINTER		24721 MONTE ROYALE ST				LAGUNA HILLS CA 92653-6279	CA	92653-6279	21	8045 N PLUM CREEK DR / PLCK F 3	Water			Sewer	Penalty			Garbage Service	Garbage Fuel Charge		Storm Drain	Deployed Abatement	Deposit	Miscellaneous							129.66			228.75							41.25		40.00	25.00						0		0.00CR		383.00	81.66	464.66	08/08/2022	08/31/2022	07/01/2022	07/31/2022	51						00003						89875774						1						07/20/2022						30						06/16/2022						32						2						GAL							Past Due balances must be paid by 08/15/2022  in order to avoid a $50 fee and disconnection of water service.	If you would like to enroll in paperless billing or pay your bills online please visit www.eaglemountaincity.com	131074	07/01/2022	383.00	Single Graph				GAL To	31	7																		92653	0	JUL	JUN	MAY	APR	MAR	FEB	JAN	DEC	NOV	OCT	SEP	AUG		7	6	5	4	3	2	1	12	11	10	9	8	0	2	0	0	0	0	0	0	0	0	0	0	0	0	0	0	0	0	0	0	0	0	0	0	0	0	
120992	002	STADION LLC		 STADION LLC	c/o ATTN: DAYLEN SMITH	1601 WILLOW RD				MENLO PARK CA 94025-1452	CA	94025-1452	99	1415 E COMMUNITY CIR/ FB LOGISTICS 3	Water			Sewer	Penalty			Garbage Service	Garbage Fuel Charge		Storm Drain	Deployed Abatement	Deposit	Miscellaneous							4,883.82																			0	3250.74	3250.74CR	-1187.84		4883.82	3695.98	08/08/2022	08/31/2022	07/01/2022	07/31/2022	77	77	77	77	77	77	62006	62001	62003	62003	62006	62001	90141825	90216364	90698712	90095009	90698714	90698713	1	1	1	1	1	1	07/27/2022	07/20/2022	07/20/2022	07/20/2022	07/27/2022	07/20/2022	0		22		33865	133	06/29/2022	06/20/2022	05/26/2022	06/29/2022	06/29/2022	06/20/2022	0		22		37783	133	0				3918		GAL	GAL	GAL	GAL	GAL	GAL		Past Due balances must be paid by 08/15/2022  in order to avoid a $50 fee and disconnection of water service.	If you would like to enroll in paperless billing or pay your bills online please visit www.eaglemountaincity.com	120992	02/07/2019		Single Graph				GAL To	31	7																		94025	0	JUL	JUN	MAY	APR	MAR	FEB	JAN	DEC	NOV	OCT	SEP	AUG		7	6	5	4	3	2	1	12	11	10	9	8	0	3918	2601	606	1518	324	2145	730	154	318	541	461	0	0	0	0	0	0	0	0	0	0	0	0	0	0	
120992	001	STADION LLC		 STADION LLC	c/o ATTN: DAYLEN SMITH	1601 WILLOW RD				MENLO PARK CA 94025-1452	CA	94025-1452	99	1415 E COMMUNITY CIR/ FB LOGISTICS 2	Water			Sewer	Penalty			Garbage Service	Garbage Fuel Charge		Storm Drain	Deployed Abatement	Deposit	Miscellaneous							669.06																			0	607.01	607.01CR			669.06	669.06	08/08/2022	08/31/2022	07/01/2022	07/31/2022	77	77	77	77	77	77	62005	62004	62002	62005	62002	62004	90147964	90698709	90147959	90698711	90698710	90619857	1	1	1	1	1	1	07/15/2022	07/20/2022	07/20/2022	07/27/2022	07/20/2022	07/20/2022	0	27	20	11562	25	3	06/29/2022	06/20/2022	06/20/2022	06/29/2022	06/20/2022	06/20/2022	0	27	20	12077	29	3	0			515	4		GAL	GAL	GAL	GAL	GAL	GAL		Past Due balances must be paid by 08/15/2022  in order to avoid a $50 fee and disconnection of water service.	If you would like to enroll in paperless billing or pay your bills online please visit www.eaglemountaincity.com	120992	02/07/2019		Single Graph				GAL To	31	7																		94025	0	JUL	JUN	MAY	APR	MAR	FEB	JAN	DEC	NOV	OCT	SEP	AUG		7	6	5	4	3	2	1	12	11	10	9	8	0	519	499	653	85	43	111	90	60	1427	1	1969	0	0	0	0	0	0	0	0	0	0	0	0	0	0	
120992	000	STADION LLC		 STADION LLC	c/o ATTN: DAYLEN SMITH	1601 WILLOW RD				MENLO PARK CA 94025-1452	CA	94025-1452	99	1415 E COMMUNITY CIR/ FB LOGISTICS 1	Water			Sewer	Penalty			Garbage Service	Garbage Fuel Charge		Storm Drain	Deployed Abatement	Deposit	Miscellaneous							55.26			9,961.33							8.25									0	9645.40	9645.40CR			10024.84	10024.84	08/08/2022	08/31/2022	07/01/2022	07/31/2022	77	77	77				62TW2	62TW1	62TW3				89841091	89368025	89594434				1	1	1				07/27/2022	07/20/2022	07/27/2022				688	3033	1484				06/29/2022	06/20/2022	06/29/2022				707	3033	1489				19		5				GAL	GAL	GAL					Past Due balances must be paid by 08/15/2022  in order to avoid a $50 fee and disconnection of water service.	If you would like to enroll in paperless billing or pay your bills online please visit www.eaglemountaincity.com	120992	02/07/2019		Single Graph				GAL To	31	7																		94025	0	JUL	JUN	MAY	APR	MAR	FEB	JAN	DEC	NOV	OCT	SEP	AUG		7	6	5	4	3	2	1	12	11	10	9	8	0	24	18	-224	277	15	26	51	155	49	19	38	37	0	8638	3487	2668	1256	1530	1559	1805	779	1817	1910	1875	1038	
107518	014	BURASTERO	STEPHEN	STEPHEN BURASTERO		20 JAPALA CT				FREMONT CA 94539-6607	CA	94539-6607	20	4673 N CHURCH WAY/ PA 144	Water			Sewer	Penalty			Garbage Service	Garbage Fuel Charge		Storm Drain	Deployed Abatement	Deposit	Miscellaneous																										0	415.39	0.00CR				415.39	08/08/2022	08/31/2022	07/01/2022	07/31/2022																			0												0												0						0													Past Due balances must be paid by 08/15/2022  in order to avoid a $50 fee and disconnection of water service.	If you would like to enroll in paperless billing or pay your bills online please visit www.eaglemountaincity.com	107518	03/25/2022	415.39	Single Graph				GAL To	31	7																		94539	0	JUL	JUN	MAY	APR	MAR	FEB	JAN	DEC	NOV	OCT	SEP	AUG		7	6	5	4	3	2	1	12	11	10	9	8	0	0	0	0	0	0	0	0	0	0	0	0	0	0	0	0	0	0	0	0	0	0	0	0	0	0	
107518	013	BURASTERO	STEPHEN	STEPHEN BURASTERO		20 JAPALA CT				FREMONT CA 94539-6607	CA	94539-6607	20	2169 E SUMMIT WAY/ PA 15	Water			Sewer	Penalty			Garbage Service	Garbage Fuel Charge		Storm Drain	Deployed Abatement	Deposit	Miscellaneous																										0	637.84	0.00CR		24.99		662.83	08/08/2022	08/31/2022	07/01/2022	07/31/2022																			0												0												0						0													Past Due balances must be paid by 08/15/2022  in order to avoid a $50 fee and disconnection of water service.	If you would like to enroll in paperless billing or pay your bills online please visit www.eaglemountaincity.com	107518	12/31/2020	662.83	Single Graph				GAL To	31	7																		94539	0	JUL	JUN	MAY	APR	MAR	FEB	JAN	DEC	NOV	OCT	SEP	AUG		7	6	5	4	3	2	1	12	11	10	9	8	0	0	0	0	0	0	0	0	0	0	0	0	0	0	0	0	0	0	0	0	0	0	0	0	0	0	
106175	003	GOREL	ADIEL	ADIEL GOREL		165 N REDWOOD DR STE 250				SAN RAFAEL CA 94903-1955	CA	94903-1955	50	7707 N MEADOW CREEK RD/ SL 124	Water			Sewer	Penalty			Garbage Service	Garbage Fuel Charge		Storm Drain	Deployed Abatement	Deposit	Miscellaneous							73.44			45.75				20.75			8.25									0	152.60	152.60CR			148.19	148.19	08/08/2022	08/31/2022	07/01/2022	07/31/2022	53						00124						33816615						2						07/18/2022						2915						06/17/2022						2959						44						Kilowatt							Past Due balances must be paid by 08/15/2022  in order to avoid a $50 fee and disconnection of water service.	If you would like to enroll in paperless billing or pay your bills online please visit www.eaglemountaincity.com	106175	02/01/2022		Single Graph				GAL To	31	7																		94903	0	JUL	JUN	MAY	APR	MAR	FEB	JAN	DEC	NOV	OCT	SEP	AUG		7	6	5	4	3	2	1	12	11	10	9	8	0	44	48	8	8	7	0	0	0	0	0	0	0	0	0	0	0	0	0	0	0	0	0	0	0	0	
106175	002	GOREL	ADIEL	ADIEL GOREL		165 N REDWOOD DR STE 250				SAN RAFAEL CA 94903-1955	CA	94903-1955	50	7718 N RIVERWOOD WAY/ SL 101	Water			Sewer	Penalty			Garbage Service	Garbage Fuel Charge		Storm Drain	Deployed Abatement	Deposit	Miscellaneous							72.31			45.75				20.75			8.25									0	144.68	144.68CR			147.06	147.06	08/08/2022	08/31/2022	07/01/2022	07/31/2022	53						00101						33559927						1						07/18/2022						3413						06/17/2022						3456						43						GAL							Past Due balances must be paid by 08/15/2022  in order to avoid a $50 fee and disconnection of water service.	If you would like to enroll in paperless billing or pay your bills online please visit www.eaglemountaincity.com	106175	02/01/2022		Single Graph				GAL To	31	7																		94903	0	JUL	JUN	MAY	APR	MAR	FEB	JAN	DEC	NOV	OCT	SEP	AUG		7	6	5	4	3	2	1	12	11	10	9	8	0	43	41	10	10	7	4	0	0	0	0	0	0	0	0	0	0	0	0	0	0	0	0	0	0	0	
122567	002	KINGSLEY	DOROTHY	DOROTHY KINGSLEY		8885 LOS LAGOS CIR S				GRANITE BAY CA 95746-5806	CA	95746-5806	85	7202 N UTE DR/ KV 23	Water			Sewer	Penalty			Garbage Service	Garbage Fuel Charge		Storm Drain	Deployed Abatement	Deposit	Miscellaneous							25.78			45.75				14.50			8.25									0	206.19	111.24CR	15.00		94.28	204.23	08/08/2022	08/31/2022	07/01/2022	07/31/2022	47						00023						29930623						1						07/18/2022						4676						06/17/2022						4677						0						GAL							Past Due balances must be paid by 08/15/2022  in order to avoid a $50 fee and disconnection of water service.	If you would like to enroll in paperless billing or pay your bills online please visit www.eaglemountaincity.com	122567	01/03/2022	109.95	Single Graph				GAL To	31	7																		95746	0	JUL	JUN	MAY	APR	MAR	FEB	JAN	DEC	NOV	OCT	SEP	AUG		7	6	5	4	3	2	1	12	11	10	9	8	0	0	0	2	3	2	2	1	0	0	0	0	0	0	0	0	0	0	0	0	0	0	0	0	0	0	
122567	003	KINGSLEY	DOROTHY	DOROTHY KINGSLEY		8885 LOS LAGOS CIR S				GRANITE BAY CA 95746-5806	CA	95746-5806	85	4112 E CHINOOK ST/ KV 84	Water			Sewer	Penalty			Garbage Service	Garbage Fuel Charge		Storm Drain	Deployed Abatement	Deposit	Miscellaneous							52.50			45.75				20.75			8.25									0	135.89	135.89CR			127.25	127.25	08/08/2022	08/31/2022	07/01/2022	07/31/2022	47						00084						85944417						1						07/19/2022						437						06/20/2022						462						25						GAL							Past Due balances must be paid by 08/15/2022  in order to avoid a $50 fee and disconnection of water service.	If you would like to enroll in paperless billing or pay your bills online please visit www.eaglemountaincity.com	122567	01/03/2022		Single Graph				GAL To	31	7																		95746	0	JUL	JUN	MAY	APR	MAR	FEB	JAN	DEC	NOV	OCT	SEP	AUG		7	6	5	4	3	2	1	12	11	10	9	8	0	25	33	23	20	14	13	6	0	0	0	0	0	0	0	0	0	0	0	0	0	0	0	0	0	0	
122567	001	KINGSLEY	DOROTHY	DOROTHY KINGSLEY		8885 LOS LAGOS CIR S				GRANITE BAY CA 95746-5806	CA	95746-5806	85	3687 E ROYAL TROON DR/ EG 403	Water			Sewer	Penalty			Garbage Service	Garbage Fuel Charge		Storm Drain	Deployed Abatement	Deposit	Miscellaneous							38.35			45.75				14.50			8.25									0	104.85	104.85CR			106.85	106.85	08/08/2022	08/31/2022	07/01/2022	07/31/2022	48						00403						29930655						3						07/19/2022						3073						06/17/2022						3084						11						Decatherm							Past Due balances must be paid by 08/15/2022  in order to avoid a $50 fee and disconnection of water service.	If you would like to enroll in paperless billing or pay your bills online please visit www.eaglemountaincity.com	122567	01/03/2022		Single Graph				GAL To	31	7																		95746	0	JUL	JUN	MAY	APR	MAR	FEB	JAN	DEC	NOV	OCT	SEP	AUG		7	6	5	4	3	2	1	12	11	10	9	8	0	11	10	8	22	15	8	4	0	0	0	0	0	0	0	0	0	0	0	0	0	0	0	0	0	0	
